 nodejieba

 Timestamp is 5833d6a6 (Tue Nov 22 13:24:54 2016)

 Preferred load address is 10000000

 Start         Length     Name                   Class
 0001:00000000 000000d0H .text$di                CODE
 0001:000000d0 0003d840H .text$mn                CODE
 0001:0003d910 000019b0H .text$x                 CODE
 0001:0003f2c0 00000051H .text$yd                CODE
 0002:00000000 00000168H .idata$5                DATA
 0002:00000168 00000004H .00cfg                  DATA
 0002:0000016c 00000004H .CRT$XCA                DATA
 0002:00000170 0000001cH .CRT$XCC                DATA
 0002:0000018c 00000008H .CRT$XCL                DATA
 0002:00000194 00000004H .CRT$XCU                DATA
 0002:00000198 00000004H .CRT$XCZ                DATA
 0002:0000019c 00000004H .CRT$XIA                DATA
 0002:000001a0 00000018H .CRT$XIC                DATA
 0002:000001b8 00000004H .CRT$XIZ                DATA
 0002:000001bc 00000004H .CRT$XLA                DATA
 0002:000001c0 00000004H .CRT$XLZ                DATA
 0002:000001c4 00000004H .CRT$XPA                DATA
 0002:000001c8 00000008H .CRT$XPX                DATA
 0002:000001d0 00000004H .CRT$XPXA               DATA
 0002:000001d4 00000004H .CRT$XPZ                DATA
 0002:000001d8 00000004H .CRT$XTA                DATA
 0002:000001dc 00000004H .CRT$XTZ                DATA
 0002:000001e0 0000e224H .rdata                  DATA
 0002:0000e404 00000018H .rdata$T                DATA
 0002:0000e41c 000009a4H .rdata$r                DATA
 0002:0000edc0 00000198H .rdata$sxdata           DATA
 0002:0000ef58 0000048cH .rdata$zzzdbg           DATA
 0002:0000f3e4 00000004H .rtc$IAA                DATA
 0002:0000f3e8 00000004H .rtc$IZZ                DATA
 0002:0000f3ec 00000004H .rtc$TAA                DATA
 0002:0000f3f0 00000008H .rtc$TZZ                DATA
 0002:0000f3f8 00001e44H .xdata$x                DATA
 0002:0001123c 00000020H .didat$2                DATA
 0002:0001125c 00000020H .didat$3                DATA
 0002:0001127c 00000080H .didat$4                DATA
 0002:000112fc 00000774H .didat$6                DATA
 0002:00011a70 00000080H .didat$7                DATA
 0002:00011af0 00000058H .edata                  DATA
 0002:00011b48 00000014H .idata$2                DATA
 0002:00011b5c 00000014H .idata$3                DATA
 0002:00011b70 00000168H .idata$4                DATA
 0002:00011cd8 00000678H .idata$6                DATA
 0003:00000000 00000a00H .data                   DATA
 0003:00000a00 000004a4H .data$r                 DATA
 0003:00000ea4 00000084H .didat$5                DATA
 0003:00000f28 00000ee0H .bss                    DATA
 0004:00000000 000000c4H .gfids$x                DATA
 0004:000000c4 00000264H .gfids$y                DATA
 0005:00000000 00000004H .tls                    DATA
 0005:00000004 00000004H .tls$                   DATA
 0005:00000008 00000001H .tls$ZZZ                DATA
 0006:00000000 00000060H .rsrc$01                DATA
 0006:00000060 00000180H .rsrc$02                DATA

  Address         Publics by Value              Rva+Base       Lib:Object

 0000:00000000       ___guard_fids_count        00000000     <absolute>
 0000:00000000       ___guard_longjmp_table     00000000     <absolute>
 0000:00000000       ___guard_longjmp_count     00000000     <absolute>
 0000:00000000       ___guard_iat_table         00000000     <absolute>
 0000:00000000       ___guard_iat_count         00000000     <absolute>
 0000:00000000       __except_list              00000000     <absolute>
 0000:00000000       ___guard_fids_table        00000000     <absolute>
 0000:00000000       ___dynamic_value_reloc_table 00000000     <absolute>
 0000:0000002c       __tls_array                0000002c     <absolute>
 0000:00000066       ___safe_se_handler_count   00000066     <absolute>
 0000:00000100       ___guard_flags             00000100     <absolute>
 0000:00000000       ___ImageBase               10000000     <linker-defined>
 0001:00000170       ?New@?$Factory@VFunctionTemplate@v8@@@imp@Nan@@SA?AV?$Local@VFunctionTemplate@v8@@@v8@@P6AXABV?$FunctionCallbackInfo@VValue@v8@@@3@@ZV?$Local@VValue@v8@@@5@V?$Local@VSignature@v8@@@5@@Z 10001170 f i index.obj
 0001:000002d0       ?init@@YAXV?$Local@VObject@v8@@@v8@@@Z 100012d0 f   index.obj
 0001:00000640       ___local_stdio_printf_options 10001640 f i nodejieba.obj
 0001:00000650       __vsprintf_s_l             10001650 f i nodejieba.obj
 0001:00000690       _sprintf_s                 10001690 f i nodejieba.obj
 0001:00000710       ___except_validate_jump_buffer 10001710 f i libvcruntime:jbcxrval.obj
 0001:00000710       ?_Doraise@exception@stdext@@MBEXXZ 10001710 f i nodejieba.obj
 0001:00000710       ?_Unlock@?$basic_streambuf@DU?$char_traits@D@std@@@std@@UAEXXZ 10001710 f i nodejieba.obj
 0001:00000710       ??3@YAXPAX0@Z              10001710 f i nodejieba.obj
 0001:00000710       @_guard_check_icall_nop@4  10001710 f i LIBCMT:guard_support.obj
 0001:00000710       ?_Lock@?$basic_streambuf@DU?$char_traits@D@std@@@std@@UAEXXZ 10001710 f i nodejieba.obj
 0001:00000710       ___except_validate_context_record 10001710 f i libvcruntime:jbcxrval.obj
 0001:00000720       ?what@exception@stdext@@UBEPBDXZ 10001720 f i nodejieba.obj
 0001:00000730       ?_Raise@exception@stdext@@QBEXXZ 10001730 f i nodejieba.obj
 0001:00000760       ??_Eruntime_error@std@@UAEPAXI@Z 10001760 f i * CIL library *:* CIL module *
 0001:00000760       ??_Eexception@stdext@@UAEPAXI@Z 10001760 f i * CIL library *:* CIL module *
 0001:00000760       ??_Gexception@stdext@@UAEPAXI@Z 10001760 f i nodejieba.obj
 0001:00000760       ??_Gruntime_error@std@@UAEPAXI@Z 10001760 f i nodejieba.obj
 0001:00000790       ?_Deallocate@std@@YAXPAXII@Z 10001790 f i nodejieba.obj
 0001:000007f0       ??1failure@ios_base@std@@UAE@XZ 100017f0 f i nodejieba.obj
 0001:000007f0       ??1runtime_error@std@@UAE@XZ 100017f0 f i nodejieba.obj
 0001:00000800       ??0_Locinfo@std@@QAE@PBD@Z 10001800 f i nodejieba.obj
 0001:000008c0       ??1_Locinfo@std@@QAE@XZ    100018c0 f i nodejieba.obj
 0001:00000960       ??_G_Facet_base@std@@UAEPAXI@Z 10001960 f i nodejieba.obj
 0001:00000960       ??_E_Facet_base@std@@UAEPAXI@Z 10001960 f i * CIL library *:* CIL module *
 0001:00000990       ?_Incref@facet@locale@std@@UAEXXZ 10001990 f i nodejieba.obj
 0001:000009a0       ?_Decref@facet@locale@std@@UAEPAV_Facet_base@3@XZ 100019a0 f i nodejieba.obj
 0001:000009c0       ??1facet@locale@std@@MAE@XZ 100019c0 f i nodejieba.obj
 0001:000009d0       ??1locale@std@@QAE@XZ      100019d0 f i nodejieba.obj
 0001:000009f0       ?do_encoding@codecvt_base@std@@MBEHXZ 100019f0 f i nodejieba.obj
 0001:000009f0       ?do_max_length@codecvt_base@std@@MBEHXZ 100019f0 f i nodejieba.obj
 0001:00000a00       ?_Getcat@?$ctype@D@std@@SAIPAPBVfacet@locale@2@PBV42@@Z 10001a00 f i nodejieba.obj
 0001:00000ac0       ?do_tolower@?$ctype@D@std@@MBEDD@Z 10001ac0 f i nodejieba.obj
 0001:00000ae0       ?do_tolower@?$ctype@D@std@@MBEPBDPADPBD@Z 10001ae0 f i nodejieba.obj
 0001:00000b20       ?do_toupper@?$ctype@D@std@@MBEDD@Z 10001b20 f i nodejieba.obj
 0001:00000b40       ?do_toupper@?$ctype@D@std@@MBEPBDPADPBD@Z 10001b40 f i nodejieba.obj
 0001:00000b80       ?do_widen@?$ctype@D@std@@MBEDD@Z 10001b80 f i nodejieba.obj
 0001:00000b90       ?do_widen@?$ctype@D@std@@MBEPBDPBD0PAD@Z 10001b90 f i nodejieba.obj
 0001:00000bb0       ?do_narrow@?$ctype@D@std@@MBEDDD@Z 10001bb0 f i nodejieba.obj
 0001:00000bc0       ?do_narrow@?$ctype@D@std@@MBEPBDPBD0DPAD@Z 10001bc0 f i nodejieba.obj
 0001:00000be0       ??_G?$ctype@D@std@@MAEPAXI@Z 10001be0 f i nodejieba.obj
 0001:00000be0       ??_E?$ctype@D@std@@MAEPAXI@Z 10001be0 f i * CIL library *:* CIL module *
 0001:00000c30       ??_E_Iostream_error_category@std@@UAEPAXI@Z 10001c30 f i * CIL library *:* CIL module *
 0001:00000c30       ??_G_Iostream_error_category@std@@UAEPAXI@Z 10001c30 f i nodejieba.obj
 0001:00000c30       ??_Gerror_category@std@@UAEPAXI@Z 10001c30 f i nodejieba.obj
 0001:00000c30       ??_Eerror_category@std@@UAEPAXI@Z 10001c30 f i * CIL library *:* CIL module *
 0001:00000c60       ?message@error_code@std@@QBE?AV?$basic_string@DU?$char_traits@D@std@@V?$allocator@D@2@@2@XZ 10001c60 f i nodejieba.obj
 0001:00000c90       ?default_error_condition@error_category@std@@UBE?AVerror_condition@2@H@Z 10001c90 f i nodejieba.obj
 0001:00000ca0       ?equivalent@error_category@std@@UBE_NHABVerror_condition@2@@Z 10001ca0 f i nodejieba.obj
 0001:00000d00       ?equivalent@error_category@std@@UBE_NABVerror_code@2@H@Z 10001d00 f i nodejieba.obj
 0001:00000d30       ?_Makestr@_System_error@std@@CA?AV?$basic_string@DU?$char_traits@D@std@@V?$allocator@D@2@@2@Verror_code@2@V32@@Z 10001d30 f i nodejieba.obj
 0001:00000df0       ??0_System_error@std@@IAE@Verror_code@1@ABV?$basic_string@DU?$char_traits@D@std@@V?$allocator@D@2@@1@@Z 10001df0 f i nodejieba.obj
 0001:00000e90       ??_G_System_error@std@@UAEPAXI@Z 10001e90 f i nodejieba.obj
 0001:00000e90       ??_Gsystem_error@std@@UAEPAXI@Z 10001e90 f i nodejieba.obj
 0001:00000e90       ??_Gfailure@ios_base@std@@UAEPAXI@Z 10001e90 f i nodejieba.obj
 0001:00000e90       ??_E_System_error@std@@UAEPAXI@Z 10001e90 f i * CIL library *:* CIL module *
 0001:00000e90       ??_Efailure@ios_base@std@@UAEPAXI@Z 10001e90 f i * CIL library *:* CIL module *
 0001:00000e90       ??_Esystem_error@std@@UAEPAXI@Z 10001e90 f i * CIL library *:* CIL module *
 0001:00000ec0       ??0system_error@std@@QAE@Verror_code@1@PBD@Z 10001ec0 f i nodejieba.obj
 0001:00000f80       ?message@_Generic_error_category@std@@UBE?AV?$basic_string@DU?$char_traits@D@std@@V?$allocator@D@2@@2@H@Z 10001f80 f i nodejieba.obj
 0001:00000ff0       ?name@_Iostream_error_category@std@@UBEPBDXZ 10001ff0 f i nodejieba.obj
 0001:00001000       ?message@_Iostream_error_category@std@@UBE?AV?$basic_string@DU?$char_traits@D@std@@V?$allocator@D@2@@2@H@Z 10002000 f i nodejieba.obj
 0001:00001050       ??0failure@ios_base@std@@QAE@PBDABVerror_code@2@@Z 10002050 f i nodejieba.obj
 0001:00001080       ?clear@ios_base@std@@QAEXH_N@Z 10002080 f i nodejieba.obj
 0001:00001170       ?getloc@ios_base@std@@QBE?AVlocale@2@XZ 10002170 f i nodejieba.obj
 0001:000011a0       ?_Init@ios_base@std@@IAEXXZ 100021a0 f i nodejieba.obj
 0001:00001250       ??_Eios_base@std@@UAEPAXI@Z 10002250 f i * CIL library *:* CIL module *
 0001:00001250       ??_Gios_base@std@@UAEPAXI@Z 10002250 f i nodejieba.obj
 0001:00001280       ?WrapVector@@YAXAAV?$vector@V?$basic_string@DU?$char_traits@D@std@@V?$allocator@D@2@@std@@V?$allocator@V?$basic_string@DU?$char_traits@D@std@@V?$allocator@D@2@@std@@@2@@std@@AAV?$Local@VArray@v8@@@v8@@@Z 10002280 f i nodejieba.obj
 0001:00001370       ?WrapPairVector@@YAXAAV?$vector@U?$pair@V?$basic_string@DU?$char_traits@D@std@@V?$allocator@D@2@@std@@N@std@@V?$allocator@U?$pair@V?$basic_string@DU?$char_traits@D@std@@V?$allocator@D@2@@std@@N@std@@@2@@std@@AAV?$Local@VArray@v8@@@v8@@@Z 10002370 f i nodejieba.obj
 0001:00001500       ?WrapPairVector@@YAXAAV?$vector@U?$pair@V?$basic_string@DU?$char_traits@D@std@@V?$allocator@D@2@@std@@V12@@std@@V?$allocator@U?$pair@V?$basic_string@DU?$char_traits@D@std@@V?$allocator@D@2@@std@@V12@@std@@@2@@std@@AAV?$Local@VArray@v8@@@v8@@@Z 10002500 f i nodejieba.obj
 0001:000016d0       ??0Logger@limonp@@QAE@IPBDH@Z 100026d0 f i nodejieba.obj
 0001:00001800       ??1Logger@limonp@@QAE@XZ   10002800 f i nodejieba.obj
 0001:000018c0       ??_D?$basic_ostringstream@DU?$char_traits@D@std@@V?$allocator@D@2@@std@@QAEXXZ 100028c0 f i nodejieba.obj
 0001:000018e0       ?IsSpace@limonp@@YA_NI@Z   100028e0 f i nodejieba.obj
 0001:00001910       ?LTrim@limonp@@YAAAV?$basic_string@DU?$char_traits@D@std@@V?$allocator@D@2@@std@@AAV23@@Z 10002910 f i nodejieba.obj
 0001:00001990       ?RTrim@limonp@@YAAAV?$basic_string@DU?$char_traits@D@std@@V?$allocator@D@2@@std@@AAV23@@Z 10002990 f i nodejieba.obj
 0001:00001a20       ?Split@limonp@@YAXABV?$basic_string@DU?$char_traits@D@std@@V?$allocator@D@2@@std@@AAV?$vector@V?$basic_string@DU?$char_traits@D@std@@V?$allocator@D@2@@std@@V?$allocator@V?$basic_string@DU?$char_traits@D@std@@V?$allocator@D@2@@std@@@2@@3@0I@Z 10002a20 f i nodejieba.obj
 0001:00001ca0       ?Split@limonp@@YA?AV?$vector@V?$basic_string@DU?$char_traits@D@std@@V?$allocator@D@2@@std@@V?$allocator@V?$basic_string@DU?$char_traits@D@std@@V?$allocator@D@2@@std@@@2@@std@@ABV?$basic_string@DU?$char_traits@D@std@@V?$allocator@D@2@@3@0I@Z 10002ca0 f i nodejieba.obj
 0001:00001d20       ?DecodeRuneInString@cppjieba@@YA?AURuneStrLite@1@PBDI@Z 10002d20 f i nodejieba.obj
 0001:00001e10       ?DecodeRunesInString@cppjieba@@YA_NPBDIAAV?$LocalVector@URuneStr@cppjieba@@@limonp@@@Z 10002e10 f i nodejieba.obj
 0001:00001f40       ?DecodeRunesInString@cppjieba@@YA_NPBDIAAV?$LocalVector@I@limonp@@@Z 10002f40 f i nodejieba.obj
 0001:000020d0       ?GetWordFromRunes@cppjieba@@YA?AUWord@1@ABV?$basic_string@DU?$char_traits@D@std@@V?$allocator@D@2@@std@@PBURuneStr@1@1@Z 100030d0 f i nodejieba.obj
 0001:000021b0       ??1?$basic_string@DU?$char_traits@D@std@@V?$allocator@D@2@@std@@QAE@XZ 100031b0 f i nodejieba.obj
 0001:000021b0       ??1Word@cppjieba@@QAE@XZ   100031b0 f i nodejieba.obj
 0001:000021b0       ??1?$pair@V?$basic_string@DU?$char_traits@D@std@@V?$allocator@D@2@@std@@N@std@@QAE@XZ 100031b0 f i nodejieba.obj
 0001:000021f0       ?GetWordsFromWordRanges@cppjieba@@YAXABV?$basic_string@DU?$char_traits@D@std@@V?$allocator@D@2@@std@@ABV?$vector@UWordRange@cppjieba@@V?$allocator@UWordRange@cppjieba@@@std@@@3@AAV?$vector@UWord@cppjieba@@V?$allocator@UWord@cppjieba@@@std@@@3@@Z 100031f0 f i nodejieba.obj
 0001:000022d0       ?GetStringsFromWords@cppjieba@@YAXABV?$vector@UWord@cppjieba@@V?$allocator@UWord@cppjieba@@@std@@@std@@AAV?$vector@V?$basic_string@DU?$char_traits@D@std@@V?$allocator@D@2@@std@@V?$allocator@V?$basic_string@DU?$char_traits@D@std@@V?$allocator@D@2@@std@@@2@@3@@Z 100032d0 f i nodejieba.obj
 0001:00002370       ?Find@Trie@cppjieba@@QBEPBUDictUnit@2@PBURuneStr@2@0@Z 10003370 f i nodejieba.obj
 0001:000023c0       ?Find@Trie@cppjieba@@QBEXPBURuneStr@2@0AAV?$vector@UDag@cppjieba@@V?$allocator@UDag@cppjieba@@@std@@@std@@I@Z 100033c0 f i nodejieba.obj
 0001:00002600       ?InsertNode@Trie@cppjieba@@QAEXABV?$LocalVector@I@limonp@@PBUDictUnit@2@@Z 10003600 f i nodejieba.obj
 0001:00002780       ?CreateTrie@Trie@cppjieba@@AAEXABV?$vector@V?$LocalVector@I@limonp@@V?$allocator@V?$LocalVector@I@limonp@@@std@@@std@@ABV?$vector@PBUDictUnit@cppjieba@@V?$allocator@PBUDictUnit@cppjieba@@@std@@@4@@Z 10003780 f i nodejieba.obj
 0001:00002840       ?DeleteNode@Trie@cppjieba@@AAEXPAVTrieNode@2@@Z 10003840 f i nodejieba.obj
 0001:000028a0       ??0DictTrie@cppjieba@@QAE@ABV?$basic_string@DU?$char_traits@D@std@@V?$allocator@D@2@@std@@0W4UserWordWeightOption@01@@Z 100038a0 f i nodejieba.obj
 0001:00002980       ??1DictTrie@cppjieba@@QAE@XZ 10003980 f i nodejieba.obj
 0001:00002a50       ?InsertUserWord@DictTrie@cppjieba@@QAE_NABV?$basic_string@DU?$char_traits@D@std@@V?$allocator@D@2@@std@@0@Z 10003a50 f i nodejieba.obj
 0001:00002b80       ?Init@DictTrie@cppjieba@@AAEXABV?$basic_string@DU?$char_traits@D@std@@V?$allocator@D@2@@std@@0W4UserWordWeightOption@12@@Z 10003b80 f i nodejieba.obj
 0001:00002be0       ?CreateTrie@DictTrie@cppjieba@@AAEXABV?$vector@UDictUnit@cppjieba@@V?$allocator@UDictUnit@cppjieba@@@std@@@std@@@Z 10003be0 f i nodejieba.obj
 0001:00002fa0       ?LoadUserDict@DictTrie@cppjieba@@AAEXABV?$basic_string@DU?$char_traits@D@std@@V?$allocator@D@2@@std@@@Z 10003fa0 f i nodejieba.obj
 0001:00003810       ?MakeNodeInfo@DictTrie@cppjieba@@AAE_NAAUDictUnit@2@ABV?$basic_string@DU?$char_traits@D@std@@V?$allocator@D@2@@std@@N1@Z 10004810 f i nodejieba.obj
 0001:000038f0       ?LoadDict@DictTrie@cppjieba@@AAEXABV?$basic_string@DU?$char_traits@D@std@@V?$allocator@D@2@@std@@@Z 100048f0 f i nodejieba.obj
 0001:00003fa0       ?WeightCompare@DictTrie@cppjieba@@CA_NABUDictUnit@2@0@Z 10004fa0 f i nodejieba.obj
 0001:00003fd0       ?SetStaticWordWeights@DictTrie@cppjieba@@AAEXW4UserWordWeightOption@12@@Z 10004fd0 f i nodejieba.obj
 0001:00004110       ?CalcFreqSum@DictTrie@cppjieba@@ABENABV?$vector@UDictUnit@cppjieba@@V?$allocator@UDictUnit@cppjieba@@@std@@@std@@@Z 10005110 f i nodejieba.obj
 0001:000041a0       ?CalculateWeight@DictTrie@cppjieba@@ABEXAAV?$vector@UDictUnit@cppjieba@@V?$allocator@UDictUnit@cppjieba@@@std@@@std@@N@Z 100051a0 f i nodejieba.obj
 0001:00004270       ?Shrink@DictTrie@cppjieba@@ABEXAAV?$vector@UDictUnit@cppjieba@@V?$allocator@UDictUnit@cppjieba@@@std@@@std@@@Z 10005270 f i nodejieba.obj
 0001:00004320       ??1?$unordered_set@IU?$hash@I@std@@U?$equal_to@I@2@V?$allocator@I@2@@std@@QAE@XZ 10005320 f i nodejieba.obj
 0001:00004320       ??1?$unordered_map@INU?$hash@I@std@@U?$equal_to@I@2@V?$allocator@U?$pair@$$CBIN@std@@@2@@std@@QAE@XZ 10005320 f i nodejieba.obj
 0001:00004330       ??1DictUnit@cppjieba@@QAE@XZ 10005330 f i nodejieba.obj
 0001:00004380       ??_D?$basic_ifstream@DU?$char_traits@D@std@@@std@@QAEXXZ 10005380 f i nodejieba.obj
 0001:000043e0       ??0PreFilter@cppjieba@@QAE@ABV?$unordered_set@IU?$hash@I@std@@U?$equal_to@I@2@V?$allocator@I@2@@std@@ABV?$basic_string@DU?$char_traits@D@std@@V?$allocator@D@2@@3@@Z 100053e0 f i nodejieba.obj
 0001:00004490       ??1PreFilter@cppjieba@@QAE@XZ 10005490 f i nodejieba.obj
 0001:000044b0       ?Next@PreFilter@cppjieba@@QAE?AURange@12@XZ 100054b0 f i nodejieba.obj
 0001:00004550       ??0SegmentBase@cppjieba@@QAE@XZ 10005550 f i nodejieba.obj
 0001:00004670       ??1SegmentBase@cppjieba@@UAE@XZ 10005670 f i nodejieba.obj
 0001:00004670       ??1SegmentTagged@cppjieba@@UAE@XZ 10005670 f i nodejieba.obj
 0001:00004680       ?ResetSeparators@SegmentBase@cppjieba@@QAE_NABV?$basic_string@DU?$char_traits@D@std@@V?$allocator@D@2@@std@@@Z 10005680 f i nodejieba.obj
 0001:000048a0       ??_ESegmentBase@cppjieba@@UAEPAXI@Z 100058a0 f i * CIL library *:* CIL module *
 0001:000048a0       ??_GSegmentBase@cppjieba@@UAEPAXI@Z 100058a0 f i nodejieba.obj
 0001:000048d0       ??1FullSegment@cppjieba@@UAE@XZ 100058d0 f i nodejieba.obj
 0001:00004910       ?Cut@FullSegment@cppjieba@@UBEXABV?$basic_string@DU?$char_traits@D@std@@V?$allocator@D@2@@std@@AAV?$vector@V?$basic_string@DU?$char_traits@D@std@@V?$allocator@D@2@@std@@V?$allocator@V?$basic_string@DU?$char_traits@D@std@@V?$allocator@D@2@@std@@@2@@4@@Z 10005910 f i nodejieba.obj
 0001:000049c0       ?Cut@FullSegment@cppjieba@@QBEXABV?$basic_string@DU?$char_traits@D@std@@V?$allocator@D@2@@std@@AAV?$vector@UWord@cppjieba@@V?$allocator@UWord@cppjieba@@@std@@@4@@Z 100059c0 f i nodejieba.obj
 0001:00004b60       ?Cut@FullSegment@cppjieba@@QBEXPBURuneStr@2@0AAV?$vector@UWordRange@cppjieba@@V?$allocator@UWordRange@cppjieba@@@std@@@std@@@Z 10005b60 f i nodejieba.obj
 0001:00004fa0       ??_GFullSegment@cppjieba@@UAEPAXI@Z 10005fa0 f i nodejieba.obj
 0001:00004fa0       ??_EFullSegment@cppjieba@@UAEPAXI@Z 10005fa0 f i * CIL library *:* CIL module *
 0001:00004ff0       ?Tag@PosTagger@cppjieba@@QBE_NABV?$basic_string@DU?$char_traits@D@std@@V?$allocator@D@2@@std@@AAV?$vector@U?$pair@V?$basic_string@DU?$char_traits@D@std@@V?$allocator@D@2@@std@@V12@@std@@V?$allocator@U?$pair@V?$basic_string@DU?$char_traits@D@std@@V?$allocator@D@2@@std@@V12@@std@@@2@@4@ABVSegmentTagged@2@@Z 10005ff0 f i nodejieba.obj
 0001:000052c0       ?LookupTag@PosTagger@cppjieba@@QBE?AV?$basic_string@DU?$char_traits@D@std@@V?$allocator@D@2@@std@@ABV34@ABVSegmentTagged@2@@Z 100062c0 f i nodejieba.obj
 0001:00005480       ?SpecialRule@PosTagger@cppjieba@@ABEPBDABV?$LocalVector@URuneStr@cppjieba@@@limonp@@@Z 10006480 f i nodejieba.obj
 0001:000054f0       ??1?$pair@V?$basic_string@DU?$char_traits@D@std@@V?$allocator@D@2@@std@@V12@@std@@QAE@XZ 100064f0 f i nodejieba.obj
 0001:00005560       ??1MPSegment@cppjieba@@UAE@XZ 10006560 f i nodejieba.obj
 0001:000055a0       ?Cut@MPSegment@cppjieba@@UBEXABV?$basic_string@DU?$char_traits@D@std@@V?$allocator@D@2@@std@@AAV?$vector@V?$basic_string@DU?$char_traits@D@std@@V?$allocator@D@2@@std@@V?$allocator@V?$basic_string@DU?$char_traits@D@std@@V?$allocator@D@2@@std@@@2@@4@@Z 100065a0 f i nodejieba.obj
 0001:000055c0       ?Cut@MPSegment@cppjieba@@QBEXABV?$basic_string@DU?$char_traits@D@std@@V?$allocator@D@2@@std@@AAV?$vector@V?$basic_string@DU?$char_traits@D@std@@V?$allocator@D@2@@std@@V?$allocator@V?$basic_string@DU?$char_traits@D@std@@V?$allocator@D@2@@std@@@2@@4@I@Z 100065c0 f i nodejieba.obj
 0001:00005670       ?Cut@MPSegment@cppjieba@@QBEXABV?$basic_string@DU?$char_traits@D@std@@V?$allocator@D@2@@std@@AAV?$vector@UWord@cppjieba@@V?$allocator@UWord@cppjieba@@@std@@@4@I@Z 10006670 f i nodejieba.obj
 0001:00005810       ?Cut@MPSegment@cppjieba@@QBEXPBURuneStr@2@0AAV?$vector@UWordRange@cppjieba@@V?$allocator@UWordRange@cppjieba@@@std@@@std@@I@Z 10006810 f i nodejieba.obj
 0001:00005900       ?GetDictTrie@MPSegment@cppjieba@@UBEPBVDictTrie@2@XZ 10006900 f i nodejieba.obj
 0001:00005910       ?Tag@MixSegment@cppjieba@@UBE_NABV?$basic_string@DU?$char_traits@D@std@@V?$allocator@D@2@@std@@AAV?$vector@U?$pair@V?$basic_string@DU?$char_traits@D@std@@V?$allocator@D@2@@std@@V12@@std@@V?$allocator@U?$pair@V?$basic_string@DU?$char_traits@D@std@@V?$allocator@D@2@@std@@V12@@std@@@2@@4@@Z 10006910 f i nodejieba.obj
 0001:00005910       ?Tag@MPSegment@cppjieba@@UBE_NABV?$basic_string@DU?$char_traits@D@std@@V?$allocator@D@2@@std@@AAV?$vector@U?$pair@V?$basic_string@DU?$char_traits@D@std@@V?$allocator@D@2@@std@@V12@@std@@V?$allocator@U?$pair@V?$basic_string@DU?$char_traits@D@std@@V?$allocator@D@2@@std@@V12@@std@@@2@@4@@Z 10006910 f i nodejieba.obj
 0001:00005930       ?CalcDP@MPSegment@cppjieba@@ABEXAAV?$vector@UDag@cppjieba@@V?$allocator@UDag@cppjieba@@@std@@@std@@@Z 10006930 f i nodejieba.obj
 0001:00005a60       ?CutByDag@MPSegment@cppjieba@@ABEXPBURuneStr@2@0ABV?$vector@UDag@cppjieba@@V?$allocator@UDag@cppjieba@@@std@@@std@@AAV?$vector@UWordRange@cppjieba@@V?$allocator@UWordRange@cppjieba@@@std@@@5@@Z 10006a60 f i nodejieba.obj
 0001:00005d50       ??_EMPSegment@cppjieba@@UAEPAXI@Z 10006d50 f i * CIL library *:* CIL module *
 0001:00005d50       ??_GMPSegment@cppjieba@@UAEPAXI@Z 10006d50 f i nodejieba.obj
 0001:00005da0       ??0HMMModel@cppjieba@@QAE@ABV?$basic_string@DU?$char_traits@D@std@@V?$allocator@D@2@@std@@@Z 10006da0 f i nodejieba.obj
 0001:00006020       ??1HMMModel@cppjieba@@QAE@XZ 10007020 f i nodejieba.obj
 0001:00006090       ?LoadModel@HMMModel@cppjieba@@QAEXABV?$basic_string@DU?$char_traits@D@std@@V?$allocator@D@2@@std@@@Z 10007090 f i nodejieba.obj
 0001:00006f90       ?GetLine@HMMModel@cppjieba@@QAE_NAAV?$basic_ifstream@DU?$char_traits@D@std@@@std@@AAV?$basic_string@DU?$char_traits@D@std@@V?$allocator@D@2@@4@@Z 10007f90 f i nodejieba.obj
 0001:000070b0       ?LoadEmitProb@HMMModel@cppjieba@@QAE_NABV?$basic_string@DU?$char_traits@D@std@@V?$allocator@D@2@@std@@AAV?$unordered_map@INU?$hash@I@std@@U?$equal_to@I@2@V?$allocator@U?$pair@$$CBIN@std@@@2@@4@@Z 100080b0 f i nodejieba.obj
 0001:00007490       ??1HMMSegment@cppjieba@@UAE@XZ 10008490 f i nodejieba.obj
 0001:000074d0       ?Cut@HMMSegment@cppjieba@@UBEXABV?$basic_string@DU?$char_traits@D@std@@V?$allocator@D@2@@std@@AAV?$vector@V?$basic_string@DU?$char_traits@D@std@@V?$allocator@D@2@@std@@V?$allocator@V?$basic_string@DU?$char_traits@D@std@@V?$allocator@D@2@@std@@@2@@4@@Z 100084d0 f i nodejieba.obj
 0001:00007580       ?Cut@HMMSegment@cppjieba@@QBEXABV?$basic_string@DU?$char_traits@D@std@@V?$allocator@D@2@@std@@AAV?$vector@UWord@cppjieba@@V?$allocator@UWord@cppjieba@@@std@@@4@@Z 10008580 f i nodejieba.obj
 0001:00007720       ?Cut@HMMSegment@cppjieba@@QBEXPBURuneStr@2@0AAV?$vector@UWordRange@cppjieba@@V?$allocator@UWordRange@cppjieba@@@std@@@std@@@Z 10008720 f i nodejieba.obj
 0001:000078f0       ?SequentialLetterRule@HMMSegment@cppjieba@@ABEPBURuneStr@2@PBU32@0@Z 100088f0 f i nodejieba.obj
 0001:00007940       ?NumbersRule@HMMSegment@cppjieba@@ABEPBURuneStr@2@PBU32@0@Z 10008940 f i nodejieba.obj
 0001:00007980       ?InternalCut@HMMSegment@cppjieba@@ABEXPBURuneStr@2@0AAV?$vector@UWordRange@cppjieba@@V?$allocator@UWordRange@cppjieba@@@std@@@std@@@Z 10008980 f i nodejieba.obj
 0001:00007b10       ?Viterbi@HMMSegment@cppjieba@@ABEXPBURuneStr@2@0AAV?$vector@IV?$allocator@I@std@@@std@@@Z 10008b10 f i nodejieba.obj
 0001:00007fe0       ??_GHMMSegment@cppjieba@@UAEPAXI@Z 10008fe0 f i nodejieba.obj
 0001:00007fe0       ??_EHMMSegment@cppjieba@@UAEPAXI@Z 10008fe0 f i * CIL library *:* CIL module *
 0001:00008040       ??0MixSegment@cppjieba@@QAE@PBVDictTrie@1@PBUHMMModel@1@@Z 10009040 f i nodejieba.obj
 0001:000080f0       ??1MixSegment@cppjieba@@UAE@XZ 100090f0 f i nodejieba.obj
 0001:00008180       ?Cut@MixSegment@cppjieba@@UBEXABV?$basic_string@DU?$char_traits@D@std@@V?$allocator@D@2@@std@@AAV?$vector@V?$basic_string@DU?$char_traits@D@std@@V?$allocator@D@2@@std@@V?$allocator@V?$basic_string@DU?$char_traits@D@std@@V?$allocator@D@2@@std@@@2@@4@@Z 10009180 f i nodejieba.obj
 0001:000081a0       ?Cut@MixSegment@cppjieba@@QBEXABV?$basic_string@DU?$char_traits@D@std@@V?$allocator@D@2@@std@@AAV?$vector@V?$basic_string@DU?$char_traits@D@std@@V?$allocator@D@2@@std@@V?$allocator@V?$basic_string@DU?$char_traits@D@std@@V?$allocator@D@2@@std@@@2@@4@_N@Z 100091a0 f i nodejieba.obj
 0001:00008250       ?Cut@MixSegment@cppjieba@@QBEXABV?$basic_string@DU?$char_traits@D@std@@V?$allocator@D@2@@std@@AAV?$vector@UWord@cppjieba@@V?$allocator@UWord@cppjieba@@@std@@@4@_N@Z 10009250 f i nodejieba.obj
 0001:000083f0       ?Cut@MixSegment@cppjieba@@QBEXPBURuneStr@2@0AAV?$vector@UWordRange@cppjieba@@V?$allocator@UWordRange@cppjieba@@@std@@@std@@_N@Z 100093f0 f i nodejieba.obj
 0001:00008850       ?GetDictTrie@MixSegment@cppjieba@@UBEPBVDictTrie@2@XZ 10009850 f i nodejieba.obj
 0001:00008860       ??_EMixSegment@cppjieba@@UAEPAXI@Z 10009860 f i * CIL library *:* CIL module *
 0001:00008860       ??_GMixSegment@cppjieba@@UAEPAXI@Z 10009860 f i nodejieba.obj
 0001:00008890       ?Cut@QuerySegment@cppjieba@@UBEXABV?$basic_string@DU?$char_traits@D@std@@V?$allocator@D@2@@std@@AAV?$vector@V?$basic_string@DU?$char_traits@D@std@@V?$allocator@D@2@@std@@V?$allocator@V?$basic_string@DU?$char_traits@D@std@@V?$allocator@D@2@@std@@@2@@4@@Z 10009890 f i nodejieba.obj
 0001:000088b0       ?Cut@QuerySegment@cppjieba@@QBEXABV?$basic_string@DU?$char_traits@D@std@@V?$allocator@D@2@@std@@AAV?$vector@V?$basic_string@DU?$char_traits@D@std@@V?$allocator@D@2@@std@@V?$allocator@V?$basic_string@DU?$char_traits@D@std@@V?$allocator@D@2@@std@@@2@@4@_N@Z 100098b0 f i nodejieba.obj
 0001:00008960       ?Cut@QuerySegment@cppjieba@@QBEXABV?$basic_string@DU?$char_traits@D@std@@V?$allocator@D@2@@std@@AAV?$vector@UWord@cppjieba@@V?$allocator@UWord@cppjieba@@@std@@@4@_N@Z 10009960 f i nodejieba.obj
 0001:00008b00       ?Cut@QuerySegment@cppjieba@@QBEXPBURuneStr@2@0AAV?$vector@UWordRange@cppjieba@@V?$allocator@UWordRange@cppjieba@@@std@@@std@@_N@Z 10009b00 f i nodejieba.obj
 0001:000090b0       ??_GQuerySegment@cppjieba@@UAEPAXI@Z 1000a0b0 f i nodejieba.obj
 0001:000090b0       ??_EQuerySegment@cppjieba@@UAEPAXI@Z 1000a0b0 f i * CIL library *:* CIL module *
 0001:000090f0       ??0Jieba@cppjieba@@QAE@ABV?$basic_string@DU?$char_traits@D@std@@V?$allocator@D@2@@std@@00@Z 1000a0f0 f i nodejieba.obj
 0001:00009230       ??1Jieba@cppjieba@@QAE@XZ  1000a230 f i nodejieba.obj
 0001:00009350       ??0KeywordExtractor@cppjieba@@QAE@PBVDictTrie@1@PBUHMMModel@1@ABV?$basic_string@DU?$char_traits@D@std@@V?$allocator@D@2@@std@@2@Z 1000a350 f i nodejieba.obj
 0001:000093f0       ??1KeywordExtractor@cppjieba@@QAE@XZ 1000a3f0 f i nodejieba.obj
 0001:000094b0       ?Extract@KeywordExtractor@cppjieba@@QBEXABV?$basic_string@DU?$char_traits@D@std@@V?$allocator@D@2@@std@@AAV?$vector@U?$pair@V?$basic_string@DU?$char_traits@D@std@@V?$allocator@D@2@@std@@N@std@@V?$allocator@U?$pair@V?$basic_string@DU?$char_traits@D@std@@V?$allocator@D@2@@std@@N@std@@@2@@4@I@Z 1000a4b0 f i nodejieba.obj
 0001:00009760       ?Extract@KeywordExtractor@cppjieba@@QBEXABV?$basic_string@DU?$char_traits@D@std@@V?$allocator@D@2@@std@@AAV?$vector@UWord@KeywordExtractor@cppjieba@@V?$allocator@UWord@KeywordExtractor@cppjieba@@@std@@@4@I@Z 1000a760 f i nodejieba.obj
 0001:00009c50       ?LoadIdfDict@KeywordExtractor@cppjieba@@AAEXABV?$basic_string@DU?$char_traits@D@std@@V?$allocator@D@2@@std@@@Z 1000ac50 f i nodejieba.obj
 0001:0000a1d0       ?LoadStopWordDict@KeywordExtractor@cppjieba@@AAEXABV?$basic_string@DU?$char_traits@D@std@@V?$allocator@D@2@@std@@@Z 1000b1d0 f i nodejieba.obj
 0001:0000a3c0       ?Compare@KeywordExtractor@cppjieba@@CA_NABUWord@12@0@Z 1000b3c0 f i nodejieba.obj
 0001:0000a3e0       ??1?$unordered_map@V?$basic_string@DU?$char_traits@D@std@@V?$allocator@D@2@@std@@NU?$hash@V?$basic_string@DU?$char_traits@D@std@@V?$allocator@D@2@@std@@@2@U?$equal_to@V?$basic_string@DU?$char_traits@D@std@@V?$allocator@D@2@@std@@@2@V?$allocator@U?$pair@$$CBV?$basic_string@DU?$char_traits@D@std@@V?$allocator@D@2@@std@@N@std@@@2@@std@@QAE@XZ 1000b3e0 f i nodejieba.obj
 0001:0000a3e0       ??1?$unordered_set@V?$basic_string@DU?$char_traits@D@std@@V?$allocator@D@2@@std@@U?$hash@V?$basic_string@DU?$char_traits@D@std@@V?$allocator@D@2@@std@@@2@U?$equal_to@V?$basic_string@DU?$char_traits@D@std@@V?$allocator@D@2@@std@@@2@V?$allocator@V?$basic_string@DU?$char_traits@D@std@@V?$allocator@D@2@@std@@@2@@std@@QAE@XZ 1000b3e0 f i nodejieba.obj
 0001:0000a430       ??1?$map@V?$basic_string@DU?$char_traits@D@std@@V?$allocator@D@2@@std@@UWord@KeywordExtractor@cppjieba@@U?$less@V?$basic_string@DU?$char_traits@D@std@@V?$allocator@D@2@@std@@@2@V?$allocator@U?$pair@$$CBV?$basic_string@DU?$char_traits@D@std@@V?$allocator@D@2@@std@@UWord@KeywordExtractor@cppjieba@@@std@@@2@@std@@QAE@XZ 1000b430 f i nodejieba.obj
 0001:0000a450       ?load@@YAXABV?$FunctionCallbackInfo@VValue@v8@@@Nan@@@Z 1000b450 f   nodejieba.obj
 0001:0000a8d0       ?insertWord@@YAXABV?$FunctionCallbackInfo@VValue@v8@@@Nan@@@Z 1000b8d0 f   nodejieba.obj
 0001:0000aaf0       ?cut@@YAXABV?$FunctionCallbackInfo@VValue@v8@@@Nan@@@Z 1000baf0 f   nodejieba.obj
 0001:0000aca0       ?cutHMM@@YAXABV?$FunctionCallbackInfo@VValue@v8@@@Nan@@@Z 1000bca0 f   nodejieba.obj
 0001:0000ae40       ?cutAll@@YAXABV?$FunctionCallbackInfo@VValue@v8@@@Nan@@@Z 1000be40 f   nodejieba.obj
 0001:0000afe0       ?cutForSearch@@YAXABV?$FunctionCallbackInfo@VValue@v8@@@Nan@@@Z 1000bfe0 f   nodejieba.obj
 0001:0000b190       ?cutSmall@@YAXABV?$FunctionCallbackInfo@VValue@v8@@@Nan@@@Z 1000c190 f   nodejieba.obj
 0001:0000b340       ?tag@@YAXABV?$FunctionCallbackInfo@VValue@v8@@@Nan@@@Z 1000c340 f   nodejieba.obj
 0001:0000b510       ?extract@@YAXABV?$FunctionCallbackInfo@VValue@v8@@@Nan@@@Z 1000c510 f   nodejieba.obj
 0001:0000b6d0       ?push_back@?$vector@UWord@KeywordExtractor@cppjieba@@V?$allocator@UWord@KeywordExtractor@cppjieba@@@std@@@std@@QAEXABUWord@KeywordExtractor@cppjieba@@@Z 1000c6d0 f i nodejieba.obj
 0001:0000b7e0       ?resize@?$vector@UWord@KeywordExtractor@cppjieba@@V?$allocator@UWord@KeywordExtractor@cppjieba@@@std@@@std@@QAEXI@Z 1000c7e0 f i nodejieba.obj
 0001:0000b890       ??1?$vector@UWord@KeywordExtractor@cppjieba@@V?$allocator@UWord@KeywordExtractor@cppjieba@@@std@@@std@@QAE@XZ 1000c890 f i nodejieba.obj
 0001:0000b8e0       ??1?$vector@NV?$allocator@N@std@@@std@@QAE@XZ 1000c8e0 f i nodejieba.obj
 0001:0000b8e0       ??1?$vector@UWordRange@cppjieba@@V?$allocator@UWordRange@cppjieba@@@std@@@std@@QAE@XZ 1000c8e0 f i nodejieba.obj
 0001:0000b910       ??1?$vector@V?$_List_unchecked_iterator@V?$_List_val@U?$_List_simple_types@U?$pair@$$CBIPAVTrieNode@cppjieba@@@std@@@std@@@std@@@std@@U?$_Wrap_alloc@V?$allocator@V?$_List_unchecked_iterator@V?$_List_val@U?$_List_simple_types@U?$pair@$$CBIPAVTrieNode@cppjieba@@@std@@@std@@@std@@@std@@@std@@@2@@std@@QAE@XZ 1000c910 f i nodejieba.obj
 0001:0000b910       ??1?$vector@V?$_List_unchecked_iterator@V?$_List_val@U?$_List_simple_types@U?$pair@$$CBV?$basic_string@DU?$char_traits@D@std@@V?$allocator@D@2@@std@@N@std@@@std@@@std@@@std@@U?$_Wrap_alloc@V?$allocator@V?$_List_unchecked_iterator@V?$_List_val@U?$_List_simple_types@U?$pair@$$CBV?$basic_string@DU?$char_traits@D@std@@V?$allocator@D@2@@std@@N@std@@@std@@@std@@@std@@@std@@@2@@std@@QAE@XZ 1000c910 f i nodejieba.obj
 0001:0000b910       ??1?$vector@IV?$allocator@I@std@@@std@@QAE@XZ 1000c910 f i nodejieba.obj
 0001:0000b910       ??1?$vector@HV?$allocator@H@std@@@std@@QAE@XZ 1000c910 f i nodejieba.obj
 0001:0000b910       ??1?$vector@PBUDictUnit@cppjieba@@V?$allocator@PBUDictUnit@cppjieba@@@std@@@std@@QAE@XZ 1000c910 f i nodejieba.obj
 0001:0000b910       ??1?$vector@V?$_List_unchecked_const_iterator@V?$_List_val@U?$_List_simple_types@I@std@@@std@@U_Iterator_base0@2@@std@@U?$_Wrap_alloc@V?$allocator@V?$_List_unchecked_const_iterator@V?$_List_val@U?$_List_simple_types@I@std@@@std@@U_Iterator_base0@2@@std@@@std@@@2@@std@@QAE@XZ 1000c910 f i nodejieba.obj
 0001:0000b910       ??1?$vector@PAV?$unordered_map@INU?$hash@I@std@@U?$equal_to@I@2@V?$allocator@U?$pair@$$CBIN@std@@@2@@std@@V?$allocator@PAV?$unordered_map@INU?$hash@I@std@@U?$equal_to@I@2@V?$allocator@U?$pair@$$CBIN@std@@@2@@std@@@2@@std@@QAE@XZ 1000c910 f i nodejieba.obj
 0001:0000b910       ??1?$vector@V?$_List_unchecked_iterator@V?$_List_val@U?$_List_simple_types@U?$pair@$$CBIN@std@@@std@@@std@@@std@@U?$_Wrap_alloc@V?$allocator@V?$_List_unchecked_iterator@V?$_List_val@U?$_List_simple_types@U?$pair@$$CBIN@std@@@std@@@std@@@std@@@std@@@2@@std@@QAE@XZ 1000c910 f i nodejieba.obj
 0001:0000b910       ??1?$vector@V?$_List_unchecked_const_iterator@V?$_List_val@U?$_List_simple_types@V?$basic_string@DU?$char_traits@D@std@@V?$allocator@D@2@@std@@@std@@@std@@U_Iterator_base0@2@@std@@U?$_Wrap_alloc@V?$allocator@V?$_List_unchecked_const_iterator@V?$_List_val@U?$_List_simple_types@V?$basic_string@DU?$char_traits@D@std@@V?$allocator@D@2@@std@@@std@@@std@@U_Iterator_base0@2@@std@@@std@@@2@@std@@QAE@XZ 1000c910 f i nodejieba.obj
 0001:0000b940       ??1?$_Hash@V?$_Umap_traits@IPAVTrieNode@cppjieba@@V?$_Uhash_compare@IU?$hash@I@std@@U?$equal_to@I@2@@std@@V?$allocator@U?$pair@$$CBIPAVTrieNode@cppjieba@@@std@@@4@$0A@@std@@@std@@QAE@XZ 1000c940 f i nodejieba.obj
 0001:0000b940       ??1?$_Hash@V?$_Uset_traits@IV?$_Uhash_compare@IU?$hash@I@std@@U?$equal_to@I@2@@std@@V?$allocator@I@2@$0A@@std@@@std@@QAE@XZ 1000c940 f i nodejieba.obj
 0001:0000b940       ??1?$_Hash@V?$_Umap_traits@INV?$_Uhash_compare@IU?$hash@I@std@@U?$equal_to@I@2@@std@@V?$allocator@U?$pair@$$CBIN@std@@@2@$0A@@std@@@std@@QAE@XZ 1000c940 f i nodejieba.obj
 0001:0000b9b0       ?push_back@?$deque@UDictUnit@cppjieba@@V?$allocator@UDictUnit@cppjieba@@@std@@@std@@QAEXABUDictUnit@cppjieba@@@Z 1000c9b0 f i nodejieba.obj
 0001:0000ba90       ??1?$deque@UDictUnit@cppjieba@@V?$allocator@UDictUnit@cppjieba@@@std@@@std@@QAE@XZ 1000ca90 f i nodejieba.obj
 0001:0000bab0       ??1?$vector@UDictUnit@cppjieba@@V?$allocator@UDictUnit@cppjieba@@@std@@@std@@QAE@XZ 1000cab0 f i nodejieba.obj
 0001:0000bb10       ??0?$vector@UDictUnit@cppjieba@@V?$allocator@UDictUnit@cppjieba@@@std@@@std@@QAE@ABV01@@Z 1000cb10 f i nodejieba.obj
 0001:0000bbb0       ?resize@?$vector@UDag@cppjieba@@V?$allocator@UDag@cppjieba@@@std@@@std@@QAEXI@Z 1000cbb0 f i nodejieba.obj
 0001:0000bc50       ??1?$vector@UDag@cppjieba@@V?$allocator@UDag@cppjieba@@@std@@@std@@QAE@XZ 1000cc50 f i nodejieba.obj
 0001:0000bca0       ??1?$vector@V?$LocalVector@I@limonp@@V?$allocator@V?$LocalVector@I@limonp@@@std@@@std@@QAE@XZ 1000cca0 f i nodejieba.obj
 0001:0000bcb0       ?push_back@?$LocalVector@U?$pair@IPBUDictUnit@cppjieba@@@std@@@limonp@@QAEXABU?$pair@IPBUDictUnit@cppjieba@@@std@@@Z 1000ccb0 f i nodejieba.obj
 0001:0000bd20       ??1?$LocalVector@U?$pair@IPBUDictUnit@cppjieba@@@std@@@limonp@@QAE@XZ 1000cd20 f i nodejieba.obj
 0001:0000bd40       ??1?$vector@UWord@cppjieba@@V?$allocator@UWord@cppjieba@@@std@@@std@@QAE@XZ 1000cd40 f i nodejieba.obj
 0001:0000bda0       ?push_back@?$vector@UWord@cppjieba@@V?$allocator@UWord@cppjieba@@@std@@@std@@QAEX$$QAUWord@cppjieba@@@Z 1000cda0 f i nodejieba.obj
 0001:0000be40       ?reserve@?$LocalVector@URuneStr@cppjieba@@@limonp@@QAEXI@Z 1000ce40 f i nodejieba.obj
 0001:0000bec0       ??1?$LocalVector@URuneStr@cppjieba@@@limonp@@QAE@XZ 1000cec0 f i nodejieba.obj
 0001:0000bee0       ??0?$LocalVector@URuneStr@cppjieba@@@limonp@@QAE@XZ 1000cee0 f i nodejieba.obj
 0001:0000bf30       ?reserve@?$LocalVector@I@limonp@@QAEXI@Z 1000cf30 f i nodejieba.obj
 0001:0000bfa0       ??1?$LocalVector@I@limonp@@QAE@XZ 1000cfa0 f i nodejieba.obj
 0001:0000bfb0       ??1?$vector@U?$pair@V?$basic_string@DU?$char_traits@D@std@@V?$allocator@D@2@@std@@V12@@std@@V?$allocator@U?$pair@V?$basic_string@DU?$char_traits@D@std@@V?$allocator@D@2@@std@@V12@@std@@@2@@std@@QAE@XZ 1000cfb0 f i nodejieba.obj
 0001:0000c000       ??1?$vector@U?$pair@V?$basic_string@DU?$char_traits@D@std@@V?$allocator@D@2@@std@@N@std@@V?$allocator@U?$pair@V?$basic_string@DU?$char_traits@D@std@@V?$allocator@D@2@@std@@N@std@@@2@@std@@QAE@XZ 1000d000 f i nodejieba.obj
 0001:0000c050       ?push_back@?$vector@V?$basic_string@DU?$char_traits@D@std@@V?$allocator@D@2@@std@@V?$allocator@V?$basic_string@DU?$char_traits@D@std@@V?$allocator@D@2@@std@@@2@@std@@QAEXABV?$basic_string@DU?$char_traits@D@std@@V?$allocator@D@2@@2@@Z 1000d050 f i nodejieba.obj
 0001:0000c140       ?resize@?$vector@V?$basic_string@DU?$char_traits@D@std@@V?$allocator@D@2@@std@@V?$allocator@V?$basic_string@DU?$char_traits@D@std@@V?$allocator@D@2@@std@@@2@@std@@QAEXI@Z 1000d140 f i nodejieba.obj
 0001:0000c200       ??1?$vector@V?$basic_string@DU?$char_traits@D@std@@V?$allocator@D@2@@std@@V?$allocator@V?$basic_string@DU?$char_traits@D@std@@V?$allocator@D@2@@std@@@2@@std@@QAE@XZ 1000d200 f i nodejieba.obj
 0001:0000c250       ??1?$_Yarn@_W@std@@QAE@XZ  1000d250 f i nodejieba.obj
 0001:0000c250       ??1?$_Yarn@D@std@@QAE@XZ   1000d250 f i nodejieba.obj
 0001:0000c270       ?substr@?$basic_string@DU?$char_traits@D@std@@V?$allocator@D@2@@std@@QBE?AV12@II@Z 1000d270 f i nodejieba.obj
 0001:0000c2b0       ??0?$basic_string@DU?$char_traits@D@std@@V?$allocator@D@2@@std@@QAE@$$QAV01@@Z 1000d2b0 f i nodejieba.obj
 0001:0000c330       ??0?$basic_ifstream@DU?$char_traits@D@std@@@std@@QAE@PBDHH@Z 1000d330 f i nodejieba.obj
 0001:0000c490       ?imbue@?$basic_filebuf@DU?$char_traits@D@std@@@std@@MAEXABVlocale@2@@Z 1000d490 f i nodejieba.obj
 0001:0000c4b0       ?sync@?$basic_filebuf@DU?$char_traits@D@std@@@std@@MAEHXZ 1000d4b0 f i nodejieba.obj
 0001:0000c4e0       ?setbuf@?$basic_filebuf@DU?$char_traits@D@std@@@std@@MAEPAV?$basic_streambuf@DU?$char_traits@D@std@@@2@PAD_J@Z 1000d4e0 f i nodejieba.obj
 0001:0000c530       ?seekpos@?$basic_filebuf@DU?$char_traits@D@std@@@std@@MAE?AV?$fpos@U_Mbstatet@@@2@V32@H@Z 1000d530 f i nodejieba.obj
 0001:0000c610       ?seekoff@?$basic_filebuf@DU?$char_traits@D@std@@@std@@MAE?AV?$fpos@U_Mbstatet@@@2@_JHH@Z 1000d610 f i nodejieba.obj
 0001:0000c720       ?uflow@?$basic_filebuf@DU?$char_traits@D@std@@@std@@MAEHXZ 1000d720 f i nodejieba.obj
 0001:0000c970       ?underflow@?$basic_filebuf@DU?$char_traits@D@std@@@std@@MAEHXZ 1000d970 f i nodejieba.obj
 0001:0000c9b0       ?pbackfail@?$basic_filebuf@DU?$char_traits@D@std@@@std@@MAEHH@Z 1000d9b0 f i nodejieba.obj
 0001:0000ca40       ?overflow@?$basic_filebuf@DU?$char_traits@D@std@@@std@@MAEHH@Z 1000da40 f i nodejieba.obj
 0001:0000cc50       ?_Unlock@?$basic_filebuf@DU?$char_traits@D@std@@@std@@UAEXXZ 1000dc50 f i nodejieba.obj
 0001:0000cc60       ?_Lock@?$basic_filebuf@DU?$char_traits@D@std@@@std@@UAEXXZ 1000dc60 f i nodejieba.obj
 0001:0000cc70       ??1?$basic_filebuf@DU?$char_traits@D@std@@@std@@UAE@XZ 1000dc70 f i nodejieba.obj
 0001:0000cce0       ?str@?$basic_ostringstream@DU?$char_traits@D@std@@V?$allocator@D@2@@std@@QBE?AV?$basic_string@DU?$char_traits@D@std@@V?$allocator@D@2@@2@XZ 1000dce0 f i nodejieba.obj
 0001:0000cd00       ??1?$basic_ostringstream@DU?$char_traits@D@std@@V?$allocator@D@2@@std@@UAE@XZ 1000dd00 f i nodejieba.obj
 0001:0000cd80       ??0?$basic_ostringstream@DU?$char_traits@D@std@@V?$allocator@D@2@@std@@QAE@H@Z 1000dd80 f i nodejieba.obj
 0001:0000ce80       ?seekpos@?$basic_stringbuf@DU?$char_traits@D@std@@V?$allocator@D@2@@std@@MAE?AV?$fpos@U_Mbstatet@@@2@V32@H@Z 1000de80 f i nodejieba.obj
 0001:0000cfb0       ?seekoff@?$basic_stringbuf@DU?$char_traits@D@std@@V?$allocator@D@2@@std@@MAE?AV?$fpos@U_Mbstatet@@@2@_JHH@Z 1000dfb0 f i nodejieba.obj
 0001:0000d190       ?underflow@?$basic_stringbuf@DU?$char_traits@D@std@@V?$allocator@D@2@@std@@MAEHXZ 1000e190 f i nodejieba.obj
 0001:0000d1f0       ?pbackfail@?$basic_stringbuf@DU?$char_traits@D@std@@V?$allocator@D@2@@std@@MAEHH@Z 1000e1f0 f i nodejieba.obj
 0001:0000d250       ?overflow@?$basic_stringbuf@DU?$char_traits@D@std@@V?$allocator@D@2@@std@@MAEHH@Z 1000e250 f i nodejieba.obj
 0001:0000d410       ??6?$basic_ostream@DU?$char_traits@D@std@@@std@@QAEAAV01@I@Z 1000e410 f i nodejieba.obj
 0001:0000d590       ??6?$basic_ostream@DU?$char_traits@D@std@@@std@@QAEAAV01@H@Z 1000e590 f i nodejieba.obj
 0001:0000d710       ??1?$basic_ostream@DU?$char_traits@D@std@@@std@@UAE@XZ 1000e710 f i nodejieba.obj
 0001:0000d730       ??1?$basic_istream@DU?$char_traits@D@std@@@std@@UAE@XZ 1000e730 f i nodejieba.obj
 0001:0000d750       ?imbue@?$basic_streambuf@DU?$char_traits@D@std@@@std@@MAEXABVlocale@2@@Z 1000e750 f i nodejieba.obj
 0001:0000d760       ?sync@?$basic_streambuf@DU?$char_traits@D@std@@@std@@MAEHXZ 1000e760 f i nodejieba.obj
 0001:0000d770       ?setbuf@?$basic_streambuf@DU?$char_traits@D@std@@@std@@MAEPAV12@PAD_J@Z 1000e770 f i nodejieba.obj
 0001:0000d780       ?seekpos@?$basic_streambuf@DU?$char_traits@D@std@@@std@@MAE?AV?$fpos@U_Mbstatet@@@2@V32@H@Z 1000e780 f i nodejieba.obj
 0001:0000d7b0       ?seekoff@?$basic_streambuf@DU?$char_traits@D@std@@@std@@MAE?AV?$fpos@U_Mbstatet@@@2@_JHH@Z 1000e7b0 f i nodejieba.obj
 0001:0000d7e0       ?xsputn@?$basic_streambuf@DU?$char_traits@D@std@@@std@@MAE_JPBD_J@Z 1000e7e0 f i nodejieba.obj
 0001:0000d8f0       ?xsgetn@?$basic_streambuf@DU?$char_traits@D@std@@@std@@MAE_JPAD_J@Z 1000e8f0 f i nodejieba.obj
 0001:0000da00       ?uflow@?$basic_streambuf@DU?$char_traits@D@std@@@std@@MAEHXZ 1000ea00 f i nodejieba.obj
 0001:0000da30       ?underflow@?$basic_streambuf@DU?$char_traits@D@std@@@std@@MAEHXZ 1000ea30 f i nodejieba.obj
 0001:0000da40       ?showmanyc@?$basic_streambuf@DU?$char_traits@D@std@@@std@@MAE_JXZ 1000ea40 f i nodejieba.obj
 0001:0000da50       ?overflow@?$basic_streambuf@DU?$char_traits@D@std@@@std@@MAEHH@Z 1000ea50 f i nodejieba.obj
 0001:0000da50       ?pbackfail@?$basic_streambuf@DU?$char_traits@D@std@@@std@@MAEHH@Z 1000ea50 f i nodejieba.obj
 0001:0000da60       ??1?$basic_streambuf@DU?$char_traits@D@std@@@std@@UAE@XZ 1000ea60 f i nodejieba.obj
 0001:0000daa0       ??1?$basic_ios@DU?$char_traits@D@std@@@std@@UAE@XZ 1000eaa0 f i nodejieba.obj
 0001:0000dab0       ??_G?$basic_ifstream@DU?$char_traits@D@std@@@std@@UAEPAXI@Z 1000eab0 f i nodejieba.obj
 0001:0000dab0       ??_E?$basic_ifstream@DU?$char_traits@D@std@@@std@@UAEPAXI@Z 1000eab0 f i * CIL library *:* CIL module *
 0001:0000db20       ??_G?$basic_filebuf@DU?$char_traits@D@std@@@std@@UAEPAXI@Z 1000eb20 f i nodejieba.obj
 0001:0000db20       ??_E?$basic_filebuf@DU?$char_traits@D@std@@@std@@UAEPAXI@Z 1000eb20 f i * CIL library *:* CIL module *
 0001:0000db40       ??_G?$basic_ostringstream@DU?$char_traits@D@std@@V?$allocator@D@2@@std@@UAEPAXI@Z 1000eb40 f i nodejieba.obj
 0001:0000db40       ??_E?$basic_ostringstream@DU?$char_traits@D@std@@V?$allocator@D@2@@std@@UAEPAXI@Z 1000eb40 f i * CIL library *:* CIL module *
 0001:0000db80       ??_G?$basic_stringbuf@DU?$char_traits@D@std@@V?$allocator@D@2@@std@@UAEPAXI@Z 1000eb80 f i nodejieba.obj
 0001:0000db80       ??_E?$basic_stringbuf@DU?$char_traits@D@std@@V?$allocator@D@2@@std@@UAEPAXI@Z 1000eb80 f i * CIL library *:* CIL module *
 0001:0000dbe0       ??_E?$basic_ostream@DU?$char_traits@D@std@@@std@@UAEPAXI@Z 1000ebe0 f i * CIL library *:* CIL module *
 0001:0000dbe0       ??_G?$basic_ostream@DU?$char_traits@D@std@@@std@@UAEPAXI@Z 1000ebe0 f i nodejieba.obj
 0001:0000dc30       ??_G?$basic_istream@DU?$char_traits@D@std@@@std@@UAEPAXI@Z 1000ec30 f i nodejieba.obj
 0001:0000dc30       ??_E?$basic_istream@DU?$char_traits@D@std@@@std@@UAEPAXI@Z 1000ec30 f i * CIL library *:* CIL module *
 0001:0000dc80       ??_E?$basic_streambuf@DU?$char_traits@D@std@@@std@@UAEPAXI@Z 1000ec80 f i * CIL library *:* CIL module *
 0001:0000dc80       ??_G?$basic_streambuf@DU?$char_traits@D@std@@@std@@UAEPAXI@Z 1000ec80 f i nodejieba.obj
 0001:0000dcd0       ??_G?$basic_ios@DU?$char_traits@D@std@@@std@@UAEPAXI@Z 1000ecd0 f i nodejieba.obj
 0001:0000dcd0       ??_E?$basic_ios@DU?$char_traits@D@std@@@std@@UAEPAXI@Z 1000ecd0 f i * CIL library *:* CIL module *
 0001:0000dd00       ??_D?$basic_ostream@DU?$char_traits@D@std@@@std@@QAEXXZ 1000ed00 f i nodejieba.obj
 0001:0000dd30       ??1?$list@V?$basic_string@DU?$char_traits@D@std@@V?$allocator@D@2@@std@@V?$allocator@V?$basic_string@DU?$char_traits@D@std@@V?$allocator@D@2@@std@@@2@@std@@QAE@XZ 1000ed30 f i nodejieba.obj
 0001:0000dd30       ??1?$list@U?$pair@$$CBV?$basic_string@DU?$char_traits@D@std@@V?$allocator@D@2@@std@@N@std@@V?$allocator@U?$pair@$$CBV?$basic_string@DU?$char_traits@D@std@@V?$allocator@D@2@@std@@N@std@@@2@@std@@QAE@XZ 1000ed30 f i nodejieba.obj
 0001:0000dd50       ?lower_bound@?$_Hash@V?$_Uset_traits@V?$basic_string@DU?$char_traits@D@std@@V?$allocator@D@2@@std@@V?$_Uhash_compare@V?$basic_string@DU?$char_traits@D@std@@V?$allocator@D@2@@std@@U?$hash@V?$basic_string@DU?$char_traits@D@std@@V?$allocator@D@2@@std@@@2@U?$equal_to@V?$basic_string@DU?$char_traits@D@std@@V?$allocator@D@2@@std@@@2@@2@V?$allocator@V?$basic_string@DU?$char_traits@D@std@@V?$allocator@D@2@@std@@@2@$0A@@std@@@std@@QBE?AV?$_List_const_iterator@V?$_List_val@U?$_List_simple_types@V?$basic_string@DU?$char_traits@D@std@@V?$allocator@D@2@@std@@@std@@@std@@@2@ABV?$basic_string@DU?$char_traits@D@std@@V?$allocator@D@2@@2@@Z 1000ed50 f i nodejieba.obj
 0001:0000dd50       ?lower_bound@?$_Hash@V?$_Umap_traits@V?$basic_string@DU?$char_traits@D@std@@V?$allocator@D@2@@std@@NV?$_Uhash_compare@V?$basic_string@DU?$char_traits@D@std@@V?$allocator@D@2@@std@@U?$hash@V?$basic_string@DU?$char_traits@D@std@@V?$allocator@D@2@@std@@@2@U?$equal_to@V?$basic_string@DU?$char_traits@D@std@@V?$allocator@D@2@@std@@@2@@2@V?$allocator@U?$pair@$$CBV?$basic_string@DU?$char_traits@D@std@@V?$allocator@D@2@@std@@N@std@@@2@$0A@@std@@@std@@QBE?AV?$_List_const_iterator@V?$_List_val@U?$_List_simple_types@U?$pair@$$CBV?$basic_string@DU?$char_traits@D@std@@V?$allocator@D@2@@std@@N@std@@@std@@@std@@@2@ABV?$basic_string@DU?$char_traits@D@std@@V?$allocator@D@2@@2@@Z 1000ed50 f i nodejieba.obj
 0001:0000dd50       ?lower_bound@?$_Hash@V?$_Umap_traits@V?$basic_string@DU?$char_traits@D@std@@V?$allocator@D@2@@std@@NV?$_Uhash_compare@V?$basic_string@DU?$char_traits@D@std@@V?$allocator@D@2@@std@@U?$hash@V?$basic_string@DU?$char_traits@D@std@@V?$allocator@D@2@@std@@@2@U?$equal_to@V?$basic_string@DU?$char_traits@D@std@@V?$allocator@D@2@@std@@@2@@2@V?$allocator@U?$pair@$$CBV?$basic_string@DU?$char_traits@D@std@@V?$allocator@D@2@@std@@N@std@@@2@$0A@@std@@@std@@QAE?AV?$_List_iterator@V?$_List_val@U?$_List_simple_types@U?$pair@$$CBV?$basic_string@DU?$char_traits@D@std@@V?$allocator@D@2@@std@@N@std@@@std@@@std@@@2@ABV?$basic_string@DU?$char_traits@D@std@@V?$allocator@D@2@@2@@Z 1000ed50 f i nodejieba.obj
 0001:0000df10       ??0?$_Hash@V?$_Uset_traits@V?$basic_string@DU?$char_traits@D@std@@V?$allocator@D@2@@std@@V?$_Uhash_compare@V?$basic_string@DU?$char_traits@D@std@@V?$allocator@D@2@@std@@U?$hash@V?$basic_string@DU?$char_traits@D@std@@V?$allocator@D@2@@std@@@2@U?$equal_to@V?$basic_string@DU?$char_traits@D@std@@V?$allocator@D@2@@std@@@2@@2@V?$allocator@V?$basic_string@DU?$char_traits@D@std@@V?$allocator@D@2@@std@@@2@$0A@@std@@@std@@QAE@ABV?$_Uhash_compare@V?$basic_string@DU?$char_traits@D@std@@V?$allocator@D@2@@std@@U?$hash@V?$basic_string@DU?$char_traits@D@std@@V?$allocator@D@2@@std@@@2@U?$equal_to@V?$basic_string@DU?$char_traits@D@std@@V?$allocator@D@2@@std@@@2@@1@ABV?$allocator@V?$basic_string@DU?$char_traits@D@std@@V?$allocator@D@2@@std@@@1@@Z 1000ef10 f i nodejieba.obj
 0001:0000dfc0       ??0?$_Hash@V?$_Umap_traits@V?$basic_string@DU?$char_traits@D@std@@V?$allocator@D@2@@std@@NV?$_Uhash_compare@V?$basic_string@DU?$char_traits@D@std@@V?$allocator@D@2@@std@@U?$hash@V?$basic_string@DU?$char_traits@D@std@@V?$allocator@D@2@@std@@@2@U?$equal_to@V?$basic_string@DU?$char_traits@D@std@@V?$allocator@D@2@@std@@@2@@2@V?$allocator@U?$pair@$$CBV?$basic_string@DU?$char_traits@D@std@@V?$allocator@D@2@@std@@N@std@@@2@$0A@@std@@@std@@QAE@ABV?$_Uhash_compare@V?$basic_string@DU?$char_traits@D@std@@V?$allocator@D@2@@std@@U?$hash@V?$basic_string@DU?$char_traits@D@std@@V?$allocator@D@2@@std@@@2@U?$equal_to@V?$basic_string@DU?$char_traits@D@std@@V?$allocator@D@2@@std@@@2@@1@ABV?$allocator@U?$pair@$$CBV?$basic_string@DU?$char_traits@D@std@@V?$allocator@D@2@@std@@N@std@@@1@@Z 1000efc0 f i nodejieba.obj
 0001:0000e070       ?_Reserve@?$vector@UWord@KeywordExtractor@cppjieba@@V?$allocator@UWord@KeywordExtractor@cppjieba@@@std@@@std@@IAEXI@Z 1000f070 f i nodejieba.obj
 0001:0000e100       ?_Reallocate@?$vector@UWord@KeywordExtractor@cppjieba@@V?$allocator@UWord@KeywordExtractor@cppjieba@@@std@@@std@@IAEXI@Z 1000f100 f i nodejieba.obj
 0001:0000e200       ?_Reserve@?$vector@IV?$allocator@I@std@@@std@@IAEXI@Z 1000f200 f i nodejieba.obj
 0001:0000e260       ?_Reserve@?$vector@PAV?$unordered_map@INU?$hash@I@std@@U?$equal_to@I@2@V?$allocator@U?$pair@$$CBIN@std@@@2@@std@@V?$allocator@PAV?$unordered_map@INU?$hash@I@std@@U?$equal_to@I@2@V?$allocator@U?$pair@$$CBIN@std@@@2@@std@@@2@@std@@IAEXI@Z 1000f260 f i nodejieba.obj
 0001:0000e2c0       ??1?$list@U?$pair@$$CBIN@std@@V?$allocator@U?$pair@$$CBIN@std@@@2@@std@@QAE@XZ 1000f2c0 f i nodejieba.obj
 0001:0000e2c0       ??1?$list@U?$pair@$$CBIPAVTrieNode@cppjieba@@@std@@V?$allocator@U?$pair@$$CBIPAVTrieNode@cppjieba@@@std@@@2@@std@@QAE@XZ 1000f2c0 f i nodejieba.obj
 0001:0000e2c0       ??1?$list@IV?$allocator@I@std@@@std@@QAE@XZ 1000f2c0 f i nodejieba.obj
 0001:0000e300       ?lower_bound@?$_Hash@V?$_Umap_traits@INV?$_Uhash_compare@IU?$hash@I@std@@U?$equal_to@I@2@@std@@V?$allocator@U?$pair@$$CBIN@std@@@2@$0A@@std@@@std@@QAE?AV?$_List_iterator@V?$_List_val@U?$_List_simple_types@U?$pair@$$CBIN@std@@@std@@@std@@@2@ABI@Z 1000f300 f i nodejieba.obj
 0001:0000e300       ?lower_bound@?$_Hash@V?$_Uset_traits@IV?$_Uhash_compare@IU?$hash@I@std@@U?$equal_to@I@2@@std@@V?$allocator@I@2@$0A@@std@@@std@@QBE?AV?$_List_const_iterator@V?$_List_val@U?$_List_simple_types@I@std@@@std@@@2@ABI@Z 1000f300 f i nodejieba.obj
 0001:0000e300       ?lower_bound@?$_Hash@V?$_Umap_traits@INV?$_Uhash_compare@IU?$hash@I@std@@U?$equal_to@I@2@@std@@V?$allocator@U?$pair@$$CBIN@std@@@2@$0A@@std@@@std@@QBE?AV?$_List_const_iterator@V?$_List_val@U?$_List_simple_types@U?$pair@$$CBIN@std@@@std@@@std@@@2@ABI@Z 1000f300 f i nodejieba.obj
 0001:0000e300       ?lower_bound@?$_Hash@V?$_Umap_traits@IPAVTrieNode@cppjieba@@V?$_Uhash_compare@IU?$hash@I@std@@U?$equal_to@I@2@@std@@V?$allocator@U?$pair@$$CBIPAVTrieNode@cppjieba@@@std@@@4@$0A@@std@@@std@@QAE?AV?$_List_iterator@V?$_List_val@U?$_List_simple_types@U?$pair@$$CBIPAVTrieNode@cppjieba@@@std@@@std@@@std@@@2@ABI@Z 1000f300 f i nodejieba.obj
 0001:0000e390       ??0?$_Hash@V?$_Umap_traits@INV?$_Uhash_compare@IU?$hash@I@std@@U?$equal_to@I@2@@std@@V?$allocator@U?$pair@$$CBIN@std@@@2@$0A@@std@@@std@@QAE@ABV?$_Uhash_compare@IU?$hash@I@std@@U?$equal_to@I@2@@1@ABV?$allocator@U?$pair@$$CBIN@std@@@1@@Z 1000f390 f i nodejieba.obj
 0001:0000e440       ?do_length@?$codecvt@DDU_Mbstatet@@@std@@MBEHAAU_Mbstatet@@PBD1I@Z 1000f440 f i nodejieba.obj
 0001:0000e460       ?do_unshift@?$codecvt@DDU_Mbstatet@@@std@@MBEHAAU_Mbstatet@@PAD1AAPAD@Z 1000f460 f i nodejieba.obj
 0001:0000e470       ?do_out@?$codecvt@DDU_Mbstatet@@@std@@MBEHAAU_Mbstatet@@PBD1AAPBDPAD3AAPAD@Z 1000f470 f i nodejieba.obj
 0001:0000e470       ?do_in@?$codecvt@DDU_Mbstatet@@@std@@MBEHAAU_Mbstatet@@PBD1AAPBDPAD3AAPAD@Z 1000f470 f i nodejieba.obj
 0001:0000e490       ?do_always_noconv@?$codecvt@DDU_Mbstatet@@@std@@MBE_NXZ 1000f490 f i nodejieba.obj
 0001:0000e490       ___acrt_uninitialize_command_line 1000f490 f i libucrt:argv_data.obj
 0001:0000e4a0       ?_Init@?$_Hash@V?$_Uset_traits@IV?$_Uhash_compare@IU?$hash@I@std@@U?$equal_to@I@2@@std@@V?$allocator@I@2@$0A@@std@@@std@@IAEXI@Z 1000f4a0 f i nodejieba.obj
 0001:0000e4a0       ?_Init@?$_Hash@V?$_Umap_traits@V?$basic_string@DU?$char_traits@D@std@@V?$allocator@D@2@@std@@NV?$_Uhash_compare@V?$basic_string@DU?$char_traits@D@std@@V?$allocator@D@2@@std@@U?$hash@V?$basic_string@DU?$char_traits@D@std@@V?$allocator@D@2@@std@@@2@U?$equal_to@V?$basic_string@DU?$char_traits@D@std@@V?$allocator@D@2@@std@@@2@@2@V?$allocator@U?$pair@$$CBV?$basic_string@DU?$char_traits@D@std@@V?$allocator@D@2@@std@@N@std@@@2@$0A@@std@@@std@@IAEXI@Z 1000f4a0 f i nodejieba.obj
 0001:0000e4a0       ?_Init@?$_Hash@V?$_Umap_traits@INV?$_Uhash_compare@IU?$hash@I@std@@U?$equal_to@I@2@@std@@V?$allocator@U?$pair@$$CBIN@std@@@2@$0A@@std@@@std@@IAEXI@Z 1000f4a0 f i nodejieba.obj
 0001:0000e4a0       ?_Init@?$_Hash@V?$_Umap_traits@IPAVTrieNode@cppjieba@@V?$_Uhash_compare@IU?$hash@I@std@@U?$equal_to@I@2@@std@@V?$allocator@U?$pair@$$CBIPAVTrieNode@cppjieba@@@std@@@4@$0A@@std@@@std@@IAEXI@Z 1000f4a0 f i nodejieba.obj
 0001:0000e4a0       ?_Init@?$_Hash@V?$_Uset_traits@V?$basic_string@DU?$char_traits@D@std@@V?$allocator@D@2@@std@@V?$_Uhash_compare@V?$basic_string@DU?$char_traits@D@std@@V?$allocator@D@2@@std@@U?$hash@V?$basic_string@DU?$char_traits@D@std@@V?$allocator@D@2@@std@@@2@U?$equal_to@V?$basic_string@DU?$char_traits@D@std@@V?$allocator@D@2@@std@@@2@@2@V?$allocator@V?$basic_string@DU?$char_traits@D@std@@V?$allocator@D@2@@std@@@2@$0A@@std@@@std@@IAEXI@Z 1000f4a0 f i nodejieba.obj
 0001:0000e510       ??0?$_Hash@V?$_Uset_traits@IV?$_Uhash_compare@IU?$hash@I@std@@U?$equal_to@I@2@@std@@V?$allocator@I@2@$0A@@std@@@std@@QAE@ABV?$_Uhash_compare@IU?$hash@I@std@@U?$equal_to@I@2@@1@ABV?$allocator@I@1@@Z 1000f510 f i nodejieba.obj
 0001:0000e5c0       ??G?$_Deque_iterator@V?$_Deque_val@U?$_Deque_simple_types@UDictUnit@cppjieba@@@std@@@std@@@std@@QBE?AV01@H@Z 1000f5c0 f i nodejieba.obj
 0001:0000e600       ?_Tidy@?$deque@UDictUnit@cppjieba@@V?$allocator@UDictUnit@cppjieba@@@std@@@std@@IAEXXZ 1000f600 f i nodejieba.obj
 0001:0000e740       ?_Growmap@?$deque@UDictUnit@cppjieba@@V?$allocator@UDictUnit@cppjieba@@@std@@@std@@IAEXI@Z 1000f740 f i nodejieba.obj
 0001:0000e870       ?end@?$deque@UDictUnit@cppjieba@@V?$allocator@UDictUnit@cppjieba@@@std@@@std@@QAE?AV?$_Deque_iterator@V?$_Deque_val@U?$_Deque_simple_types@UDictUnit@cppjieba@@@std@@@std@@@2@XZ 1000f870 f i nodejieba.obj
 0001:0000e890       ?allocate@?$_Wrap_alloc@V?$allocator@UDictUnit@cppjieba@@@std@@@std@@QAEPAUDictUnit@cppjieba@@I@Z 1000f890 f i nodejieba.obj
 0001:0000e8f0       ?_Reserve@?$vector@UDictUnit@cppjieba@@V?$allocator@UDictUnit@cppjieba@@@std@@@std@@IAEXI@Z 1000f8f0 f i nodejieba.obj
 0001:0000e990       ?_Reserve@?$vector@UDag@cppjieba@@V?$allocator@UDag@cppjieba@@@std@@@std@@IAEXI@Z 1000f990 f i nodejieba.obj
 0001:0000ea20       ?_Pop_back_n@?$vector@UDag@cppjieba@@V?$allocator@UDag@cppjieba@@@std@@@std@@QAEXI@Z 1000fa20 f i nodejieba.obj
 0001:0000ea70       ?_Tidy@?$vector@V?$LocalVector@I@limonp@@V?$allocator@V?$LocalVector@I@limonp@@@std@@@std@@IAEXXZ 1000fa70 f i nodejieba.obj
 0001:0000ead0       ?_Reserve@?$vector@V?$LocalVector@I@limonp@@V?$allocator@V?$LocalVector@I@limonp@@@std@@@std@@IAEXI@Z 1000fad0 f i nodejieba.obj
 0001:0000eb60       ?reserve@?$LocalVector@U?$pair@IPBUDictUnit@cppjieba@@@std@@@limonp@@QAEXI@Z 1000fb60 f i nodejieba.obj
 0001:0000ebe0       ?_Reserve@?$vector@UWord@cppjieba@@V?$allocator@UWord@cppjieba@@@std@@@std@@IAEXI@Z 1000fbe0 f i nodejieba.obj
 0001:0000ec80       ?_Reallocate@?$vector@UWord@cppjieba@@V?$allocator@UWord@cppjieba@@@std@@@std@@IAEXI@Z 1000fc80 f i nodejieba.obj
 0001:0000ed40       ?_Reserve@?$vector@UWordRange@cppjieba@@V?$allocator@UWordRange@cppjieba@@@std@@@std@@IAEXI@Z 1000fd40 f i nodejieba.obj
 0001:0000eda0       ?_Reallocate@?$vector@UWordRange@cppjieba@@V?$allocator@UWordRange@cppjieba@@@std@@@std@@IAEXI@Z 1000fda0 f i nodejieba.obj
 0001:0000ee60       ??4?$LocalVector@I@limonp@@QAEAAV01@ABV01@@Z 1000fe60 f i nodejieba.obj
 0001:0000ef00       ??1sentry@?$basic_ostream@DU?$char_traits@D@std@@@std@@QAE@XZ 1000ff00 f i nodejieba.obj
 0001:0000ef60       ??0sentry@?$basic_ostream@DU?$char_traits@D@std@@@std@@QAE@AAV12@@Z 1000ff60 f i nodejieba.obj
 0001:0000eff0       ?do_put@?$num_put@DV?$ostreambuf_iterator@DU?$char_traits@D@std@@@std@@@std@@MBE?AV?$ostreambuf_iterator@DU?$char_traits@D@std@@@2@V32@AAVios_base@2@DPBX@Z 1000fff0 f i nodejieba.obj
 0001:0000f060       ?do_put@?$num_put@DV?$ostreambuf_iterator@DU?$char_traits@D@std@@@std@@@std@@MBE?AV?$ostreambuf_iterator@DU?$char_traits@D@std@@@2@V32@AAVios_base@2@DO@Z 10010060 f i nodejieba.obj
 0001:0000f200       ?do_put@?$num_put@DV?$ostreambuf_iterator@DU?$char_traits@D@std@@@std@@@std@@MBE?AV?$ostreambuf_iterator@DU?$char_traits@D@std@@@2@V32@AAVios_base@2@DN@Z 10010200 f i nodejieba.obj
 0001:0000f3a0       ?do_put@?$num_put@DV?$ostreambuf_iterator@DU?$char_traits@D@std@@@std@@@std@@MBE?AV?$ostreambuf_iterator@DU?$char_traits@D@std@@@2@V32@AAVios_base@2@D_K@Z 100103a0 f i nodejieba.obj
 0001:0000f420       ?do_put@?$num_put@DV?$ostreambuf_iterator@DU?$char_traits@D@std@@@std@@@std@@MBE?AV?$ostreambuf_iterator@DU?$char_traits@D@std@@@2@V32@AAVios_base@2@D_J@Z 10010420 f i nodejieba.obj
 0001:0000f4a0       ?do_put@?$num_put@DV?$ostreambuf_iterator@DU?$char_traits@D@std@@@std@@@std@@MBE?AV?$ostreambuf_iterator@DU?$char_traits@D@std@@@2@V32@AAVios_base@2@DK@Z 100104a0 f i nodejieba.obj
 0001:0000f520       ?do_put@?$num_put@DV?$ostreambuf_iterator@DU?$char_traits@D@std@@@std@@@std@@MBE?AV?$ostreambuf_iterator@DU?$char_traits@D@std@@@2@V32@AAVios_base@2@DJ@Z 10010520 f i nodejieba.obj
 0001:0000f5a0       ?do_put@?$num_put@DV?$ostreambuf_iterator@DU?$char_traits@D@std@@@std@@@std@@MBE?AV?$ostreambuf_iterator@DU?$char_traits@D@std@@@2@V32@AAVios_base@2@D_N@Z 100105a0 f i nodejieba.obj
 0001:0000f770       ?put@?$num_put@DV?$ostreambuf_iterator@DU?$char_traits@D@std@@@std@@@std@@QBE?AV?$ostreambuf_iterator@DU?$char_traits@D@std@@@2@V32@AAVios_base@2@DJ@Z 10010770 f i nodejieba.obj
 0001:0000f7a0       ?_Reserve@?$vector@U?$pair@V?$basic_string@DU?$char_traits@D@std@@V?$allocator@D@2@@std@@V12@@std@@V?$allocator@U?$pair@V?$basic_string@DU?$char_traits@D@std@@V?$allocator@D@2@@std@@V12@@std@@@2@@std@@IAEXI@Z 100107a0 f i nodejieba.obj
 0001:0000f830       ?_Reserve@?$vector@V?$basic_string@DU?$char_traits@D@std@@V?$allocator@D@2@@std@@V?$allocator@V?$basic_string@DU?$char_traits@D@std@@V?$allocator@D@2@@std@@@2@@std@@IAEXI@Z 10010830 f i nodejieba.obj
 0001:0000f8c0       ?_Traits_compare@?$basic_string@DU?$char_traits@D@std@@V?$allocator@D@2@@std@@SAHQBDI0I@Z 100108c0 f i nodejieba.obj
 0001:0000f950       ?find_first_of@?$basic_string@DU?$char_traits@D@std@@V?$allocator@D@2@@std@@QBEIPBDII@Z 10010950 f i nodejieba.obj
 0001:0000f9d0       ?erase@?$basic_string@DU?$char_traits@D@std@@V?$allocator@D@2@@std@@QAEAAV12@II@Z 100109d0 f i nodejieba.obj
 0001:0000fa70       ?assign@?$basic_string@DU?$char_traits@D@std@@V?$allocator@D@2@@std@@QAEAAV12@ID@Z 10010a70 f i nodejieba.obj
 0001:0000fb40       ?assign@?$basic_string@DU?$char_traits@D@std@@V?$allocator@D@2@@std@@QAEAAV12@PBDI@Z 10010b40 f i nodejieba.obj
 0001:0000fc40       ?assign@?$basic_string@DU?$char_traits@D@std@@V?$allocator@D@2@@std@@QAEAAV12@ABV12@II@Z 10010c40 f i nodejieba.obj
 0001:0000fd50       ?append@?$basic_string@DU?$char_traits@D@std@@V?$allocator@D@2@@std@@QAEAAV12@ID@Z 10010d50 f i nodejieba.obj
 0001:0000fdf0       ?append@?$basic_string@DU?$char_traits@D@std@@V?$allocator@D@2@@std@@QAEAAV12@PBDI@Z 10010df0 f i nodejieba.obj
 0001:0000ff20       ?append@?$basic_string@DU?$char_traits@D@std@@V?$allocator@D@2@@std@@QAEAAV12@ABV12@II@Z 10010f20 f i nodejieba.obj
 0001:00010020       ?_Assign_rv@?$basic_string@DU?$char_traits@D@std@@V?$allocator@D@2@@std@@QAEX$$QAV12@@Z 10011020 f i nodejieba.obj
 0001:00010090       ?_Set_back@?$basic_filebuf@DU?$char_traits@D@std@@@std@@AAEXXZ 10011090 f i nodejieba.obj
 0001:000100d0       ?_Reset_back@?$basic_filebuf@DU?$char_traits@D@std@@@std@@AAEXXZ 100110d0 f i nodejieba.obj
 0001:00010100       ?_Initcvt@?$basic_filebuf@DU?$char_traits@D@std@@@std@@IAEXPBV?$codecvt@DDU_Mbstatet@@@2@@Z 10011100 f i nodejieba.obj
 0001:00010180       ?_Endwrite@?$basic_filebuf@DU?$char_traits@D@std@@@std@@IAE_NXZ 10011180 f i nodejieba.obj
 0001:000102f0       ?_Init@?$basic_filebuf@DU?$char_traits@D@std@@@std@@IAEXPAU_iobuf@@W4_Initfl@12@@Z 100112f0 f i nodejieba.obj
 0001:000103e0       ?close@?$basic_filebuf@DU?$char_traits@D@std@@@std@@QAEPAV12@XZ 100113e0 f i nodejieba.obj
 0001:000104a0       ?open@?$basic_filebuf@DU?$char_traits@D@std@@@std@@QAEPAV12@PBDHH@Z 100114a0 f i nodejieba.obj
 0001:00010560       ?_Tidy@?$basic_stringbuf@DU?$char_traits@D@std@@V?$allocator@D@2@@std@@IAEXXZ 10011560 f i nodejieba.obj
 0001:00010610       ?str@?$basic_stringbuf@DU?$char_traits@D@std@@V?$allocator@D@2@@std@@QBE?AV?$basic_string@DU?$char_traits@D@std@@V?$allocator@D@2@@2@XZ 10011610 f i nodejieba.obj
 0001:00010720       ?allocate@?$allocator@D@std@@QAEPADI@Z 10011720 f i nodejieba.obj
 0001:00010770       ?deallocate@?$_Wrap_alloc@V?$allocator@D@std@@@std@@QAEXPADI@Z 10011770 f i nodejieba.obj
 0001:00010770       ?deallocate@?$allocator@D@std@@QAEXPADI@Z 10011770 f i nodejieba.obj
 0001:000107c0       ??0?$basic_ostream@DU?$char_traits@D@std@@@std@@QAE@PAV?$basic_streambuf@DU?$char_traits@D@std@@@1@_N@Z 100117c0 f i nodejieba.obj
 0001:00010890       ??0?$basic_istream@DU?$char_traits@D@std@@@std@@QAE@PAV?$basic_streambuf@DU?$char_traits@D@std@@@1@_N@Z 10011890 f i nodejieba.obj
 0001:00010940       ?_Pnavail@?$basic_streambuf@DU?$char_traits@D@std@@@std@@IBE_JXZ 10011940 f i nodejieba.obj
 0001:00010960       ?_Gnavail@?$basic_streambuf@DU?$char_traits@D@std@@@std@@IBE_JXZ 10011960 f i nodejieba.obj
 0001:00010980       ??0?$fpos@U_Mbstatet@@@std@@QAE@U_Mbstatet@@_J@Z 10011980 f i nodejieba.obj
 0001:000109b0       ??_G?$num_put@DV?$ostreambuf_iterator@DU?$char_traits@D@std@@@std@@@std@@MAEPAXI@Z 100119b0 f i nodejieba.obj
 0001:000109b0       ??_G?$codecvt@DDU_Mbstatet@@@std@@MAEPAXI@Z 100119b0 f i nodejieba.obj
 0001:000109b0       ??_E?$codecvt@DDU_Mbstatet@@@std@@MAEPAXI@Z 100119b0 f i * CIL library *:* CIL module *
 0001:000109b0       ??_E?$num_put@DV?$ostreambuf_iterator@DU?$char_traits@D@std@@@std@@@std@@MAEPAXI@Z 100119b0 f i * CIL library *:* CIL module *
 0001:000109e0       ?do_truename@?$numpunct@D@std@@MBE?AV?$basic_string@DU?$char_traits@D@std@@V?$allocator@D@2@@2@XZ 100119e0 f i nodejieba.obj
 0001:00010a40       ?do_falsename@?$numpunct@D@std@@MBE?AV?$basic_string@DU?$char_traits@D@std@@V?$allocator@D@2@@2@XZ 10011a40 f i nodejieba.obj
 0001:00010aa0       ?do_grouping@?$numpunct@D@std@@MBE?AV?$basic_string@DU?$char_traits@D@std@@V?$allocator@D@2@@2@XZ 10011aa0 f i nodejieba.obj
 0001:00010b00       ?do_thousands_sep@?$numpunct@D@std@@MBEDXZ 10011b00 f i nodejieba.obj
 0001:00010b10       ?do_decimal_point@?$numpunct@D@std@@MBEDXZ 10011b10 f i nodejieba.obj
 0001:00010b20       ?truename@?$numpunct@D@std@@QBE?AV?$basic_string@DU?$char_traits@D@std@@V?$allocator@D@2@@2@XZ 10011b20 f i nodejieba.obj
 0001:00010b40       ?falsename@?$numpunct@D@std@@QBE?AV?$basic_string@DU?$char_traits@D@std@@V?$allocator@D@2@@2@XZ 10011b40 f i nodejieba.obj
 0001:00010b60       ??E?$_Tree_unchecked_const_iterator@V?$_Tree_val@U?$_Tree_simple_types@U?$pair@$$CBV?$basic_string@DU?$char_traits@D@std@@V?$allocator@D@2@@std@@UWord@KeywordExtractor@cppjieba@@@std@@@std@@@std@@U_Iterator_base0@2@@std@@QAEAAV01@XZ 10011b60 f i nodejieba.obj
 0001:00010bb0       ?erase@?$_Tree@V?$_Tmap_traits@V?$basic_string@DU?$char_traits@D@std@@V?$allocator@D@2@@std@@UWord@KeywordExtractor@cppjieba@@U?$less@V?$basic_string@DU?$char_traits@D@std@@V?$allocator@D@2@@std@@@2@V?$allocator@U?$pair@$$CBV?$basic_string@DU?$char_traits@D@std@@V?$allocator@D@2@@std@@UWord@KeywordExtractor@cppjieba@@@std@@@2@$0A@@std@@@std@@QAE?AV?$_Tree_iterator@V?$_Tree_val@U?$_Tree_simple_types@U?$pair@$$CBV?$basic_string@DU?$char_traits@D@std@@V?$allocator@D@2@@std@@UWord@KeywordExtractor@cppjieba@@@std@@@std@@@std@@@2@V?$_Tree_const_iterator@V?$_Tree_val@U?$_Tree_simple_types@U?$pair@$$CBV?$basic_string@DU?$char_traits@D@std@@V?$allocator@D@2@@std@@UWord@KeywordExtractor@cppjieba@@@std@@@std@@@std@@@2@0@Z 10011bb0 f i nodejieba.obj
 0001:00010c70       ?deallocate@?$_Wrap_alloc@V?$allocator@UWord@KeywordExtractor@cppjieba@@@std@@@std@@QAEXPAUWord@KeywordExtractor@cppjieba@@I@Z 10011c70 f i nodejieba.obj
 0001:00010c70       ?deallocate@?$_Wrap_alloc@V?$allocator@U?$pair@V?$basic_string@DU?$char_traits@D@std@@V?$allocator@D@2@@std@@V12@@std@@@std@@@std@@QAEXPAU?$pair@V?$basic_string@DU?$char_traits@D@std@@V?$allocator@D@2@@std@@V12@@2@I@Z 10011c70 f i nodejieba.obj
 0001:00010cd0       ?deallocate@?$_Wrap_alloc@V?$allocator@N@std@@@std@@QAEXPANI@Z 10011cd0 f i nodejieba.obj
 0001:00010cd0       ?deallocate@?$_Wrap_alloc@V?$allocator@UWordRange@cppjieba@@@std@@@std@@QAEXPAUWordRange@cppjieba@@I@Z 10011cd0 f i nodejieba.obj
 0001:00010d30       ?allocate@?$_Wrap_alloc@V?$allocator@N@std@@@std@@QAEPANI@Z 10011d30 f i nodejieba.obj
 0001:00010d90       ?deallocate@?$_Wrap_alloc@U?$_Wrap_alloc@V?$allocator@V?$_List_unchecked_iterator@V?$_List_val@U?$_List_simple_types@U?$pair@$$CBIPAVTrieNode@cppjieba@@@std@@@std@@@std@@@std@@@std@@@std@@@std@@QAEXPAV?$_List_unchecked_iterator@V?$_List_val@U?$_List_simple_types@U?$pair@$$CBIPAVTrieNode@cppjieba@@@std@@@std@@@std@@@2@I@Z 10011d90 f i nodejieba.obj
 0001:00010d90       ?deallocate@?$_Wrap_alloc@V?$allocator@PAV?$unordered_map@INU?$hash@I@std@@U?$equal_to@I@2@V?$allocator@U?$pair@$$CBIN@std@@@2@@std@@@std@@@std@@QAEXPAPAV?$unordered_map@INU?$hash@I@std@@U?$equal_to@I@2@V?$allocator@U?$pair@$$CBIN@std@@@2@@2@I@Z 10011d90 f i nodejieba.obj
 0001:00010d90       ?deallocate@?$_Wrap_alloc@U?$_Wrap_alloc@V?$allocator@V?$_List_unchecked_iterator@V?$_List_val@U?$_List_simple_types@U?$pair@$$CBIN@std@@@std@@@std@@@std@@@std@@@std@@@std@@QAEXPAV?$_List_unchecked_iterator@V?$_List_val@U?$_List_simple_types@U?$pair@$$CBIN@std@@@std@@@std@@@2@I@Z 10011d90 f i nodejieba.obj
 0001:00010d90       ?deallocate@?$_Wrap_alloc@V?$allocator@PAUDictUnit@cppjieba@@@std@@@std@@QAEXPAPAUDictUnit@cppjieba@@I@Z 10011d90 f i nodejieba.obj
 0001:00010d90       ?deallocate@?$_Wrap_alloc@V?$allocator@I@std@@@std@@QAEXPAII@Z 10011d90 f i nodejieba.obj
 0001:00010d90       ?deallocate@?$_Wrap_alloc@U?$_Wrap_alloc@V?$allocator@V?$_List_unchecked_iterator@V?$_List_val@U?$_List_simple_types@U?$pair@$$CBV?$basic_string@DU?$char_traits@D@std@@V?$allocator@D@2@@std@@N@std@@@std@@@std@@@std@@@std@@@std@@@std@@QAEXPAV?$_List_unchecked_iterator@V?$_List_val@U?$_List_simple_types@U?$pair@$$CBV?$basic_string@DU?$char_traits@D@std@@V?$allocator@D@2@@std@@N@std@@@std@@@std@@@2@I@Z 10011d90 f i nodejieba.obj
 0001:00010d90       ?deallocate@?$_Wrap_alloc@U?$_Wrap_alloc@V?$allocator@V?$_List_unchecked_const_iterator@V?$_List_val@U?$_List_simple_types@I@std@@@std@@U_Iterator_base0@2@@std@@@std@@@std@@@std@@QAEXPAV?$_List_unchecked_const_iterator@V?$_List_val@U?$_List_simple_types@I@std@@@std@@U_Iterator_base0@2@@2@I@Z 10011d90 f i nodejieba.obj
 0001:00010d90       ?deallocate@?$_Wrap_alloc@U?$_Wrap_alloc@V?$allocator@V?$_List_unchecked_const_iterator@V?$_List_val@U?$_List_simple_types@V?$basic_string@DU?$char_traits@D@std@@V?$allocator@D@2@@std@@@std@@@std@@U_Iterator_base0@2@@std@@@std@@@std@@@std@@QAEXPAV?$_List_unchecked_const_iterator@V?$_List_val@U?$_List_simple_types@V?$basic_string@DU?$char_traits@D@std@@V?$allocator@D@2@@std@@@std@@@std@@U_Iterator_base0@2@@2@I@Z 10011d90 f i nodejieba.obj
 0001:00010d90       ?deallocate@?$_Wrap_alloc@V?$allocator@PBUDictUnit@cppjieba@@@std@@@std@@QAEXPAPBUDictUnit@cppjieba@@I@Z 10011d90 f i nodejieba.obj
 0001:00010d90       ?deallocate@?$_Wrap_alloc@V?$allocator@H@std@@@std@@QAEXPAHI@Z 10011d90 f i nodejieba.obj
 0001:00010df0       ?allocate@?$_Wrap_alloc@U?$_Wrap_alloc@V?$allocator@V?$_List_unchecked_const_iterator@V?$_List_val@U?$_List_simple_types@I@std@@@std@@U_Iterator_base0@2@@std@@@std@@@std@@@std@@QAEPAV?$_List_unchecked_const_iterator@V?$_List_val@U?$_List_simple_types@I@std@@@std@@U_Iterator_base0@2@@2@I@Z 10011df0 f i nodejieba.obj
 0001:00010df0       ?allocate@?$_Wrap_alloc@U?$_Wrap_alloc@V?$allocator@V?$_List_unchecked_const_iterator@V?$_List_val@U?$_List_simple_types@V?$basic_string@DU?$char_traits@D@std@@V?$allocator@D@2@@std@@@std@@@std@@U_Iterator_base0@2@@std@@@std@@@std@@@std@@QAEPAV?$_List_unchecked_const_iterator@V?$_List_val@U?$_List_simple_types@V?$basic_string@DU?$char_traits@D@std@@V?$allocator@D@2@@std@@@std@@@std@@U_Iterator_base0@2@@2@I@Z 10011df0 f i nodejieba.obj
 0001:00010df0       ?allocate@?$_Wrap_alloc@U?$_Wrap_alloc@V?$allocator@V?$_List_unchecked_iterator@V?$_List_val@U?$_List_simple_types@U?$pair@$$CBIN@std@@@std@@@std@@@std@@@std@@@std@@@std@@QAEPAV?$_List_unchecked_iterator@V?$_List_val@U?$_List_simple_types@U?$pair@$$CBIN@std@@@std@@@std@@@2@I@Z 10011df0 f i nodejieba.obj
 0001:00010df0       ?allocate@?$_Wrap_alloc@V?$allocator@I@std@@@std@@QAEPAII@Z 10011df0 f i nodejieba.obj
 0001:00010df0       ?allocate@?$_Wrap_alloc@U?$_Wrap_alloc@V?$allocator@V?$_List_unchecked_iterator@V?$_List_val@U?$_List_simple_types@U?$pair@$$CBV?$basic_string@DU?$char_traits@D@std@@V?$allocator@D@2@@std@@N@std@@@std@@@std@@@std@@@std@@@std@@@std@@QAEPAV?$_List_unchecked_iterator@V?$_List_val@U?$_List_simple_types@U?$pair@$$CBV?$basic_string@DU?$char_traits@D@std@@V?$allocator@D@2@@std@@N@std@@@std@@@std@@@2@I@Z 10011df0 f i nodejieba.obj
 0001:00010df0       ?allocate@?$_Wrap_alloc@V?$allocator@PAUDictUnit@cppjieba@@@std@@@std@@QAEPAPAUDictUnit@cppjieba@@I@Z 10011df0 f i nodejieba.obj
 0001:00010df0       ?allocate@?$_Wrap_alloc@U?$_Wrap_alloc@V?$allocator@V?$_List_unchecked_iterator@V?$_List_val@U?$_List_simple_types@U?$pair@$$CBIPAVTrieNode@cppjieba@@@std@@@std@@@std@@@std@@@std@@@std@@@std@@QAEPAV?$_List_unchecked_iterator@V?$_List_val@U?$_List_simple_types@U?$pair@$$CBIPAVTrieNode@cppjieba@@@std@@@std@@@std@@@2@I@Z 10011df0 f i nodejieba.obj
 0001:00010df0       ?allocate@?$_Wrap_alloc@V?$allocator@H@std@@@std@@QAEPAHI@Z 10011df0 f i nodejieba.obj
 0001:00010e50       ?_Reallocate@?$vector@IV?$allocator@I@std@@@std@@IAEXI@Z 10011e50 f i nodejieba.obj
 0001:00010e50       ?_Reallocate@?$vector@PAV?$unordered_map@INU?$hash@I@std@@U?$equal_to@I@2@V?$allocator@U?$pair@$$CBIN@std@@@2@@std@@V?$allocator@PAV?$unordered_map@INU?$hash@I@std@@U?$equal_to@I@2@V?$allocator@U?$pair@$$CBIN@std@@@2@@std@@@2@@std@@IAEXI@Z 10011e50 f i nodejieba.obj
 0001:00010e50       ?_Reallocate@?$vector@PBUDictUnit@cppjieba@@V?$allocator@PBUDictUnit@cppjieba@@@std@@@std@@IAEXI@Z 10011e50 f i nodejieba.obj
 0001:00010ef0       ?deallocate@?$_Wrap_alloc@V?$allocator@UDictUnit@cppjieba@@@std@@@std@@QAEXPAUDictUnit@cppjieba@@I@Z 10011ef0 f i nodejieba.obj
 0001:00010f50       ?_Reallocate@?$vector@UDictUnit@cppjieba@@V?$allocator@UDictUnit@cppjieba@@@std@@@std@@IAEXI@Z 10011f50 f i nodejieba.obj
 0001:00011040       ?deallocate@?$_Wrap_alloc@V?$allocator@V?$LocalVector@I@limonp@@@std@@@std@@QAEXPAV?$LocalVector@I@limonp@@I@Z 10012040 f i nodejieba.obj
 0001:000110a0       ?deallocate@?$_Wrap_alloc@V?$allocator@UDag@cppjieba@@@std@@@std@@QAEXPAUDag@cppjieba@@I@Z 100120a0 f i nodejieba.obj
 0001:00011100       ?_Reallocate@?$vector@UDag@cppjieba@@V?$allocator@UDag@cppjieba@@@std@@@std@@IAEXI@Z 10012100 f i nodejieba.obj
 0001:000111f0       ?_Destroy@?$vector@UDag@cppjieba@@V?$allocator@UDag@cppjieba@@@std@@@std@@IAEXPAUDag@cppjieba@@0@Z 100121f0 f i nodejieba.obj
 0001:00011230       ?_Reallocate@?$vector@V?$LocalVector@I@limonp@@V?$allocator@V?$LocalVector@I@limonp@@@std@@@std@@IAEXI@Z 10012230 f i nodejieba.obj
 0001:00011340       ??1_Sentry_base@?$basic_istream@DU?$char_traits@D@std@@@std@@QAE@XZ 10012340 f i nodejieba.obj
 0001:00011340       ??1_Sentry_base@?$basic_ostream@DU?$char_traits@D@std@@@std@@QAE@XZ 10012340 f i nodejieba.obj
 0001:00011360       ?_Rep@?$num_put@DV?$ostreambuf_iterator@DU?$char_traits@D@std@@@std@@@std@@ABA?AV?$ostreambuf_iterator@DU?$char_traits@D@std@@@2@V32@DI@Z 10012360 f i nodejieba.obj
 0001:000113d0       ?_Put@?$num_put@DV?$ostreambuf_iterator@DU?$char_traits@D@std@@@std@@@std@@ABA?AV?$ostreambuf_iterator@DU?$char_traits@D@std@@@2@V32@PBDI@Z 100123d0 f i nodejieba.obj
 0001:00011450       ?_Iput@?$num_put@DV?$ostreambuf_iterator@DU?$char_traits@D@std@@@std@@@std@@ABA?AV?$ostreambuf_iterator@DU?$char_traits@D@std@@@2@V32@AAVios_base@2@DPADI@Z 10012450 f i nodejieba.obj
 0001:000117d0       ?_Ifmt@?$num_put@DV?$ostreambuf_iterator@DU?$char_traits@D@std@@@std@@@std@@ABAPADPADPBDH@Z 100127d0 f i nodejieba.obj
 0001:00011860       ?_Fput@?$num_put@DV?$ostreambuf_iterator@DU?$char_traits@D@std@@@std@@@std@@ABA?AV?$ostreambuf_iterator@DU?$char_traits@D@std@@@2@V32@AAVios_base@2@DPBDI@Z 10012860 f i nodejieba.obj
 0001:00011c40       ?_Ffmt@?$num_put@DV?$ostreambuf_iterator@DU?$char_traits@D@std@@@std@@@std@@ABAPADPADDH@Z 10012c40 f i nodejieba.obj
 0001:00011d00       ?_Reallocate@?$vector@U?$pair@V?$basic_string@DU?$char_traits@D@std@@V?$allocator@D@2@@std@@V12@@std@@V?$allocator@U?$pair@V?$basic_string@DU?$char_traits@D@std@@V?$allocator@D@2@@std@@V12@@std@@@2@@std@@IAEXI@Z 10012d00 f i nodejieba.obj
 0001:00011e20       ?deallocate@?$_Wrap_alloc@V?$allocator@U?$pair@V?$basic_string@DU?$char_traits@D@std@@V?$allocator@D@2@@std@@N@std@@@std@@@std@@QAEXPAU?$pair@V?$basic_string@DU?$char_traits@D@std@@V?$allocator@D@2@@std@@N@2@I@Z 10012e20 f i nodejieba.obj
 0001:00011e80       ?_Reallocate@?$vector@U?$pair@V?$basic_string@DU?$char_traits@D@std@@V?$allocator@D@2@@std@@N@std@@V?$allocator@U?$pair@V?$basic_string@DU?$char_traits@D@std@@V?$allocator@D@2@@std@@N@std@@@2@@std@@IAEXI@Z 10012e80 f i nodejieba.obj
 0001:00011f70       ?deallocate@?$_Wrap_alloc@V?$allocator@V?$basic_string@DU?$char_traits@D@std@@V?$allocator@D@2@@std@@@std@@@std@@QAEXPAV?$basic_string@DU?$char_traits@D@std@@V?$allocator@D@2@@2@I@Z 10012f70 f i nodejieba.obj
 0001:00011fd0       ?_Reallocate@?$vector@V?$basic_string@DU?$char_traits@D@std@@V?$allocator@D@2@@std@@V?$allocator@V?$basic_string@DU?$char_traits@D@std@@V?$allocator@D@2@@std@@@2@@std@@IAEXI@Z 10012fd0 f i nodejieba.obj
 0001:000120e0       ?_Chassign@?$basic_string@DU?$char_traits@D@std@@V?$allocator@D@2@@std@@QAEXIID@Z 100130e0 f i nodejieba.obj
 0001:00012130       ?assign@?$basic_string@DU?$char_traits@D@std@@V?$allocator@D@2@@std@@QAEAAV12@$$QAV12@@Z 10013130 f i nodejieba.obj
 0001:00012190       ?flush@?$basic_ostream@DU?$char_traits@D@std@@@std@@QAEAAV12@XZ 10013190 f i nodejieba.obj
 0001:00012230       ?getloc@?$basic_streambuf@DU?$char_traits@D@std@@@std@@QBE?AVlocale@2@XZ 10013230 f i nodejieba.obj
 0001:00012260       ??0?$basic_streambuf@DU?$char_traits@D@std@@@std@@IAE@XZ 10013260 f i nodejieba.obj
 0001:00012320       ??_G?$numpunct@D@std@@MAEPAXI@Z 10013320 f i nodejieba.obj
 0001:00012320       ??_E?$numpunct@D@std@@MAEPAXI@Z 10013320 f i * CIL library *:* CIL module *
 0001:00012370       ?grouping@?$numpunct@D@std@@QBE?AV?$basic_string@DU?$char_traits@D@std@@V?$allocator@D@2@@2@XZ 10013370 f i nodejieba.obj
 0001:00012390       ?erase@?$_Tree@V?$_Tmap_traits@V?$basic_string@DU?$char_traits@D@std@@V?$allocator@D@2@@std@@UWord@KeywordExtractor@cppjieba@@U?$less@V?$basic_string@DU?$char_traits@D@std@@V?$allocator@D@2@@std@@@2@V?$allocator@U?$pair@$$CBV?$basic_string@DU?$char_traits@D@std@@V?$allocator@D@2@@std@@UWord@KeywordExtractor@cppjieba@@@std@@@2@$0A@@std@@@std@@QAE?AV?$_Tree_iterator@V?$_Tree_val@U?$_Tree_simple_types@U?$pair@$$CBV?$basic_string@DU?$char_traits@D@std@@V?$allocator@D@2@@std@@UWord@KeywordExtractor@cppjieba@@@std@@@std@@@std@@@2@V?$_Tree_const_iterator@V?$_Tree_val@U?$_Tree_simple_types@U?$pair@$$CBV?$basic_string@DU?$char_traits@D@std@@V?$allocator@D@2@@std@@UWord@KeywordExtractor@cppjieba@@@std@@@std@@@std@@@2@@Z 10013390 f i nodejieba.obj
 0001:000127b0       ?clear@?$list@U?$pair@$$CBV?$basic_string@DU?$char_traits@D@std@@V?$allocator@D@2@@std@@N@std@@V?$allocator@U?$pair@$$CBV?$basic_string@DU?$char_traits@D@std@@V?$allocator@D@2@@std@@N@std@@@2@@std@@QAEXXZ 100137b0 f i nodejieba.obj
 0001:000127b0       ?clear@?$list@V?$basic_string@DU?$char_traits@D@std@@V?$allocator@D@2@@std@@V?$allocator@V?$basic_string@DU?$char_traits@D@std@@V?$allocator@D@2@@std@@@2@@std@@QAEXXZ 100137b0 f i nodejieba.obj
 0001:00012840       ?_Reallocate@?$vector@V?$_List_unchecked_const_iterator@V?$_List_val@U?$_List_simple_types@I@std@@@std@@U_Iterator_base0@2@@std@@U?$_Wrap_alloc@V?$allocator@V?$_List_unchecked_const_iterator@V?$_List_val@U?$_List_simple_types@I@std@@@std@@U_Iterator_base0@2@@std@@@std@@@2@@std@@IAEXI@Z 10013840 f i nodejieba.obj
 0001:00012840       ?_Reallocate@?$vector@V?$_List_unchecked_iterator@V?$_List_val@U?$_List_simple_types@U?$pair@$$CBIPAVTrieNode@cppjieba@@@std@@@std@@@std@@@std@@U?$_Wrap_alloc@V?$allocator@V?$_List_unchecked_iterator@V?$_List_val@U?$_List_simple_types@U?$pair@$$CBIPAVTrieNode@cppjieba@@@std@@@std@@@std@@@std@@@std@@@2@@std@@IAEXI@Z 10013840 f i nodejieba.obj
 0001:00012840       ?_Reallocate@?$vector@V?$_List_unchecked_const_iterator@V?$_List_val@U?$_List_simple_types@V?$basic_string@DU?$char_traits@D@std@@V?$allocator@D@2@@std@@@std@@@std@@U_Iterator_base0@2@@std@@U?$_Wrap_alloc@V?$allocator@V?$_List_unchecked_const_iterator@V?$_List_val@U?$_List_simple_types@V?$basic_string@DU?$char_traits@D@std@@V?$allocator@D@2@@std@@@std@@@std@@U_Iterator_base0@2@@std@@@std@@@2@@std@@IAEXI@Z 10013840 f i nodejieba.obj
 0001:00012840       ?_Reallocate@?$vector@V?$_List_unchecked_iterator@V?$_List_val@U?$_List_simple_types@U?$pair@$$CBV?$basic_string@DU?$char_traits@D@std@@V?$allocator@D@2@@std@@N@std@@@std@@@std@@@std@@U?$_Wrap_alloc@V?$allocator@V?$_List_unchecked_iterator@V?$_List_val@U?$_List_simple_types@U?$pair@$$CBV?$basic_string@DU?$char_traits@D@std@@V?$allocator@D@2@@std@@N@std@@@std@@@std@@@std@@@std@@@2@@std@@IAEXI@Z 10013840 f i nodejieba.obj
 0001:00012840       ?_Reallocate@?$vector@V?$_List_unchecked_iterator@V?$_List_val@U?$_List_simple_types@U?$pair@$$CBIN@std@@@std@@@std@@@std@@U?$_Wrap_alloc@V?$allocator@V?$_List_unchecked_iterator@V?$_List_val@U?$_List_simple_types@U?$pair@$$CBIN@std@@@std@@@std@@@std@@@std@@@2@@std@@IAEXI@Z 10013840 f i nodejieba.obj
 0001:00012910       ?allocate@?$allocator@UWord@cppjieba@@@std@@QAEPAUWord@cppjieba@@I@Z 10013910 f i nodejieba.obj
 0001:00012970       ?deallocate@?$allocator@UWord@cppjieba@@@std@@QAEXPAUWord@cppjieba@@I@Z 10013970 f i nodejieba.obj
 0001:000129e0       ?_Copy@?$basic_string@DU?$char_traits@D@std@@V?$allocator@D@2@@std@@QAEXII@Z 100139e0 f i nodejieba.obj
 0001:00012ad0       ?insert@?$basic_string@DU?$char_traits@D@std@@V?$allocator@D@2@@std@@QAEAAV12@IID@Z 10013ad0 f i nodejieba.obj
 0001:00012bd0       ?widen@?$basic_ios@DU?$char_traits@D@std@@@std@@QBEDD@Z 10013bd0 f i nodejieba.obj
 0001:00012c70       ?_Rrotate@?$_Tree@V?$_Tmap_traits@V?$basic_string@DU?$char_traits@D@std@@V?$allocator@D@2@@std@@UWord@KeywordExtractor@cppjieba@@U?$less@V?$basic_string@DU?$char_traits@D@std@@V?$allocator@D@2@@std@@@2@V?$allocator@U?$pair@$$CBV?$basic_string@DU?$char_traits@D@std@@V?$allocator@D@2@@std@@UWord@KeywordExtractor@cppjieba@@@std@@@2@$0A@@std@@@std@@IAEXPAU?$_Tree_node@U?$pair@$$CBV?$basic_string@DU?$char_traits@D@std@@V?$allocator@D@2@@std@@UWord@KeywordExtractor@cppjieba@@@std@@PAX@2@@Z 10013c70 f i nodejieba.obj
 0001:00012cd0       ?_Lrotate@?$_Tree@V?$_Tmap_traits@V?$basic_string@DU?$char_traits@D@std@@V?$allocator@D@2@@std@@UWord@KeywordExtractor@cppjieba@@U?$less@V?$basic_string@DU?$char_traits@D@std@@V?$allocator@D@2@@std@@@2@V?$allocator@U?$pair@$$CBV?$basic_string@DU?$char_traits@D@std@@V?$allocator@D@2@@std@@UWord@KeywordExtractor@cppjieba@@@std@@@2@$0A@@std@@@std@@IAEXPAU?$_Tree_node@U?$pair@$$CBV?$basic_string@DU?$char_traits@D@std@@V?$allocator@D@2@@std@@UWord@KeywordExtractor@cppjieba@@@std@@PAX@2@@Z 10013cd0 f i nodejieba.obj
 0001:00012d20       ?_Erase@?$_Tree@V?$_Tmap_traits@V?$basic_string@DU?$char_traits@D@std@@V?$allocator@D@2@@std@@UWord@KeywordExtractor@cppjieba@@U?$less@V?$basic_string@DU?$char_traits@D@std@@V?$allocator@D@2@@std@@@2@V?$allocator@U?$pair@$$CBV?$basic_string@DU?$char_traits@D@std@@V?$allocator@D@2@@std@@UWord@KeywordExtractor@cppjieba@@@std@@@2@$0A@@std@@@std@@IAEXPAU?$_Tree_node@U?$pair@$$CBV?$basic_string@DU?$char_traits@D@std@@V?$allocator@D@2@@std@@UWord@KeywordExtractor@cppjieba@@@std@@PAX@2@@Z 10013d20 f i nodejieba.obj
 0001:00012ea0       ?_Insert_n@?$vector@V?$_List_unchecked_iterator@V?$_List_val@U?$_List_simple_types@U?$pair@$$CBV?$basic_string@DU?$char_traits@D@std@@V?$allocator@D@2@@std@@N@std@@@std@@@std@@@std@@U?$_Wrap_alloc@V?$allocator@V?$_List_unchecked_iterator@V?$_List_val@U?$_List_simple_types@U?$pair@$$CBV?$basic_string@DU?$char_traits@D@std@@V?$allocator@D@2@@std@@N@std@@@std@@@std@@@std@@@std@@@2@@std@@IAE?AV?$_Vector_iterator@V?$_Vector_val@U?$_Simple_types@V?$_List_unchecked_iterator@V?$_List_val@U?$_List_simple_types@U?$pair@$$CBV?$basic_string@DU?$char_traits@D@std@@V?$allocator@D@2@@std@@N@std@@@std@@@std@@@std@@@std@@@std@@@2@V?$_Vector_const_iterator@V?$_Vector_val@U?$_Simple_types@V?$_List_unchecked_iterator@V?$_List_val@U?$_List_simple_types@U?$pair@$$CBV?$basic_string@DU?$char_traits@D@std@@V?$allocator@D@2@@std@@N@std@@@std@@@std@@@std@@@std@@@std@@@2@IABV?$_List_unchecked_iterator@V?$_List_val@U?$_List_simple_types@U?$pair@$$CBV?$basic_string@DU?$char_traits@D@std@@V?$allocator@D@2@@std@@N@std@@@std@@@std@@@2@@Z 10013ea0 f i nodejieba.obj
 0001:00012ea0       ?_Insert_n@?$vector@V?$_List_unchecked_iterator@V?$_List_val@U?$_List_simple_types@U?$pair@$$CBIN@std@@@std@@@std@@@std@@U?$_Wrap_alloc@V?$allocator@V?$_List_unchecked_iterator@V?$_List_val@U?$_List_simple_types@U?$pair@$$CBIN@std@@@std@@@std@@@std@@@std@@@2@@std@@IAE?AV?$_Vector_iterator@V?$_Vector_val@U?$_Simple_types@V?$_List_unchecked_iterator@V?$_List_val@U?$_List_simple_types@U?$pair@$$CBIN@std@@@std@@@std@@@std@@@std@@@std@@@2@V?$_Vector_const_iterator@V?$_Vector_val@U?$_Simple_types@V?$_List_unchecked_iterator@V?$_List_val@U?$_List_simple_types@U?$pair@$$CBIN@std@@@std@@@std@@@std@@@std@@@std@@@2@IABV?$_List_unchecked_iterator@V?$_List_val@U?$_List_simple_types@U?$pair@$$CBIN@std@@@std@@@std@@@2@@Z 10013ea0 f i nodejieba.obj
 0001:00012ea0       ?_Insert_n@?$vector@V?$_List_unchecked_iterator@V?$_List_val@U?$_List_simple_types@U?$pair@$$CBIPAVTrieNode@cppjieba@@@std@@@std@@@std@@@std@@U?$_Wrap_alloc@V?$allocator@V?$_List_unchecked_iterator@V?$_List_val@U?$_List_simple_types@U?$pair@$$CBIPAVTrieNode@cppjieba@@@std@@@std@@@std@@@std@@@std@@@2@@std@@IAE?AV?$_Vector_iterator@V?$_Vector_val@U?$_Simple_types@V?$_List_unchecked_iterator@V?$_List_val@U?$_List_simple_types@U?$pair@$$CBIPAVTrieNode@cppjieba@@@std@@@std@@@std@@@std@@@std@@@std@@@2@V?$_Vector_const_iterator@V?$_Vector_val@U?$_Simple_types@V?$_List_unchecked_iterator@V?$_List_val@U?$_List_simple_types@U?$pair@$$CBIPAVTrieNode@cppjieba@@@std@@@std@@@std@@@std@@@std@@@std@@@2@IABV?$_List_unchecked_iterator@V?$_List_val@U?$_List_simple_types@U?$pair@$$CBIPAVTrieNode@cppjieba@@@std@@@std@@@std@@@2@@Z 10013ea0 f i nodejieba.obj
 0001:00012ea0       ?_Insert_n@?$vector@V?$_List_unchecked_const_iterator@V?$_List_val@U?$_List_simple_types@I@std@@@std@@U_Iterator_base0@2@@std@@U?$_Wrap_alloc@V?$allocator@V?$_List_unchecked_const_iterator@V?$_List_val@U?$_List_simple_types@I@std@@@std@@U_Iterator_base0@2@@std@@@std@@@2@@std@@IAE?AV?$_Vector_iterator@V?$_Vector_val@U?$_Simple_types@V?$_List_unchecked_const_iterator@V?$_List_val@U?$_List_simple_types@I@std@@@std@@U_Iterator_base0@2@@std@@@std@@@std@@@2@V?$_Vector_const_iterator@V?$_Vector_val@U?$_Simple_types@V?$_List_unchecked_const_iterator@V?$_List_val@U?$_List_simple_types@I@std@@@std@@U_Iterator_base0@2@@std@@@std@@@std@@@2@IABV?$_List_unchecked_const_iterator@V?$_List_val@U?$_List_simple_types@I@std@@@std@@U_Iterator_base0@2@@2@@Z 10013ea0 f i nodejieba.obj
 0001:00012ea0       ?_Insert_n@?$vector@V?$_List_unchecked_const_iterator@V?$_List_val@U?$_List_simple_types@V?$basic_string@DU?$char_traits@D@std@@V?$allocator@D@2@@std@@@std@@@std@@U_Iterator_base0@2@@std@@U?$_Wrap_alloc@V?$allocator@V?$_List_unchecked_const_iterator@V?$_List_val@U?$_List_simple_types@V?$basic_string@DU?$char_traits@D@std@@V?$allocator@D@2@@std@@@std@@@std@@U_Iterator_base0@2@@std@@@std@@@2@@std@@IAE?AV?$_Vector_iterator@V?$_Vector_val@U?$_Simple_types@V?$_List_unchecked_const_iterator@V?$_List_val@U?$_List_simple_types@V?$basic_string@DU?$char_traits@D@std@@V?$allocator@D@2@@std@@@std@@@std@@U_Iterator_base0@2@@std@@@std@@@std@@@2@V?$_Vector_const_iterator@V?$_Vector_val@U?$_Simple_types@V?$_List_unchecked_const_iterator@V?$_List_val@U?$_List_simple_types@V?$basic_string@DU?$char_traits@D@std@@V?$allocator@D@2@@std@@@std@@@std@@U_Iterator_base0@2@@std@@@std@@@std@@@2@IABV?$_List_unchecked_const_iterator@V?$_List_val@U?$_List_simple_types@V?$basic_string@DU?$char_traits@D@std@@V?$allocator@D@2@@std@@@std@@@std@@U_Iterator_base0@2@@2@@Z 10013ea0 f i nodejieba.obj
 0001:00013060       ?_Ufill@?$vector@V?$_List_unchecked_const_iterator@V?$_List_val@U?$_List_simple_types@V?$basic_string@DU?$char_traits@D@std@@V?$allocator@D@2@@std@@@std@@@std@@U_Iterator_base0@2@@std@@U?$_Wrap_alloc@V?$allocator@V?$_List_unchecked_const_iterator@V?$_List_val@U?$_List_simple_types@V?$basic_string@DU?$char_traits@D@std@@V?$allocator@D@2@@std@@@std@@@std@@U_Iterator_base0@2@@std@@@std@@@2@@std@@IAEPAV?$_List_unchecked_const_iterator@V?$_List_val@U?$_List_simple_types@V?$basic_string@DU?$char_traits@D@std@@V?$allocator@D@2@@std@@@std@@@std@@U_Iterator_base0@2@@2@PAV32@IPBV32@@Z 10014060 f i nodejieba.obj
 0001:00013060       ?_Ufill@?$vector@V?$_List_unchecked_const_iterator@V?$_List_val@U?$_List_simple_types@I@std@@@std@@U_Iterator_base0@2@@std@@U?$_Wrap_alloc@V?$allocator@V?$_List_unchecked_const_iterator@V?$_List_val@U?$_List_simple_types@I@std@@@std@@U_Iterator_base0@2@@std@@@std@@@2@@std@@IAEPAV?$_List_unchecked_const_iterator@V?$_List_val@U?$_List_simple_types@I@std@@@std@@U_Iterator_base0@2@@2@PAV32@IPBV32@@Z 10014060 f i nodejieba.obj
 0001:00013060       ?_Ufill@?$vector@V?$_List_unchecked_iterator@V?$_List_val@U?$_List_simple_types@U?$pair@$$CBIN@std@@@std@@@std@@@std@@U?$_Wrap_alloc@V?$allocator@V?$_List_unchecked_iterator@V?$_List_val@U?$_List_simple_types@U?$pair@$$CBIN@std@@@std@@@std@@@std@@@std@@@2@@std@@IAEPAV?$_List_unchecked_iterator@V?$_List_val@U?$_List_simple_types@U?$pair@$$CBIN@std@@@std@@@std@@@2@PAV32@IPBV32@@Z 10014060 f i nodejieba.obj
 0001:00013060       ?_Ufill@?$vector@V?$_List_unchecked_iterator@V?$_List_val@U?$_List_simple_types@U?$pair@$$CBV?$basic_string@DU?$char_traits@D@std@@V?$allocator@D@2@@std@@N@std@@@std@@@std@@@std@@U?$_Wrap_alloc@V?$allocator@V?$_List_unchecked_iterator@V?$_List_val@U?$_List_simple_types@U?$pair@$$CBV?$basic_string@DU?$char_traits@D@std@@V?$allocator@D@2@@std@@N@std@@@std@@@std@@@std@@@std@@@2@@std@@IAEPAV?$_List_unchecked_iterator@V?$_List_val@U?$_List_simple_types@U?$pair@$$CBV?$basic_string@DU?$char_traits@D@std@@V?$allocator@D@2@@std@@N@std@@@std@@@std@@@2@PAV32@IPBV32@@Z 10014060 f i nodejieba.obj
 0001:00013060       ?_Ufill@?$vector@V?$_List_unchecked_iterator@V?$_List_val@U?$_List_simple_types@U?$pair@$$CBIPAVTrieNode@cppjieba@@@std@@@std@@@std@@@std@@U?$_Wrap_alloc@V?$allocator@V?$_List_unchecked_iterator@V?$_List_val@U?$_List_simple_types@U?$pair@$$CBIPAVTrieNode@cppjieba@@@std@@@std@@@std@@@std@@@std@@@2@@std@@IAEPAV?$_List_unchecked_iterator@V?$_List_val@U?$_List_simple_types@U?$pair@$$CBIPAVTrieNode@cppjieba@@@std@@@std@@@std@@@2@PAV32@IPBV32@@Z 10014060 f i nodejieba.obj
 0001:00013090       ??$use_facet@V?$ctype@D@std@@@std@@YAABV?$ctype@D@0@ABVlocale@0@@Z 10014090 f i nodejieba.obj
 0001:000131b0       ??$_Immortalize@V_Iostream_error_category@std@@@std@@YAAAV_Iostream_error_category@0@XZ 100141b0 f i nodejieba.obj
 0001:00013220       ??$New@VString@v8@@V?$basic_string@DU?$char_traits@D@std@@V?$allocator@D@2@@std@@@Nan@@YA?AV?$MaybeLocal@VString@v8@@@v8@@V?$basic_string@DU?$char_traits@D@std@@V?$allocator@D@2@@std@@@Z 10014220 f i nodejieba.obj
 0001:000132c0       ??$?6U?$char_traits@D@std@@@std@@YAAAV?$basic_ostream@DU?$char_traits@D@std@@@0@AAV10@PBD@Z 100142c0 f i nodejieba.obj
 0001:00013540       ??$?6DU?$char_traits@D@std@@V?$allocator@D@1@@std@@YAAAV?$basic_ostream@DU?$char_traits@D@std@@@0@AAV10@ABV?$basic_string@DU?$char_traits@D@std@@V?$allocator@D@2@@0@@Z 10014540 f i nodejieba.obj
 0001:00013790       ??$endl@DU?$char_traits@D@std@@@std@@YAAAV?$basic_ostream@DU?$char_traits@D@std@@@0@AAV10@@Z 10014790 f i nodejieba.obj
 0001:000137d0       ??$getline@DU?$char_traits@D@std@@V?$allocator@D@2@@std@@YAAAV?$basic_istream@DU?$char_traits@D@std@@@0@AAV10@AAV?$basic_string@DU?$char_traits@D@std@@V?$allocator@D@2@@0@@Z 100147d0 f i nodejieba.obj
 0001:00013800       ??$make_pair@AAV?$basic_string@DU?$char_traits@D@std@@V?$allocator@D@2@@std@@V12@@std@@YA?AU?$pair@V?$basic_string@DU?$char_traits@D@std@@V?$allocator@D@2@@std@@V12@@0@AAV?$basic_string@DU?$char_traits@D@std@@V?$allocator@D@2@@0@$$QAV20@@Z 10014800 f i nodejieba.obj
 0001:00013840       ??$use_facet@V?$codecvt@DDU_Mbstatet@@@std@@@std@@YAABV?$codecvt@DDU_Mbstatet@@@0@ABVlocale@0@@Z 10014840 f i nodejieba.obj
 0001:00013960       ??$use_facet@V?$num_put@DV?$ostreambuf_iterator@DU?$char_traits@D@std@@@std@@@std@@@std@@YAABV?$num_put@DV?$ostreambuf_iterator@DU?$char_traits@D@std@@@std@@@0@ABVlocale@0@@Z 10014960 f i nodejieba.obj
 0001:00013a80       ??$use_facet@V?$numpunct@D@std@@@std@@YAABV?$numpunct@D@0@ABVlocale@0@@Z 10014a80 f i nodejieba.obj
 0001:00013ba0       ??$_Umove@PAV?$_List_unchecked_iterator@V?$_List_val@U?$_List_simple_types@U?$pair@$$CBV?$basic_string@DU?$char_traits@D@std@@V?$allocator@D@2@@std@@N@std@@@std@@@std@@@std@@@?$vector@V?$_List_unchecked_iterator@V?$_List_val@U?$_List_simple_types@U?$pair@$$CBV?$basic_string@DU?$char_traits@D@std@@V?$allocator@D@2@@std@@N@std@@@std@@@std@@@std@@U?$_Wrap_alloc@V?$allocator@V?$_List_unchecked_iterator@V?$_List_val@U?$_List_simple_types@U?$pair@$$CBV?$basic_string@DU?$char_traits@D@std@@V?$allocator@D@2@@std@@N@std@@@std@@@std@@@std@@@std@@@2@@std@@IAEPAV?$_List_unchecked_iterator@V?$_List_val@U?$_List_simple_types@U?$pair@$$CBV?$basic_string@DU?$char_traits@D@std@@V?$allocator@D@2@@std@@N@std@@@std@@@std@@@1@PAV21@00@Z 10014ba0 f i nodejieba.obj
 0001:00013ba0       ??$_Umove@PAV?$_List_unchecked_iterator@V?$_List_val@U?$_List_simple_types@U?$pair@$$CBIN@std@@@std@@@std@@@std@@@?$vector@V?$_List_unchecked_iterator@V?$_List_val@U?$_List_simple_types@U?$pair@$$CBIN@std@@@std@@@std@@@std@@U?$_Wrap_alloc@V?$allocator@V?$_List_unchecked_iterator@V?$_List_val@U?$_List_simple_types@U?$pair@$$CBIN@std@@@std@@@std@@@std@@@std@@@2@@std@@IAEPAV?$_List_unchecked_iterator@V?$_List_val@U?$_List_simple_types@U?$pair@$$CBIN@std@@@std@@@std@@@1@PAV21@00@Z 10014ba0 f i nodejieba.obj
 0001:00013ba0       ??$_Umove@PAV?$_List_unchecked_iterator@V?$_List_val@U?$_List_simple_types@U?$pair@$$CBIPAVTrieNode@cppjieba@@@std@@@std@@@std@@@std@@@?$vector@V?$_List_unchecked_iterator@V?$_List_val@U?$_List_simple_types@U?$pair@$$CBIPAVTrieNode@cppjieba@@@std@@@std@@@std@@@std@@U?$_Wrap_alloc@V?$allocator@V?$_List_unchecked_iterator@V?$_List_val@U?$_List_simple_types@U?$pair@$$CBIPAVTrieNode@cppjieba@@@std@@@std@@@std@@@std@@@std@@@2@@std@@IAEPAV?$_List_unchecked_iterator@V?$_List_val@U?$_List_simple_types@U?$pair@$$CBIPAVTrieNode@cppjieba@@@std@@@std@@@std@@@1@PAV21@00@Z 10014ba0 f i nodejieba.obj
 0001:00013ba0       ??$_Umove@PAV?$_List_unchecked_const_iterator@V?$_List_val@U?$_List_simple_types@I@std@@@std@@U_Iterator_base0@2@@std@@@?$vector@V?$_List_unchecked_const_iterator@V?$_List_val@U?$_List_simple_types@I@std@@@std@@U_Iterator_base0@2@@std@@U?$_Wrap_alloc@V?$allocator@V?$_List_unchecked_const_iterator@V?$_List_val@U?$_List_simple_types@I@std@@@std@@U_Iterator_base0@2@@std@@@std@@@2@@std@@IAEPAV?$_List_unchecked_const_iterator@V?$_List_val@U?$_List_simple_types@I@std@@@std@@U_Iterator_base0@2@@1@PAV21@00@Z 10014ba0 f i nodejieba.obj
 0001:00013ba0       ??$_Umove@PAV?$_List_unchecked_const_iterator@V?$_List_val@U?$_List_simple_types@V?$basic_string@DU?$char_traits@D@std@@V?$allocator@D@2@@std@@@std@@@std@@U_Iterator_base0@2@@std@@@?$vector@V?$_List_unchecked_const_iterator@V?$_List_val@U?$_List_simple_types@V?$basic_string@DU?$char_traits@D@std@@V?$allocator@D@2@@std@@@std@@@std@@U_Iterator_base0@2@@std@@U?$_Wrap_alloc@V?$allocator@V?$_List_unchecked_const_iterator@V?$_List_val@U?$_List_simple_types@V?$basic_string@DU?$char_traits@D@std@@V?$allocator@D@2@@std@@@std@@@std@@U_Iterator_base0@2@@std@@@std@@@2@@std@@IAEPAV?$_List_unchecked_const_iterator@V?$_List_val@U?$_List_simple_types@V?$basic_string@DU?$char_traits@D@std@@V?$allocator@D@2@@std@@@std@@@std@@U_Iterator_base0@2@@1@PAV21@00@Z 10014ba0 f i nodejieba.obj
 0001:00013be0       ??$fill@PAV?$_List_unchecked_const_iterator@V?$_List_val@U?$_List_simple_types@V?$basic_string@DU?$char_traits@D@std@@V?$allocator@D@2@@std@@@std@@@std@@U_Iterator_base0@2@@std@@V12@@std@@YAXPAV?$_List_unchecked_const_iterator@V?$_List_val@U?$_List_simple_types@V?$basic_string@DU?$char_traits@D@std@@V?$allocator@D@2@@std@@@std@@@std@@U_Iterator_base0@2@@0@0ABV10@@Z 10014be0 f i nodejieba.obj
 0001:00013be0       ??$fill@PAV?$_List_unchecked_iterator@V?$_List_val@U?$_List_simple_types@U?$pair@$$CBIPAVTrieNode@cppjieba@@@std@@@std@@@std@@@std@@V12@@std@@YAXPAV?$_List_unchecked_iterator@V?$_List_val@U?$_List_simple_types@U?$pair@$$CBIPAVTrieNode@cppjieba@@@std@@@std@@@std@@@0@0ABV10@@Z 10014be0 f i nodejieba.obj
 0001:00013be0       ??$fill@PAV?$_List_unchecked_iterator@V?$_List_val@U?$_List_simple_types@U?$pair@$$CBIN@std@@@std@@@std@@@std@@V12@@std@@YAXPAV?$_List_unchecked_iterator@V?$_List_val@U?$_List_simple_types@U?$pair@$$CBIN@std@@@std@@@std@@@0@0ABV10@@Z 10014be0 f i nodejieba.obj
 0001:00013be0       ??$fill@PAV?$_List_unchecked_const_iterator@V?$_List_val@U?$_List_simple_types@I@std@@@std@@U_Iterator_base0@2@@std@@V12@@std@@YAXPAV?$_List_unchecked_const_iterator@V?$_List_val@U?$_List_simple_types@I@std@@@std@@U_Iterator_base0@2@@0@0ABV10@@Z 10014be0 f i nodejieba.obj
 0001:00013be0       ??$fill@PAV?$_List_unchecked_iterator@V?$_List_val@U?$_List_simple_types@U?$pair@$$CBV?$basic_string@DU?$char_traits@D@std@@V?$allocator@D@2@@std@@N@std@@@std@@@std@@@std@@V12@@std@@YAXPAV?$_List_unchecked_iterator@V?$_List_val@U?$_List_simple_types@U?$pair@$$CBV?$basic_string@DU?$char_traits@D@std@@V?$allocator@D@2@@std@@N@std@@@std@@@std@@@0@0ABV10@@Z 10014be0 f i nodejieba.obj
 0001:00013c10       ?_Getcat@?$numpunct@D@std@@SAIPAPBVfacet@locale@2@PBV42@@Z 10014c10 f i nodejieba.obj
 0001:00013cd0       ?_Getcat@?$codecvt@DDU_Mbstatet@@@std@@SAIPAPBVfacet@locale@2@PBV42@@Z 10014cd0 f i nodejieba.obj
 0001:00013d80       ?_Getcat@?$num_put@DV?$ostreambuf_iterator@DU?$char_traits@D@std@@@std@@@std@@SAIPAPBVfacet@locale@2@PBV42@@Z 10014d80 f i nodejieba.obj
 0001:00013e30       ?put@?$basic_ostream@DU?$char_traits@D@std@@@std@@QAEAAV12@D@Z 10014e30 f i nodejieba.obj
 0001:00013f90       ?sputn@?$basic_streambuf@DU?$char_traits@D@std@@@std@@QAE_JPBD_J@Z 10014f90 f i nodejieba.obj
 0001:00013fb0       ?_Init@?$numpunct@D@std@@IAEXABV_Locinfo@2@_N@Z 10014fb0 f i nodejieba.obj
 0001:000140f0       ??$getline@DU?$char_traits@D@std@@V?$allocator@D@2@@std@@YAAAV?$basic_istream@DU?$char_traits@D@std@@@0@$$QAV10@AAV?$basic_string@DU?$char_traits@D@std@@V?$allocator@D@2@@0@D@Z 100150f0 f i nodejieba.obj
 0001:00014250       ??$_Insert@ABIU_Nil@std@@@?$_Hash@V?$_Uset_traits@IV?$_Uhash_compare@IU?$hash@I@std@@U?$equal_to@I@2@@std@@V?$allocator@I@2@$0A@@std@@@std@@IAE?AU?$pair@V?$_List_const_iterator@V?$_List_val@U?$_List_simple_types@I@std@@@std@@@std@@_N@1@ABIU_Nil@1@@Z 10015250 f i nodejieba.obj
 0001:000143b0       ??$_Partial_sort_unchecked@PAUWord@KeywordExtractor@cppjieba@@P6A_NABU123@0@Z@std@@YAXPAUWord@KeywordExtractor@cppjieba@@00AAP6A_NABU123@1@Z@Z 100153b0 f i nodejieba.obj
 0001:00014590       ??$_Insert@ABV?$basic_string@DU?$char_traits@D@std@@V?$allocator@D@2@@std@@U_Nil@2@@?$_Hash@V?$_Uset_traits@V?$basic_string@DU?$char_traits@D@std@@V?$allocator@D@2@@std@@V?$_Uhash_compare@V?$basic_string@DU?$char_traits@D@std@@V?$allocator@D@2@@std@@U?$hash@V?$basic_string@DU?$char_traits@D@std@@V?$allocator@D@2@@std@@@2@U?$equal_to@V?$basic_string@DU?$char_traits@D@std@@V?$allocator@D@2@@std@@@2@@2@V?$allocator@V?$basic_string@DU?$char_traits@D@std@@V?$allocator@D@2@@std@@@2@$0A@@std@@@std@@IAE?AU?$pair@V?$_List_const_iterator@V?$_List_val@U?$_List_simple_types@V?$basic_string@DU?$char_traits@D@std@@V?$allocator@D@2@@std@@@std@@@std@@@std@@_N@1@ABV?$basic_string@DU?$char_traits@D@std@@V?$allocator@D@2@@1@U_Nil@1@@Z 10015590 f i nodejieba.obj
 0001:00014750       ??$_Try_emplace@ABV?$basic_string@DU?$char_traits@D@std@@V?$allocator@D@2@@std@@$$V@?$map@V?$basic_string@DU?$char_traits@D@std@@V?$allocator@D@2@@std@@UWord@KeywordExtractor@cppjieba@@U?$less@V?$basic_string@DU?$char_traits@D@std@@V?$allocator@D@2@@std@@@2@V?$allocator@U?$pair@$$CBV?$basic_string@DU?$char_traits@D@std@@V?$allocator@D@2@@std@@UWord@KeywordExtractor@cppjieba@@@std@@@2@@std@@QAE?AU?$pair@V?$_Tree_iterator@V?$_Tree_val@U?$_Tree_simple_types@U?$pair@$$CBV?$basic_string@DU?$char_traits@D@std@@V?$allocator@D@2@@std@@UWord@KeywordExtractor@cppjieba@@@std@@@std@@@std@@@std@@_N@1@ABV?$basic_string@DU?$char_traits@D@std@@V?$allocator@D@2@@1@@Z 10015750 f i nodejieba.obj
 0001:000148b0       ??$_Try_emplace@ABV?$basic_string@DU?$char_traits@D@std@@V?$allocator@D@2@@std@@$$V@?$unordered_map@V?$basic_string@DU?$char_traits@D@std@@V?$allocator@D@2@@std@@NU?$hash@V?$basic_string@DU?$char_traits@D@std@@V?$allocator@D@2@@std@@@2@U?$equal_to@V?$basic_string@DU?$char_traits@D@std@@V?$allocator@D@2@@std@@@2@V?$allocator@U?$pair@$$CBV?$basic_string@DU?$char_traits@D@std@@V?$allocator@D@2@@std@@N@std@@@2@@std@@QAE?AU?$pair@V?$_List_iterator@V?$_List_val@U?$_List_simple_types@U?$pair@$$CBV?$basic_string@DU?$char_traits@D@std@@V?$allocator@D@2@@std@@N@std@@@std@@@std@@@std@@_N@1@ABV?$basic_string@DU?$char_traits@D@std@@V?$allocator@D@2@@1@@Z 100158b0 f i nodejieba.obj
 0001:000149e0       ??$_Uninitialized_default_fill_n1@PAUWord@KeywordExtractor@cppjieba@@IV?$allocator@UWord@KeywordExtractor@cppjieba@@@std@@@std@@YAXPAUWord@KeywordExtractor@cppjieba@@IAAU?$_Wrap_alloc@V?$allocator@UWord@KeywordExtractor@cppjieba@@@std@@@0@U?$integral_constant@_N$0A@@0@@Z 100159e0 f i nodejieba.obj
 0001:00014a40       ??$_Uninitialized_default_fill_n1@PAUDag@cppjieba@@IV?$allocator@UDag@cppjieba@@@std@@@std@@YAXPAUDag@cppjieba@@IAAU?$_Wrap_alloc@V?$allocator@UDag@cppjieba@@@std@@@0@U?$integral_constant@_N$0A@@0@@Z 10015a40 f i nodejieba.obj
 0001:00014ad0       ??$_Destroy_range1@V?$allocator@UWord@KeywordExtractor@cppjieba@@@std@@PAUWord@KeywordExtractor@cppjieba@@@std@@YAXPAUWord@KeywordExtractor@cppjieba@@0AAU?$_Wrap_alloc@V?$allocator@UWord@KeywordExtractor@cppjieba@@@std@@@0@U?$integral_constant@_N$0A@@0@@Z 10015ad0 f i nodejieba.obj
 0001:00014bc0       ??$_Destroy_range1@V?$allocator@UWord@cppjieba@@@std@@PAUWord@cppjieba@@@std@@YAXPAUWord@cppjieba@@0AAU?$_Wrap_alloc@V?$allocator@UWord@cppjieba@@@std@@@0@U?$integral_constant@_N$0A@@0@@Z 10015bc0 f i nodejieba.obj
 0001:00014c40       ??$_Destroy_range1@V?$allocator@V?$basic_string@DU?$char_traits@D@std@@V?$allocator@D@2@@std@@@std@@PAV?$basic_string@DU?$char_traits@D@std@@V?$allocator@D@2@@2@@std@@YAXPAV?$basic_string@DU?$char_traits@D@std@@V?$allocator@D@2@@0@0AAU?$_Wrap_alloc@V?$allocator@V?$basic_string@DU?$char_traits@D@std@@V?$allocator@D@2@@std@@@std@@@0@U?$integral_constant@_N$0A@@0@@Z 10015c40 f i nodejieba.obj
 0001:00014cc0       ??$_Destroy_range1@V?$allocator@UDictUnit@cppjieba@@@std@@PAUDictUnit@cppjieba@@@std@@YAXPAUDictUnit@cppjieba@@0AAU?$_Wrap_alloc@V?$allocator@UDictUnit@cppjieba@@@std@@@0@U?$integral_constant@_N$0A@@0@@Z 10015cc0 f i nodejieba.obj
 0001:00014d50       ??$_Destroy_range1@V?$allocator@U?$pair@V?$basic_string@DU?$char_traits@D@std@@V?$allocator@D@2@@std@@V12@@std@@@std@@PAU?$pair@V?$basic_string@DU?$char_traits@D@std@@V?$allocator@D@2@@std@@V12@@2@@std@@YAXPAU?$pair@V?$basic_string@DU?$char_traits@D@std@@V?$allocator@D@2@@std@@V12@@0@0AAU?$_Wrap_alloc@V?$allocator@U?$pair@V?$basic_string@DU?$char_traits@D@std@@V?$allocator@D@2@@std@@V12@@std@@@std@@@0@U?$integral_constant@_N$0A@@0@@Z 10015d50 f i nodejieba.obj
 0001:00014e30       ??$_Destroy_range1@V?$allocator@U?$pair@V?$basic_string@DU?$char_traits@D@std@@V?$allocator@D@2@@std@@N@std@@@std@@PAU?$pair@V?$basic_string@DU?$char_traits@D@std@@V?$allocator@D@2@@std@@N@2@@std@@YAXPAU?$pair@V?$basic_string@DU?$char_traits@D@std@@V?$allocator@D@2@@std@@N@0@0AAU?$_Wrap_alloc@V?$allocator@U?$pair@V?$basic_string@DU?$char_traits@D@std@@V?$allocator@D@2@@std@@N@std@@@std@@@0@U?$integral_constant@_N$0A@@0@@Z 10015e30 f i nodejieba.obj
 0001:00014eb0       ??1sentry@?$basic_istream@DU?$char_traits@D@std@@@std@@QAE@XZ 10015eb0 f i nodejieba.obj
 0001:00014f00       ??1Word@KeywordExtractor@cppjieba@@QAE@XZ 10015f00 f i nodejieba.obj
 0001:00014f70       ??R?$less@V?$basic_string@DU?$char_traits@D@std@@V?$allocator@D@2@@std@@@std@@QBE_NABV?$basic_string@DU?$char_traits@D@std@@V?$allocator@D@2@@1@0@Z 10015f70 f i nodejieba.obj
 0001:00014fb0       ?_Check_size@?$_Hash@V?$_Uset_traits@V?$basic_string@DU?$char_traits@D@std@@V?$allocator@D@2@@std@@V?$_Uhash_compare@V?$basic_string@DU?$char_traits@D@std@@V?$allocator@D@2@@std@@U?$hash@V?$basic_string@DU?$char_traits@D@std@@V?$allocator@D@2@@std@@@2@U?$equal_to@V?$basic_string@DU?$char_traits@D@std@@V?$allocator@D@2@@std@@@2@@2@V?$allocator@V?$basic_string@DU?$char_traits@D@std@@V?$allocator@D@2@@std@@@2@$0A@@std@@@std@@IAEXXZ 10015fb0 f i nodejieba.obj
 0001:00015050       ??0sentry@?$basic_istream@DU?$char_traits@D@std@@@std@@QAE@AAV12@_N@Z 10016050 f i nodejieba.obj
 0001:00015110       ?_Check_size@?$_Hash@V?$_Uset_traits@IV?$_Uhash_compare@IU?$hash@I@std@@U?$equal_to@I@2@@std@@V?$allocator@I@2@$0A@@std@@@std@@IAEXXZ 10016110 f i nodejieba.obj
 0001:000151b0       ?snextc@?$basic_streambuf@DU?$char_traits@D@std@@@std@@QAEHXZ 100161b0 f i nodejieba.obj
 0001:00015220       ??$_Insert@AAU?$pair@$$CBIN@std@@V?$_List_unchecked_iterator@V?$_List_val@U?$_List_simple_types@U?$pair@$$CBIN@std@@@std@@@std@@@2@@?$_Hash@V?$_Umap_traits@INV?$_Uhash_compare@IU?$hash@I@std@@U?$equal_to@I@2@@std@@V?$allocator@U?$pair@$$CBIN@std@@@2@$0A@@std@@@std@@IAE?AU?$pair@V?$_List_iterator@V?$_List_val@U?$_List_simple_types@U?$pair@$$CBIN@std@@@std@@@std@@@std@@_N@1@AAU?$pair@$$CBIN@1@V?$_List_unchecked_iterator@V?$_List_val@U?$_List_simple_types@U?$pair@$$CBIN@std@@@std@@@std@@@1@@Z 10016220 f i nodejieba.obj
 0001:00015220       ??$_Insert@AAU?$pair@$$CBIPAVTrieNode@cppjieba@@@std@@V?$_List_unchecked_iterator@V?$_List_val@U?$_List_simple_types@U?$pair@$$CBIPAVTrieNode@cppjieba@@@std@@@std@@@std@@@2@@?$_Hash@V?$_Umap_traits@IPAVTrieNode@cppjieba@@V?$_Uhash_compare@IU?$hash@I@std@@U?$equal_to@I@2@@std@@V?$allocator@U?$pair@$$CBIPAVTrieNode@cppjieba@@@std@@@4@$0A@@std@@@std@@IAE?AU?$pair@V?$_List_iterator@V?$_List_val@U?$_List_simple_types@U?$pair@$$CBIPAVTrieNode@cppjieba@@@std@@@std@@@std@@@std@@_N@1@AAU?$pair@$$CBIPAVTrieNode@cppjieba@@@1@V?$_List_unchecked_iterator@V?$_List_val@U?$_List_simple_types@U?$pair@$$CBIPAVTrieNode@cppjieba@@@std@@@std@@@std@@@1@@Z 10016220 f i nodejieba.obj
 0001:00015350       ??$_Sort_unchecked1@PAUDictUnit@cppjieba@@HP6A_NABU12@0@Z@std@@YAXPAUDictUnit@cppjieba@@0HAAP6A_NABU12@1@Z@Z 10016350 f i nodejieba.obj
 0001:00015470       ??$_Construct@V?$_Vector_iterator@V?$_Vector_val@U?$_Simple_types@UDictUnit@cppjieba@@@std@@@std@@@std@@@?$vector@UDictUnit@cppjieba@@V?$allocator@UDictUnit@cppjieba@@@std@@@std@@QAEXV?$_Vector_iterator@V?$_Vector_val@U?$_Simple_types@UDictUnit@cppjieba@@@std@@@std@@@1@0Uforward_iterator_tag@1@@Z 10016470 f i nodejieba.obj
 0001:00015500       ??$_Make_heap_unchecked@PAUWord@KeywordExtractor@cppjieba@@P6A_NABU123@0@Z@std@@YAXPAUWord@KeywordExtractor@cppjieba@@0AAP6A_NABU123@1@Z@Z 10016500 f i nodejieba.obj
 0001:000156f0       ??$_Sort_heap_unchecked@PAUWord@KeywordExtractor@cppjieba@@P6A_NABU123@0@Z@std@@YAXPAUWord@KeywordExtractor@cppjieba@@0AAP6A_NABU123@1@Z@Z 100166f0 f i nodejieba.obj
 0001:00015920       ??$_Lbound@V?$basic_string@DU?$char_traits@D@std@@V?$allocator@D@2@@std@@@?$_Tree@V?$_Tmap_traits@V?$basic_string@DU?$char_traits@D@std@@V?$allocator@D@2@@std@@UWord@KeywordExtractor@cppjieba@@U?$less@V?$basic_string@DU?$char_traits@D@std@@V?$allocator@D@2@@std@@@2@V?$allocator@U?$pair@$$CBV?$basic_string@DU?$char_traits@D@std@@V?$allocator@D@2@@std@@UWord@KeywordExtractor@cppjieba@@@std@@@2@$0A@@std@@@std@@IBEPAU?$_Tree_node@U?$pair@$$CBV?$basic_string@DU?$char_traits@D@std@@V?$allocator@D@2@@std@@UWord@KeywordExtractor@cppjieba@@@std@@PAX@1@ABV?$basic_string@DU?$char_traits@D@std@@V?$allocator@D@2@@1@@Z 10016920 f i nodejieba.obj
 0001:000159f0       ??$_Insert@ABV?$basic_string@DU?$char_traits@D@std@@V?$allocator@D@2@@std@@V?$_List_unchecked_const_iterator@V?$_List_val@U?$_List_simple_types@V?$basic_string@DU?$char_traits@D@std@@V?$allocator@D@2@@std@@@std@@@std@@U_Iterator_base0@2@@2@@?$_Hash@V?$_Uset_traits@V?$basic_string@DU?$char_traits@D@std@@V?$allocator@D@2@@std@@V?$_Uhash_compare@V?$basic_string@DU?$char_traits@D@std@@V?$allocator@D@2@@std@@U?$hash@V?$basic_string@DU?$char_traits@D@std@@V?$allocator@D@2@@std@@@2@U?$equal_to@V?$basic_string@DU?$char_traits@D@std@@V?$allocator@D@2@@std@@@2@@2@V?$allocator@V?$basic_string@DU?$char_traits@D@std@@V?$allocator@D@2@@std@@@2@$0A@@std@@@std@@IAE?AU?$pair@V?$_List_const_iterator@V?$_List_val@U?$_List_simple_types@V?$basic_string@DU?$char_traits@D@std@@V?$allocator@D@2@@std@@@std@@@std@@@std@@_N@1@ABV?$basic_string@DU?$char_traits@D@std@@V?$allocator@D@2@@1@V?$_List_unchecked_const_iterator@V?$_List_val@U?$_List_simple_types@V?$basic_string@DU?$char_traits@D@std@@V?$allocator@D@2@@std@@@std@@@std@@U_Iterator_base0@2@@1@@Z 100169f0 f i nodejieba.obj
 0001:00015bf0       ??$_Insert@ABIV?$_List_unchecked_const_iterator@V?$_List_val@U?$_List_simple_types@I@std@@@std@@U_Iterator_base0@2@@std@@@?$_Hash@V?$_Uset_traits@IV?$_Uhash_compare@IU?$hash@I@std@@U?$equal_to@I@2@@std@@V?$allocator@I@2@$0A@@std@@@std@@IAE?AU?$pair@V?$_List_const_iterator@V?$_List_val@U?$_List_simple_types@I@std@@@std@@@std@@_N@1@ABIV?$_List_unchecked_const_iterator@V?$_List_val@U?$_List_simple_types@I@std@@@std@@U_Iterator_base0@2@@1@@Z 10016bf0 f i nodejieba.obj
 0001:00015d10       ??4Word@KeywordExtractor@cppjieba@@QAEAAU012@$$QAU012@@Z 10016d10 f i nodejieba.obj
 0001:00015dc0       ??0?$vector@IV?$allocator@I@std@@@std@@QAE@ABV01@@Z 10016dc0 f i nodejieba.obj
 0001:00015e50       ?_Check_size@?$_Hash@V?$_Umap_traits@IPAVTrieNode@cppjieba@@V?$_Uhash_compare@IU?$hash@I@std@@U?$equal_to@I@2@@std@@V?$allocator@U?$pair@$$CBIPAVTrieNode@cppjieba@@@std@@@4@$0A@@std@@@std@@IAEXXZ 10016e50 f i nodejieba.obj
 0001:00015e50       ?_Check_size@?$_Hash@V?$_Umap_traits@INV?$_Uhash_compare@IU?$hash@I@std@@U?$equal_to@I@2@@std@@V?$allocator@U?$pair@$$CBIN@std@@@2@$0A@@std@@@std@@IAEXXZ 10016e50 f i nodejieba.obj
 0001:00015ef0       ??$_Insert@U?$pair@IPAVTrieNode@cppjieba@@@std@@@?$list@U?$pair@$$CBIPAVTrieNode@cppjieba@@@std@@V?$allocator@U?$pair@$$CBIPAVTrieNode@cppjieba@@@std@@@2@@std@@QAEXV?$_List_unchecked_const_iterator@V?$_List_val@U?$_List_simple_types@U?$pair@$$CBIPAVTrieNode@cppjieba@@@std@@@std@@@std@@U_Iterator_base0@2@@1@$$QAU?$pair@IPAVTrieNode@cppjieba@@@1@@Z 10016ef0 f i nodejieba.obj
 0001:00015f70       ??$_Partition_by_median_guess_unchecked@PAUDictUnit@cppjieba@@P6A_NABU12@0@Z@std@@YA?AU?$pair@PAUDictUnit@cppjieba@@PAU12@@0@PAUDictUnit@cppjieba@@0AAP6A_NABU23@1@Z@Z 10016f70 f i nodejieba.obj
 0001:00016510       ??$_Make_heap_unchecked@PAUDictUnit@cppjieba@@P6A_NABU12@0@Z@std@@YAXPAUDictUnit@cppjieba@@0AAP6A_NABU12@1@Z@Z 10017510 f i nodejieba.obj
 0001:000166e0       ??$_Sort_heap_unchecked@PAUDictUnit@cppjieba@@P6A_NABU12@0@Z@std@@YAXPAUDictUnit@cppjieba@@0AAP6A_NABU12@1@Z@Z 100176e0 f i nodejieba.obj
 0001:00016980       ??$_Insertion_sort_unchecked@PAUDictUnit@cppjieba@@P6A_NABU12@0@Z@std@@YAXPAUDictUnit@cppjieba@@0AAP6A_NABU12@1@Z@Z 10017980 f i nodejieba.obj
 0001:00016dd0       ??$_Pop_heap_hole_by_index@PAUWord@KeywordExtractor@cppjieba@@HU123@P6A_NABU123@0@Z@std@@YAXPAUWord@KeywordExtractor@cppjieba@@HH$$QAU123@AAP6A_NABU123@2@Z@Z 10017dd0 f i nodejieba.obj
 0001:00016e90       ??$_Insert_hint@AAU?$pair@$$CBV?$basic_string@DU?$char_traits@D@std@@V?$allocator@D@2@@std@@UWord@KeywordExtractor@cppjieba@@@std@@PAU?$_Tree_node@U?$pair@$$CBV?$basic_string@DU?$char_traits@D@std@@V?$allocator@D@2@@std@@UWord@KeywordExtractor@cppjieba@@@std@@PAX@2@@?$_Tree@V?$_Tmap_traits@V?$basic_string@DU?$char_traits@D@std@@V?$allocator@D@2@@std@@UWord@KeywordExtractor@cppjieba@@U?$less@V?$basic_string@DU?$char_traits@D@std@@V?$allocator@D@2@@std@@@2@V?$allocator@U?$pair@$$CBV?$basic_string@DU?$char_traits@D@std@@V?$allocator@D@2@@std@@UWord@KeywordExtractor@cppjieba@@@std@@@2@$0A@@std@@@std@@IAE?AV?$_Tree_iterator@V?$_Tree_val@U?$_Tree_simple_types@U?$pair@$$CBV?$basic_string@DU?$char_traits@D@std@@V?$allocator@D@2@@std@@UWord@KeywordExtractor@cppjieba@@@std@@@std@@@std@@@1@V?$_Tree_const_iterator@V?$_Tree_val@U?$_Tree_simple_types@U?$pair@$$CBV?$basic_string@DU?$char_traits@D@std@@V?$allocator@D@2@@std@@UWord@KeywordExtractor@cppjieba@@@std@@@std@@@std@@@1@AAU?$pair@$$CBV?$basic_string@DU?$char_traits@D@std@@V?$allocator@D@2@@std@@UWord@KeywordExtractor@cppjieba@@@1@PAU?$_Tree_node@U?$pair@$$CBV?$basic_string@DU?$char_traits@D@std@@V?$allocator@D@2@@std@@UWord@KeywordExtractor@cppjieba@@@std@@PAX@1@@Z 10017e90 f i nodejieba.obj
 0001:00017040       ??$_Insert@AAU?$pair@$$CBV?$basic_string@DU?$char_traits@D@std@@V?$allocator@D@2@@std@@N@std@@V?$_List_unchecked_iterator@V?$_List_val@U?$_List_simple_types@U?$pair@$$CBV?$basic_string@DU?$char_traits@D@std@@V?$allocator@D@2@@std@@N@std@@@std@@@std@@@2@@?$_Hash@V?$_Umap_traits@V?$basic_string@DU?$char_traits@D@std@@V?$allocator@D@2@@std@@NV?$_Uhash_compare@V?$basic_string@DU?$char_traits@D@std@@V?$allocator@D@2@@std@@U?$hash@V?$basic_string@DU?$char_traits@D@std@@V?$allocator@D@2@@std@@@2@U?$equal_to@V?$basic_string@DU?$char_traits@D@std@@V?$allocator@D@2@@std@@@2@@2@V?$allocator@U?$pair@$$CBV?$basic_string@DU?$char_traits@D@std@@V?$allocator@D@2@@std@@N@std@@@2@$0A@@std@@@std@@IAE?AU?$pair@V?$_List_iterator@V?$_List_val@U?$_List_simple_types@U?$pair@$$CBV?$basic_string@DU?$char_traits@D@std@@V?$allocator@D@2@@std@@N@std@@@std@@@std@@@std@@_N@1@AAU?$pair@$$CBV?$basic_string@DU?$char_traits@D@std@@V?$allocator@D@2@@std@@N@1@V?$_List_unchecked_iterator@V?$_List_val@U?$_List_simple_types@U?$pair@$$CBV?$basic_string@DU?$char_traits@D@std@@V?$allocator@D@2@@std@@N@std@@@std@@@std@@@1@@Z 10018040 f i nodejieba.obj
 0001:00017250       ??$_Uninitialized_copy_al_unchecked1@PAUDictUnit@cppjieba@@PAU12@V?$allocator@UDictUnit@cppjieba@@@std@@@std@@YAPAUDictUnit@cppjieba@@PAU12@00AAU?$_Wrap_alloc@V?$allocator@UDictUnit@cppjieba@@@std@@@0@U_General_ptr_iterator_tag@0@U_Any_tag@0@@Z 10018250 f i nodejieba.obj
 0001:00017250       ??$_Uninitialized_copy_al_unchecked1@PBUDictUnit@cppjieba@@PAU12@V?$allocator@UDictUnit@cppjieba@@@std@@@std@@YAPAUDictUnit@cppjieba@@PBU12@0PAU12@AAU?$_Wrap_alloc@V?$allocator@UDictUnit@cppjieba@@@std@@@0@U_General_ptr_iterator_tag@0@U_Any_tag@0@@Z 10018250 f i nodejieba.obj
 0001:00017330       ??$_Uninitialized_move_al_unchecked1@PAUWord@KeywordExtractor@cppjieba@@PAU123@V?$allocator@UWord@KeywordExtractor@cppjieba@@@std@@@std@@YAPAUWord@KeywordExtractor@cppjieba@@PAU123@00AAU?$_Wrap_alloc@V?$allocator@UWord@KeywordExtractor@cppjieba@@@std@@@0@U_General_ptr_iterator_tag@0@U_Any_tag@0@@Z 10018330 f i nodejieba.obj
 0001:000173d0       ??$_Uninitialized_move_al_unchecked1@PAUDictUnit@cppjieba@@PAU12@V?$allocator@UDictUnit@cppjieba@@@std@@@std@@YAPAUDictUnit@cppjieba@@PAU12@00AAU?$_Wrap_alloc@V?$allocator@UDictUnit@cppjieba@@@std@@@0@U_General_ptr_iterator_tag@0@U_Any_tag@0@@Z 100183d0 f i nodejieba.obj
 0001:00017430       ??$_Uninitialized_move_al_unchecked1@PAUDag@cppjieba@@PAU12@V?$allocator@UDag@cppjieba@@@std@@@std@@YAPAUDag@cppjieba@@PAU12@00AAU?$_Wrap_alloc@V?$allocator@UDag@cppjieba@@@std@@@0@U_General_ptr_iterator_tag@0@U_Any_tag@0@@Z 10018430 f i nodejieba.obj
 0001:00017500       ??$_Uninitialized_move_al_unchecked1@PAV?$LocalVector@I@limonp@@PAV12@V?$allocator@V?$LocalVector@I@limonp@@@std@@@std@@YAPAV?$LocalVector@I@limonp@@PAV12@00AAU?$_Wrap_alloc@V?$allocator@V?$LocalVector@I@limonp@@@std@@@0@U_General_ptr_iterator_tag@0@U_Any_tag@0@@Z 10018500 f i nodejieba.obj
 0001:00017550       ??$_Insert@ABV?$basic_string@DU?$char_traits@D@std@@V?$allocator@D@2@@std@@@?$list@V?$basic_string@DU?$char_traits@D@std@@V?$allocator@D@2@@std@@V?$allocator@V?$basic_string@DU?$char_traits@D@std@@V?$allocator@D@2@@std@@@2@@std@@QAEXV?$_List_unchecked_const_iterator@V?$_List_val@U?$_List_simple_types@V?$basic_string@DU?$char_traits@D@std@@V?$allocator@D@2@@std@@@std@@@std@@U_Iterator_base0@2@@1@ABV?$basic_string@DU?$char_traits@D@std@@V?$allocator@D@2@@1@@Z 10018550 f i nodejieba.obj
 0001:00017620       ??4DictUnit@cppjieba@@QAEAAU01@$$QAU01@@Z 10018620 f i nodejieba.obj
 0001:000176a0       ?_Destroy_if_not_nil@?$_Tree@V?$_Tmap_traits@V?$basic_string@DU?$char_traits@D@std@@V?$allocator@D@2@@std@@UWord@KeywordExtractor@cppjieba@@U?$less@V?$basic_string@DU?$char_traits@D@std@@V?$allocator@D@2@@std@@@2@V?$allocator@U?$pair@$$CBV?$basic_string@DU?$char_traits@D@std@@V?$allocator@D@2@@std@@UWord@KeywordExtractor@cppjieba@@@std@@@2@$0A@@std@@@std@@IAEXPAU?$_Tree_node@U?$pair@$$CBV?$basic_string@DU?$char_traits@D@std@@V?$allocator@D@2@@std@@UWord@KeywordExtractor@cppjieba@@@std@@PAX@2@@Z 100186a0 f i nodejieba.obj
 0001:000176f0       ?_Check_size@?$_Hash@V?$_Umap_traits@V?$basic_string@DU?$char_traits@D@std@@V?$allocator@D@2@@std@@NV?$_Uhash_compare@V?$basic_string@DU?$char_traits@D@std@@V?$allocator@D@2@@std@@U?$hash@V?$basic_string@DU?$char_traits@D@std@@V?$allocator@D@2@@std@@@2@U?$equal_to@V?$basic_string@DU?$char_traits@D@std@@V?$allocator@D@2@@std@@@2@@2@V?$allocator@U?$pair@$$CBV?$basic_string@DU?$char_traits@D@std@@V?$allocator@D@2@@std@@N@std@@@2@$0A@@std@@@std@@IAEXXZ 100186f0 f i nodejieba.obj
 0001:00017790       ??F?$_Tree_unchecked_const_iterator@V?$_Tree_val@U?$_Tree_simple_types@U?$pair@$$CBV?$basic_string@DU?$char_traits@D@std@@V?$allocator@D@2@@std@@UWord@KeywordExtractor@cppjieba@@@std@@@std@@@std@@U_Iterator_base0@2@@std@@QAEAAV01@XZ 10018790 f i nodejieba.obj
 0001:000177f0       ??$_Guess_median_unchecked@PAUDictUnit@cppjieba@@P6A_NABU12@0@Z@std@@YAXPAUDictUnit@cppjieba@@00AAP6A_NABU12@1@Z@Z 100187f0 f i nodejieba.obj
 0001:000179e0       ??$_Pop_heap_hole_by_index@PAUDictUnit@cppjieba@@HU12@P6A_NABU12@0@Z@std@@YAXPAUDictUnit@cppjieba@@HH$$QAU12@AAP6A_NABU12@2@Z@Z 100189e0 f i nodejieba.obj
 0001:00017b80       ??$_Push_heap_by_index@PAUWord@KeywordExtractor@cppjieba@@HU123@P6A_NABU123@0@Z@std@@YAXPAUWord@KeywordExtractor@cppjieba@@HH$$QAU123@AAP6A_NABU123@2@Z@Z 10018b80 f i nodejieba.obj
 0001:00017d20       ??$_Insert_at@AAU?$pair@$$CBV?$basic_string@DU?$char_traits@D@std@@V?$allocator@D@2@@std@@UWord@KeywordExtractor@cppjieba@@@std@@PAU?$_Tree_node@U?$pair@$$CBV?$basic_string@DU?$char_traits@D@std@@V?$allocator@D@2@@std@@UWord@KeywordExtractor@cppjieba@@@std@@PAX@2@@?$_Tree@V?$_Tmap_traits@V?$basic_string@DU?$char_traits@D@std@@V?$allocator@D@2@@std@@UWord@KeywordExtractor@cppjieba@@U?$less@V?$basic_string@DU?$char_traits@D@std@@V?$allocator@D@2@@std@@@2@V?$allocator@U?$pair@$$CBV?$basic_string@DU?$char_traits@D@std@@V?$allocator@D@2@@std@@UWord@KeywordExtractor@cppjieba@@@std@@@2@$0A@@std@@@std@@IAE?AV?$_Tree_iterator@V?$_Tree_val@U?$_Tree_simple_types@U?$pair@$$CBV?$basic_string@DU?$char_traits@D@std@@V?$allocator@D@2@@std@@UWord@KeywordExtractor@cppjieba@@@std@@@std@@@std@@@1@_NPAU?$_Tree_node@U?$pair@$$CBV?$basic_string@DU?$char_traits@D@std@@V?$allocator@D@2@@std@@UWord@KeywordExtractor@cppjieba@@@std@@PAX@1@AAU?$pair@$$CBV?$basic_string@DU?$char_traits@D@std@@V?$allocator@D@2@@std@@UWord@KeywordExtractor@cppjieba@@@1@1@Z 10018d20 f i nodejieba.obj
 0001:00017f30       ??$_Insert_nohint@AAU?$pair@$$CBV?$basic_string@DU?$char_traits@D@std@@V?$allocator@D@2@@std@@UWord@KeywordExtractor@cppjieba@@@std@@PAU?$_Tree_node@U?$pair@$$CBV?$basic_string@DU?$char_traits@D@std@@V?$allocator@D@2@@std@@UWord@KeywordExtractor@cppjieba@@@std@@PAX@2@@?$_Tree@V?$_Tmap_traits@V?$basic_string@DU?$char_traits@D@std@@V?$allocator@D@2@@std@@UWord@KeywordExtractor@cppjieba@@U?$less@V?$basic_string@DU?$char_traits@D@std@@V?$allocator@D@2@@std@@@2@V?$allocator@U?$pair@$$CBV?$basic_string@DU?$char_traits@D@std@@V?$allocator@D@2@@std@@UWord@KeywordExtractor@cppjieba@@@std@@@2@$0A@@std@@@std@@IAE?AU?$pair@V?$_Tree_iterator@V?$_Tree_val@U?$_Tree_simple_types@U?$pair@$$CBV?$basic_string@DU?$char_traits@D@std@@V?$allocator@D@2@@std@@UWord@KeywordExtractor@cppjieba@@@std@@@std@@@std@@@std@@_N@1@_NAAU?$pair@$$CBV?$basic_string@DU?$char_traits@D@std@@V?$allocator@D@2@@std@@UWord@KeywordExtractor@cppjieba@@@1@PAU?$_Tree_node@U?$pair@$$CBV?$basic_string@DU?$char_traits@D@std@@V?$allocator@D@2@@std@@UWord@KeywordExtractor@cppjieba@@@std@@PAX@1@@Z 10018f30 f i nodejieba.obj
 0001:000180c0       ??$_Insert@ABUpiecewise_construct_t@std@@V?$tuple@ABI@2@V?$tuple@$$V@2@@?$list@U?$pair@$$CBIN@std@@V?$allocator@U?$pair@$$CBIN@std@@@2@@std@@QAEXV?$_List_unchecked_const_iterator@V?$_List_val@U?$_List_simple_types@U?$pair@$$CBIN@std@@@std@@@std@@U_Iterator_base0@2@@1@ABUpiecewise_construct_t@1@$$QAV?$tuple@ABI@1@$$QAV?$tuple@$$V@1@@Z 100190c0 f i nodejieba.obj
 0001:00018140       ??$swap@UDictUnit@cppjieba@@X@std@@YAXAAUDictUnit@cppjieba@@0@Z 10019140 f i nodejieba.obj
 0001:00018210       ??$_Push_heap_by_index@PAUDictUnit@cppjieba@@HU12@P6A_NABU12@0@Z@std@@YAXPAUDictUnit@cppjieba@@HH$$QAU12@AAP6A_NABU12@2@Z@Z 10019210 f i nodejieba.obj
 0001:000183e0       ??$_Move_backward_unchecked1@PAUDictUnit@cppjieba@@PAU12@@std@@YAPAUDictUnit@cppjieba@@PAU12@00U_General_ptr_iterator_tag@0@@Z 100193e0 f i nodejieba.obj
 0001:00018520       ??4?$LocalVector@U?$pair@IPBUDictUnit@cppjieba@@@std@@@limonp@@QAEAAV01@ABV01@@Z 10019520 f i nodejieba.obj
 0001:000185eb       ??_E?$basic_ostream@DU?$char_traits@D@std@@@std@@$4PPPPPPPM@A@AEPAXI@Z 100195eb f i nodejieba.obj
 0001:000185f3       ??_E?$basic_ifstream@DU?$char_traits@D@std@@@std@@$4PPPPPPPM@A@AEPAXI@Z 100195f3 f i nodejieba.obj
 0001:000185fb       ??_E?$basic_istream@DU?$char_traits@D@std@@@std@@$4PPPPPPPM@A@AEPAXI@Z 100195fb f i nodejieba.obj
 0001:00018603       ??_E?$basic_ostringstream@DU?$char_traits@D@std@@V?$allocator@D@2@@std@@$4PPPPPPPM@A@AEPAXI@Z 10019603 f i nodejieba.obj
 0001:0001865b       __imp_load_?Value@External@v8@@QBEPAXXZ 1001965b f   node:node.exe
 0001:00018665       __tailMerge_node_exe       10019665 f i node:node.exe
 0001:00018676       __imp_load_?New@External@v8@@SA?AV?$Local@VExternal@v8@@@2@PAVIsolate@2@PAX@Z 10019676 f   node:node.exe
 0001:00018680       __imp_load_?GetCurrentContext@Isolate@v8@@QAE?AV?$Local@VContext@v8@@@2@XZ 10019680 f   node:node.exe
 0001:0001868a       __imp_load_?GetCurrent@Isolate@v8@@SAPAV12@XZ 1001968a f   node:node.exe
 0001:00018694       __imp_load_?CreateHandle@HandleScope@v8@@KAPAPAVObject@internal@2@PAVIsolate@42@PAV342@@Z 10019694 f   node:node.exe
 0001:0001869e       __imp_load_?CreateHandle@HandleScope@v8@@CAPAPAVObject@internal@2@PAVHeapObject@42@PAV342@@Z 1001969e f   node:node.exe
 0001:000186a8       __imp_load_??1HandleScope@v8@@QAE@XZ 100196a8 f   node:node.exe
 0001:000186b2       __imp_load_?GetFunction@FunctionTemplate@v8@@QAE?AV?$Local@VFunction@v8@@@2@XZ 100196b2 f   node:node.exe
 0001:000186bc       __imp_load_?New@FunctionTemplate@v8@@SA?AV?$Local@VFunctionTemplate@v8@@@2@PAVIsolate@2@P6AXABV?$FunctionCallbackInfo@VValue@v8@@@2@@ZV?$Local@VValue@v8@@@2@V?$Local@VSignature@v8@@@2@H@Z 100196bc f   node:node.exe
 0001:000186c6       __imp_load_?ToLocalEmpty@V8@v8@@CAXXZ 100196c6 f   node:node.exe
 0001:000186d0       __imp_load_?Escape@EscapableHandleScope@v8@@AAEPAPAVObject@internal@2@PAPAV342@@Z 100196d0 f   node:node.exe
 0001:000186da       __imp_load_??0EscapableHandleScope@v8@@QAE@PAVIsolate@1@@Z 100196da f   node:node.exe
 0001:000186e4       __imp_load_?NewFromUtf8@String@v8@@SA?AV?$MaybeLocal@VString@v8@@@2@PAVIsolate@2@PBDW4NewStringType@2@H@Z 100196e4 f   node:node.exe
 0001:000186ee       __imp_load_?SlowGetInternalField@Object@v8@@AAE?AV?$Local@VValue@v8@@@2@H@Z 100196ee f   node:node.exe
 0001:000186f8       __imp_load_?SetInternalField@Object@v8@@QAEXHV?$Local@VValue@v8@@@2@@Z 100196f8 f   node:node.exe
 0001:00018702       __imp_load_?Set@Object@v8@@QAE_NV?$Local@VValue@v8@@@2@0@Z 10019702 f   node:node.exe
 0001:0001870c       __imp_load_?SetInternalFieldCount@ObjectTemplate@v8@@QAEXH@Z 1001970c f   node:node.exe
 0001:00018716       __imp_load_?NewInstance@ObjectTemplate@v8@@QAE?AV?$MaybeLocal@VObject@v8@@@2@V?$Local@VContext@v8@@@2@@Z 10019716 f   node:node.exe
 0001:00018720       __imp_load_?New@ObjectTemplate@v8@@SA?AV?$Local@VObjectTemplate@v8@@@2@PAVIsolate@2@V?$Local@VFunctionTemplate@v8@@@2@@Z 10019720 f   node:node.exe
 0001:0001872a       __imp_load__node_module_register 1001972a f   node:node.exe
 0001:00018734       __imp_load_??1EscapableHandleScope@v8@@QAE@XZ 10019734 f   node:node.exe
 0001:0001873e       __imp_load_?New@Array@v8@@SA?AV?$Local@VArray@v8@@@2@PAVIsolate@2@H@Z 1001973e f   node:node.exe
 0001:00018748       __imp_load_?Int32Value@Value@v8@@QBEHXZ 10019748 f   node:node.exe
 0001:00018752       __imp_load_?IntegerValue@Value@v8@@QBE_JXZ 10019752 f   node:node.exe
 0001:0001875c       __imp_load_??1Utf8Value@String@v8@@QAE@XZ 1001975c f   node:node.exe
 0001:00018766       __imp_load_??0Utf8Value@String@v8@@QAE@V?$Local@VValue@v8@@@2@@Z 10019766 f   node:node.exe
 0001:00018770       __imp_load_?New@Number@v8@@SA?AV?$Local@VNumber@v8@@@2@PAVIsolate@2@N@Z 10019770 f   node:node.exe
 0001:0001877a       __imp_load_?New@Object@v8@@SA?AV?$Local@VObject@v8@@@2@PAVIsolate@2@@Z 1001977a f   node:node.exe
 0001:00018784       __imp_load_?Set@Object@v8@@QAE_NIV?$Local@VValue@v8@@@2@@Z 10019784 f   node:node.exe
 0001:0001878e       __imp_load_?ToString@Value@v8@@QBE?AV?$Local@VString@v8@@@2@XZ 1001978e f   node:node.exe
 0001:00018798       __imp_load_?ToBoolean@Value@v8@@QBE?AV?$Local@VBoolean@v8@@@2@XZ 10019798 f   node:node.exe
 0001:000187a2       ??0_Init_locks@std@@QAE@XZ 100197a2 f   libcpmt:xlock.obj
 0001:000187cf       ??0_Lockit@std@@QAE@H@Z    100197cf f   libcpmt:xlock.obj
 0001:00018800       ??1_Init_locks@std@@QAE@XZ 10019800 f   libcpmt:xlock.obj
 0001:00018827       ??1_Lockit@std@@QAE@XZ     10019827 f   libcpmt:xlock.obj
 0001:00018846       ??0_Locimp@locale@std@@AAE@_N@Z 10019846 f i libcpmt:locale0.obj
 0001:00018889       ??1_Fac_node@std@@QAE@XZ   10019889 f i libcpmt:locale0.obj
 0001:000188e8       ??1_Fac_tidy_reg_t@std@@QAE@XZ 100198e8 f i libcpmt:locale0.obj
 0001:0001890f       ??1_Locimp@locale@std@@MAE@XZ 1001990f f i libcpmt:locale0.obj
 0001:0001896a       ??4?$_Yarn@D@std@@QAEAAV01@PBD@Z 1001996a f i libcpmt:locale0.obj
 0001:000189be       ??_G_Locimp@locale@std@@MAEPAXI@Z 100199be f i libcpmt:locale0.obj
 0001:000189be       ??_E_Locimp@locale@std@@MAEPAXI@Z 100199be f i libcpmt:locale0.obj
 0001:000189e0       ?_Facet_Register@std@@YAXPAV_Facet_base@1@@Z 100199e0 f   libcpmt:locale0.obj
 0001:00018a0e       ?_Getgloballocale@locale@std@@CAPAV_Locimp@12@XZ 10019a0e f   libcpmt:locale0.obj
 0001:00018a14       ?_Init@locale@std@@CAPAV_Locimp@12@_N@Z 10019a14 f   libcpmt:locale0.obj
 0001:00018aa2       ?_Locimp_dtor@_Locimp@locale@std@@CAXPAV123@@Z 10019aa2 f   libcpmt:locale0.obj
 0001:00018b17       ?_Locinfo_ctor@_Locinfo@std@@SAXPAV12@PBD@Z 10019b17 f   libcpmt:locale0.obj
 0001:00018b62       ?_Locinfo_dtor@_Locinfo@std@@SAXPAV12@@Z 10019b62 f   libcpmt:locale0.obj
 0001:00018b84       ?_New_Locimp@_Locimp@locale@std@@CAPAV123@_N@Z 10019b84 f   libcpmt:locale0.obj
 0001:00018ba9       ?_Setgloballocale@locale@std@@CAXPAX@Z 10019ba9 f   libcpmt:locale0.obj
 0001:00018bd1       __Deletegloballocale       10019bd1 f   libcpmt:locale0.obj
 0001:00018c36       ??0bad_alloc@std@@QAE@ABV01@@Z 10019c36 f i libcpmt:xthrow.obj
 0001:00018c51       ??0bad_alloc@std@@QAE@XZ   10019c51 f i libcpmt:xthrow.obj
 0001:00018c69       ??0exception@std@@QAE@ABV01@@Z 10019c69 f i libcpmt:xthrow.obj
 0001:00018c95       ??0exception@std@@QAE@QBD@Z 10019c95 f i libcpmt:xthrow.obj
 0001:00018ccc       ??0length_error@std@@QAE@ABV01@@Z 10019ccc f i libcpmt:xthrow.obj
 0001:00018ce7       ??0length_error@std@@QAE@PBD@Z 10019ce7 f i libcpmt:xthrow.obj
 0001:00018d08       ??0logic_error@std@@QAE@ABV01@@Z 10019d08 f i libcpmt:xthrow.obj
 0001:00018d23       ??0out_of_range@std@@QAE@ABV01@@Z 10019d23 f i libcpmt:xthrow.obj
 0001:00018d3e       ??0out_of_range@std@@QAE@PBD@Z 10019d3e f i libcpmt:xthrow.obj
 0001:00018d5f       ??1bad_array_new_length@std@@UAE@XZ 10019d5f f i LIBCMT:throw_bad_alloc.obj
 0001:00018d5f       ??1bad_alloc@std@@UAE@XZ   10019d5f f i libcpmt:xthrow.obj
 0001:00018d5f       ??1length_error@std@@UAE@XZ 10019d5f f i libcpmt:xthrow.obj
 0001:00018d5f       ??1bad_exception@std@@UAE@XZ 10019d5f f i libvcruntime:frame.obj
 0001:00018d5f       ??1out_of_range@std@@UAE@XZ 10019d5f f i libcpmt:xthrow.obj
 0001:00018d70       ??_Glogic_error@std@@UAEPAXI@Z 10019d70 f i libcpmt:xthrow.obj
 0001:00018d70       ??_Glength_error@std@@UAEPAXI@Z 10019d70 f i libcpmt:xthrow.obj
 0001:00018d70       ??_Gbad_exception@std@@UAEPAXI@Z 10019d70 f i libvcruntime:frame.obj
 0001:00018d70       ??_Ebad_array_new_length@std@@UAEPAXI@Z 10019d70 f i LIBCMT:throw_bad_alloc.obj
 0001:00018d70       ??_Elogic_error@std@@UAEPAXI@Z 10019d70 f i libcpmt:xthrow.obj
 0001:00018d70       ??_Gout_of_range@std@@UAEPAXI@Z 10019d70 f i libcpmt:xthrow.obj
 0001:00018d70       ??_Elength_error@std@@UAEPAXI@Z 10019d70 f i libcpmt:xthrow.obj
 0001:00018d70       ??_Ebad_alloc@std@@UAEPAXI@Z 10019d70 f i libcpmt:xthrow.obj
 0001:00018d70       ??_Gbad_array_new_length@std@@UAEPAXI@Z 10019d70 f i LIBCMT:throw_bad_alloc.obj
 0001:00018d70       ??_Eexception@std@@UAEPAXI@Z 10019d70 f i libcpmt:xthrow.obj
 0001:00018d70       ??_Gbad_alloc@std@@UAEPAXI@Z 10019d70 f i libcpmt:xthrow.obj
 0001:00018d70       ??_Ebad_exception@std@@UAEPAXI@Z 10019d70 f i libvcruntime:frame.obj
 0001:00018d70       ??_Eout_of_range@std@@UAEPAXI@Z 10019d70 f i libcpmt:xthrow.obj
 0001:00018d70       ??_Gexception@std@@UAEPAXI@Z 10019d70 f i libcpmt:xthrow.obj
 0001:00018d9d       ?__scrt_throw_std_bad_alloc@@YAXXZ 10019d9d f   LIBCMT:throw_bad_alloc.obj
 0001:00018d9d       ?_Xbad_alloc@std@@YAXXZ    10019d9d f   libcpmt:xthrow.obj
 0001:00018dba       ?_Xlength_error@std@@YAXPBD@Z 10019dba f   libcpmt:xthrow.obj
 0001:00018dda       ?_Xout_of_range@std@@YAXPBD@Z 10019dda f   libcpmt:xthrow.obj
 0001:00018dfa       ?what@exception@std@@UBEPBDXZ 10019dfa f i libcpmt:xthrow.obj
 0001:00018e07       ?_Addstd@ios_base@std@@SAXPAV12@@Z 10019e07 f   libcpmt:ios.obj
 0001:00018e58       ?_Callfns@ios_base@std@@AAEXW4event@12@@Z 10019e58 f i libcpmt:ios.obj
 0001:00018e8a       ?_Ios_base_dtor@ios_base@std@@CAXPAV12@@Z 10019e8a f   libcpmt:ios.obj
 0001:00018eca       ?_Tidy@ios_base@std@@AAEXXZ 10019eca f i libcpmt:ios.obj
 0001:00018f12       ??0_Init_cerr@std@@QAE@XZ  10019f12 f i libcpmt:cerr.obj
 0001:00018f42       ??$_Xfiopen@D@std@@YAPAU_iobuf@@PBDHH@Z 10019f42 f i libcpmt:fiopen.obj
 0001:00018fe4       ?_Fiopen@std@@YAPAU_iobuf@@PBDHH@Z 10019fe4 f   libcpmt:fiopen.obj
 0001:00018fed       ?_Xfsopen@std@@YAPAU_iobuf@@PBDHH@Z 10019fed f   libcpmt:fiopen.obj
 0001:0001900a       ?_Syserror_map@std@@YAPBDH@Z 1001a00a f   libcpmt:syserror.obj
 0001:0001902f       __Getctype                 1001a02f f   libcpmt:_tolower.obj
 0001:0001909a       __Tolower                  1001a09a f   libcpmt:_tolower.obj
 0001:00019194       __Getcvt                   1001a194 f   libcpmt:xwctomb.obj
 0001:00019201       __Toupper                  1001a201 f   libcpmt:_toupper.obj
 0001:000192fb       __Mtxdst                   1001a2fb f   libcpmt:xmtx.obj
 0001:00019309       __Mtxinit                  1001a309 f   libcpmt:xmtx.obj
 0001:00019320       __Mtxlock                  1001a320 f   libcpmt:xmtx.obj
 0001:0001932e       __Mtxunlock                1001a32e f   libcpmt:xmtx.obj
 0001:0001933c       ??1_Init_atexit@@QAE@XZ    1001a33c f i libcpmt:iosptrs.obj
 0001:000193a0       ?_Atexit@@YAXP6AXXZ@Z      1001a3a0 f   libcpmt:iosptrs.obj
 0001:000193ce       ___crtLCMapStringA         1001a3ce f   libcpmt:StlLCMapStringA.obj
 0001:000195d1       __freea_crt                1001a5d1 f i libcpmt:StlLCMapStringA.obj
 0001:00019999       ___crtInitializeCriticalSectionEx 1001a999 f   libcpmt:winapisupp.obj
 0001:000199d1       _GetTableIndexFromLocaleName 1001a9d1 f   libcpmt:winapinls.obj
 0001:00019a1f       ___crtDownlevelLocaleNameToLCID 1001aa1f f   libcpmt:winapinls.obj
 0001:00019a49       ___crtLCMapStringEx        1001aa49 f   libcpmt:winapinls.obj
 0001:00019a9f       ___wcsnicmp_ascii          1001aa9f f   libcpmt:winapinls.obj
 0001:00019b12       @__security_check_cookie@4 1001ab12 f   LIBCMT:_secchk_.obj
 0001:00019b23       ??_V@YAXPAX@Z              1001ab23 f   LIBCMT:delete_array.obj
 0001:00019c04       __Init_thread_footer       1001ac04 f   LIBCMT:thread_safe_statics.obj
 0001:00019c43       __Init_thread_header       1001ac43 f   LIBCMT:thread_safe_statics.obj
 0001:00019c89       __Init_thread_lock         1001ac89 f   LIBCMT:thread_safe_statics.obj
 0001:00019c95       __Init_thread_notify       1001ac95 f   LIBCMT:thread_safe_statics.obj
 0001:00019cd6       __Init_thread_unlock       1001acd6 f   LIBCMT:thread_safe_statics.obj
 0001:00019ce2       __Init_thread_wait         1001ace2 f   LIBCMT:thread_safe_statics.obj
 0001:00019d47       ??2@YAPAXI@Z               1001ad47 f   LIBCMT:new_scalar.obj
 0001:00019d7a       ??$__crt_fast_encode_pointer@P6GHPAU_RTL_CONDITION_VARIABLE@@PAU_RTL_CRITICAL_SECTION@@K@Z@@YAP6GHPAU_RTL_CONDITION_VARIABLE@@PAU_RTL_CRITICAL_SECTION@@K@ZQ6GH01K@Z@Z 1001ad7a f i LIBCMT:thread_safe_statics.obj
 0001:00019d7a       ??$__crt_fast_encode_pointer@P6GXPAU_RTL_CONDITION_VARIABLE@@@Z@@YAP6GXPAU_RTL_CONDITION_VARIABLE@@@ZQ6GX0@Z@Z 1001ad7a f i LIBCMT:thread_safe_statics.obj
 0001:00019d7a       ??$__crt_fast_encode_pointer@PAX@@YAPAXQAX@Z 1001ad7a f i libvcruntime:winapi_downlevel.obj
 0001:00019d7a       ??$__crt_fast_encode_pointer@PAP6AXXZ@@YAPAP6AXXZQAP6AXXZ@Z 1001ad7a f i LIBCMT:utility.obj
 0001:00019ddb       ___scrt_acquire_startup_lock 1001addb f   LIBCMT:utility.obj
 0001:00019e10       ___scrt_dllmain_after_initialize_c 1001ae10 f   LIBCMT:utility.obj
 0001:00019e3b       ___scrt_dllmain_before_initialize_c 1001ae3b f   LIBCMT:utility.obj
 0001:00019e49       ___scrt_dllmain_crt_thread_attach 1001ae49 f   LIBCMT:utility.obj
 0001:00019e68       ___scrt_dllmain_crt_thread_detach 1001ae68 f   LIBCMT:utility.obj
 0001:00019e75       ___scrt_dllmain_exception_filter 1001ae75 f   LIBCMT:utility.obj
 0001:00019ea8       ___scrt_dllmain_uninitialize_c 1001aea8 f   LIBCMT:utility.obj
 0001:00019ecb       ___scrt_dllmain_uninitialize_critical 1001aecb f   LIBCMT:utility.obj
 0001:00019ed8       ___scrt_initialize_crt     1001aed8 f   LIBCMT:utility.obj
 0001:00019f11       ___scrt_initialize_onexit_tables 1001af11 f   LIBCMT:utility.obj
 0001:00019fa8       ___scrt_is_nonwritable_in_current_image 1001afa8 f   LIBCMT:utility.obj
 0001:0001a032       ___scrt_release_startup_lock 1001b032 f   LIBCMT:utility.obj
 0001:0001a04f       ___scrt_uninitialize_crt   1001b04f f   LIBCMT:utility.obj
 0001:0001a077       __onexit                   1001b077 f   LIBCMT:utility.obj
 0001:0001a0b2       _atexit                    1001b0b2 f   LIBCMT:utility.obj
 0001:0001a0c7       ??3@YAXPAX@Z               1001b0c7 f   LIBCMT:delete_scalar.obj
 0001:0001a0cc       ??3@YAXPAXI@Z              1001b0cc f   LIBCMT:delete_scalar_size.obj
 0001:0001a3e2       __DllMainCRTStartup@12     1001b3e2 f   LIBCMT:dll_dllmain.obj
 0001:0001a405       @_guard_check_icall@4      1001b405 f i LIBCMT:checkcfg.obj
 0001:0001a40b       __EH_epilog3               1001b40b f   LIBCMT:ehprolg3.obj
 0001:0001a420       __EH_prolog3               1001b420 f   LIBCMT:ehprolg3.obj
 0001:0001a454       __EH_prolog3_catch         1001b454 f   LIBCMT:ehprolg3.obj
 0001:0001a48b       ??_Etype_info@@UAEPAXI@Z   1001b48b f i LIBCMT:std_type_info_static.obj
 0001:0001a48b       ??_Gtype_info@@UAEPAXI@Z   1001b48b f i LIBCMT:std_type_info_static.obj
 0001:0001a4b0       __alloca_probe_16          1001b4b0 f   LIBCMT:alloca16.obj
 0001:0001a4c6       __alloca_probe_8           1001b4c6     LIBCMT:alloca16.obj
 0001:0001a4e0       __allmul                   1001b4e0 f   LIBCMT:llmul.obj
 0001:0001a520       __aulldiv                  1001b520 f   LIBCMT:ulldiv.obj
 0001:0001a588       ___raise_securityfailure   1001b588 f   LIBCMT:gs_report.obj
 0001:0001a5b0       ___report_gsfailure        1001b5b0 f   LIBCMT:gs_report.obj
 0001:0001a6ab       ___report_rangecheckfailure 1001b6ab f   LIBCMT:gs_report.obj
 0001:0001a6b7       ___report_securityfailure  1001b6b7 f   LIBCMT:gs_report.obj
 0001:0001a787       ___scrt_fastfail           1001b787 f   LIBCMT:utility_desktop.obj
 0001:0001a8a2       __crt_debugger_hook        1001b8a2 f   LIBCMT:utility_desktop.obj
 0001:0001a8aa       ??0bad_array_new_length@std@@QAE@ABV01@@Z 1001b8aa f i LIBCMT:throw_bad_alloc.obj
 0001:0001a8c5       ??0bad_array_new_length@std@@QAE@XZ 1001b8c5 f i LIBCMT:throw_bad_alloc.obj
 0001:0001a8dd       ?__scrt_throw_std_bad_array_new_length@@YAXXZ 1001b8dd f   LIBCMT:throw_bad_alloc.obj
 0001:0001a8fa       ___isa_available_init      1001b8fa f   LIBCMT:_cpu_disp_.obj
 0001:0001aa94       __get_startup_argv_mode    1001ba94 f   LIBCMT:argv_mode.obj
 0001:0001aa98       ___scrt_is_ucrt_dll_in_use 1001ba98 f   LIBCMT:ucrt_detection.obj
 0001:0001aab0       __SEH_prolog4              1001bab0 f   LIBCMT:_sehprolg4_.obj
 0001:0001aaf6       __SEH_epilog4              1001baf6 f   LIBCMT:_sehprolg4_.obj
 0001:0001ab0b       ___security_init_cookie    1001bb0b f   LIBCMT:gs_support.obj
 0001:0001aba7       _DllMain@12                1001bba7 f   LIBCMT:dll_dllmain_stub.obj
 0001:0001abad       ?__scrt_initialize_type_info@@YAXXZ 1001bbad f   LIBCMT:tncleanup.obj
 0001:0001abb9       ?__scrt_uninitialize_type_info@@YAXXZ 1001bbb9 f   LIBCMT:tncleanup.obj
 0001:0001abc5       ___local_stdio_scanf_options 1001bbc5 f i LIBCMT:default_local_stdio_options.obj
 0001:0001abcb       ___scrt_initialize_default_local_stdio_options 1001bbcb f   LIBCMT:default_local_stdio_options.obj
 0001:0001abe8       ___scrt_get_dyn_tls_init_callback 1001bbe8 f   LIBCMT:dyn_tls_init.obj
 0001:0001abee       __RTC_Initialize           1001bbee f   LIBCMT:_initsect_.obj
 0001:0001ac19       __RTC_Terminate            1001bc19 f   LIBCMT:_initsect_.obj
 0001:0001ac50       __alloca_probe             1001bc50 f   LIBCMT:chkstk.obj
 0001:0001ac50       __chkstk                   1001bc50 f   LIBCMT:chkstk.obj
 0001:0001ac7d       ___DestructExceptionObject 1001bc7d f   libvcruntime:frame.obj
 0001:0001ad11       ??0bad_exception@std@@QAE@ABV01@@Z 1001bd11 f i libvcruntime:frame.obj
 0001:0001ad2c       ??0bad_exception@std@@QAE@XZ 1001bd2c f i libvcruntime:frame.obj
 0001:0001b55d       ?_CallMemberFunction1@@YGXQAX00@Z 1001c55d f i libvcruntime:frame.obj
 0001:0001b55d       ?_CallMemberFunction2@@YGXQAX00H@Z 1001c55d f i libvcruntime:frame.obj
 0001:0001b55d       ?_CallMemberFunction0@@YGXQAX0@Z 1001c55d f i libvcruntime:frame.obj
 0001:0001b564       ___AdjustPointer           1001c564 f   libvcruntime:frame.obj
 0001:0001b589       ___BuildCatchObject        1001c589 f   libvcruntime:frame.obj
 0001:0001b618       ___BuildCatchObjectHelper  1001c618 f   libvcruntime:frame.obj
 0001:0001b746       ___FrameUnwindFilter       1001c746 f   libvcruntime:frame.obj
 0001:0001b78b       ___FrameUnwindToState      1001c78b f   libvcruntime:frame.obj
 0001:0001b853       ___InternalCxxFrameHandler 1001c853 f   libvcruntime:frame.obj
 0001:0001b94f       ___TypeMatch               1001c94f f   libvcruntime:frame.obj
 0001:0001b9dd       ___std_terminate           1001c9dd f   libvcruntime:frame.obj
 0001:0001b9f0       _memmove                   1001c9f0 f   libvcruntime:memmove.obj
 0001:0001bf64       __get_purecall_handler     1001cf64 f   libvcruntime:purevirt.obj
 0001:0001bf83       __purecall                 1001cf83 f   libvcruntime:purevirt.obj
 0001:0001bfa0       _memchr                    1001cfa0 f   libvcruntime:memchr.obj
 0001:0001c04d       ?_CallCatchBlock2@@YAPAXPAUEHRegistrationNode@@PBU_s_FuncInfo@@PAXHK@Z 1001d04d f   libvcruntime:trnsctrl.obj
 0001:0001c0ad       ?_CallSETranslator@@YAHPAUEHExceptionRecord@@PAUEHRegistrationNode@@PAX2PBU_s_FuncInfo@@H1@Z 1001d0ad f   libvcruntime:trnsctrl.obj
 0001:0001c18a       ?_GetRangeOfTrysToCheck@@YAPBU_s_TryBlockMapEntry@@PBU_s_FuncInfo@@HHPAI1@Z 1001d18a f   libvcruntime:trnsctrl.obj
 0001:0001c202       ?_JumpToContinuation@@YGXPAXPAUEHRegistrationNode@@@Z 1001d202 f   libvcruntime:trnsctrl.obj
 0001:0001c234       ?_UnwindNestedFrames@@YGXPAUEHRegistrationNode@@PAUEHExceptionRecord@@@Z 1001d234 f   libvcruntime:trnsctrl.obj
 0001:0001c289       __CatchGuardHandler        1001d289 f   libvcruntime:trnsctrl.obj
 0001:0001c2ba       __CreateFrameInfo          1001d2ba f   libvcruntime:trnsctrl.obj
 0001:0001c2de       __FindAndUnlinkFrame       1001d2de f   libvcruntime:trnsctrl.obj
 0001:0001c328       __IsExceptionObjectToBeDestroyed 1001d328 f   libvcruntime:trnsctrl.obj
 0001:0001c34e       __TranslatorGuardHandler   1001d34e f   libvcruntime:trnsctrl.obj
 0001:0001c3ed       ___CxxFrameHandler3        1001d3ed f   libvcruntime:trnsctrl.obj
 0001:0001c430       _memcpy                    1001d430 f   libvcruntime:memcpy.obj
 0001:0001c9a4       ___std_exception_copy      1001d9a4 f   libvcruntime:std_exception.obj
 0001:0001ca07       ___std_exception_destroy   1001da07 f   libvcruntime:std_exception.obj
 0001:0001ca26       __CxxThrowException@8      1001da26 f   libvcruntime:throw.obj
 0001:0001caa0       _memset                    1001daa0 f   libvcruntime:memset.obj
 0001:0001cbfa       _memcmp                    1001dbfa f   libvcruntime:_memcmp_.obj
 0001:0001e49b       ___vcrt_FlsAlloc           1001f49b f   libvcruntime:winapi_downlevel.obj
 0001:0001e4d5       ___vcrt_FlsFree            1001f4d5 f   libvcruntime:winapi_downlevel.obj
 0001:0001e50f       ___vcrt_FlsGetValue        1001f50f f   libvcruntime:winapi_downlevel.obj
 0001:0001e549       ___vcrt_FlsSetValue        1001f549 f   libvcruntime:winapi_downlevel.obj
 0001:0001e586       ___vcrt_InitializeCriticalSectionEx 1001f586 f   libvcruntime:winapi_downlevel.obj
 0001:0001e5cc       ___vcrt_initialize_winapi_thunks 1001f5cc f   libvcruntime:winapi_downlevel.obj
 0001:0001e606       ___vcrt_uninitialize_winapi_thunks 1001f606 f   libvcruntime:winapi_downlevel.obj
 0001:0001e638       ___vcrt_initialize         1001f638 f   libvcruntime:initialization.obj
 0001:0001e661       ___vcrt_thread_attach      1001f661 f   libvcruntime:initialization.obj
 0001:0001e66c       ___vcrt_thread_detach      1001f66c f   libvcruntime:initialization.obj
 0001:0001e677       ___vcrt_uninitialize       1001f677 f   libvcruntime:initialization.obj
 0001:0001e696       ___vcrt_uninitialize_critical 1001f696 f   libvcruntime:initialization.obj
 0001:0001e6e0       __except_handler4          1001f6e0 f   libvcruntime:_chandler4_.obj
 0001:0001e846       ___std_type_info_compare   1001f846 f   libvcruntime:std_type_info.obj
 0001:0001e882       ___std_type_info_destroy_list 1001f882 f   libvcruntime:std_type_info.obj
 0001:0001e8a5       _unexpected                1001f8a5 f   libvcruntime:unexpected.obj
 0001:0001e8c1       ___vcrt_freefls@4          1001f8c1 f   libvcruntime:per_thread_data.obj
 0001:0001e8dd       ___vcrt_freeptd            1001f8dd f   libvcruntime:per_thread_data.obj
 0001:0001e913       ___vcrt_getptd             1001f913 f   libvcruntime:per_thread_data.obj
 0001:0001e921       ___vcrt_getptd_noexit      1001f921 f   libvcruntime:per_thread_data.obj
 0001:0001e9b3       ___vcrt_initialize_ptd     1001f9b3 f   libvcruntime:per_thread_data.obj
 0001:0001e9e6       ___vcrt_uninitialize_ptd   1001f9e6 f   libvcruntime:per_thread_data.obj
 0001:0001ea10       __CallSettingFrame@12      1001fa10 f   libvcruntime:lowhelpr.obj
 0001:0001ea37       __NLG_Return               1001fa37     libvcruntime:lowhelpr.obj
 0001:0001ea5c       ___vcrt_initialize_pure_virtual_call_handler 1001fa5c f   libvcruntime:purevirt_data.obj
 0001:0001ea79       ___vcrt_initialize_locks   1001fa79 f   libvcruntime:locks.obj
 0001:0001eab5       ___vcrt_uninitialize_locks 1001fab5 f   libvcruntime:locks.obj
 0001:0001eaf0       __local_unwind4            1001faf0 f   libvcruntime:_exsup4_.obj
 0001:0001ebc6       __seh_longjmp_unwind4@4    1001fbc6 f   libvcruntime:_exsup4_.obj
 0001:0001ebee       @_EH4_CallFilterFunc@8     1001fbee f   libvcruntime:_exsup4_.obj
 0001:0001ec05       @_EH4_TransferToHandler@8  1001fc05 f   libvcruntime:_exsup4_.obj
 0001:0001ec1e       @_EH4_GlobalUnwind2@8      1001fc1e f   libvcruntime:_exsup4_.obj
 0001:0001ec37       @_EH4_LocalUnwind@16       1001fc37 f   libvcruntime:_exsup4_.obj
 0001:0001ec50       __global_unwind2           1001fc50 f   libvcruntime:_exsup_.obj
 0001:0001ecb5       __local_unwind2            1001fcb5 f   libvcruntime:_exsup_.obj
 0001:0001ed39       __abnormal_termination     1001fd39 f   libvcruntime:_exsup_.obj
 0001:0001ed5c       __NLG_Notify1              1001fd5c f   libvcruntime:_exsup_.obj
 0001:0001ed65       __NLG_Notify               1001fd65 f   libvcruntime:_exsup_.obj
 0001:0001ed7c       __NLG_Dispatch             1001fd7c     libvcruntime:_exsup_.obj
 0001:0001ed7c       __NLG_Dispatch2            1001fd7c     libvcruntime:_exsup_.obj
 0001:0001ed84       __NLG_Call                 1001fd84 f   libvcruntime:_exsup_.obj
 0001:0001ed86       __NLG_Return2              1001fd86     libvcruntime:_exsup_.obj
 0001:0001ed87       _abort                     1001fd87 f   libucrt:abort.obj
 0001:0001edca       __fputc_nolock             1001fdca f   libucrt:fputc.obj
 0001:0001edf3       _fputc                     1001fdf3 f   libucrt:fputc.obj
 0001:0001eef7       _calloc                    1001fef7 f   libucrt:calloc.obj
 0001:0001ef02       ___acrt_call_reportfault   1001ff02 f   libucrt:invalid_parameter.obj
 0001:0001f03d       ___acrt_initialize_invalid_parameter_handler 1002003d f   libucrt:invalid_parameter.obj
 0001:0001f051       __invalid_parameter        10020051 f   libucrt:invalid_parameter.obj
 0001:0001f0cc       __invalid_parameter_noinfo 100200cc f   libucrt:invalid_parameter.obj
 0001:0001f0dc       __invalid_parameter_noinfo_noreturn 100200dc f   libucrt:invalid_parameter.obj
 0001:0001f0f9       __invoke_watson            100200f9 f   libucrt:invalid_parameter.obj
 0001:0001f12c       ___acrt_stdio_flush_nolock 1002012c f   libucrt:fflush.obj
 0001:0001f192       __fflush_nolock            10020192 f   libucrt:fflush.obj
 0001:0001f1d9       __flushall                 100201d9 f   libucrt:fflush.obj
 0001:0001f2ba       _fflush                    100202ba f   libucrt:fflush.obj
 0001:0001f313       __fclose_nolock            10020313 f   libucrt:fclose.obj
 0001:0001f389       _fclose                    10020389 f   libucrt:fclose.obj
 0001:0001f409       ??0_LocaleUpdate@@QAE@QAU__crt_locale_pointers@@@Z 10020409 f i libucrt:strftime.obj
 0001:0001f48c       __Strftime_l               1002048c f   libucrt:strftime.obj
 0001:0001f5bb       _strftime                  100205bb f   libucrt:strftime.obj
 0001:0001f5e0       _strcspn                   100205e0 f   libucrt:strcspn.obj
 0001:0001f626       ??$?RV<lambda_ab9923ffb5d694ec0d78876dd103e44f>@@AAV<lambda_481dd5778c961fbcd3b60b650e9b9dc4>@@V<lambda_7923d86c9e3f319b415918ec4b39749c>@@@?$__crt_seh_guarded_call@H@@QAEH$$QAV<lambda_ab9923ffb5d694ec0d78876dd103e44f>@@AAV<lambda_481dd5778c961fbcd3b60b650e9b9dc4>@@$$QAV<lambda_7923d86c9e3f319b415918ec4b39749c>@@@Z 10020626 f i libucrt:output.obj
 0001:0001f677       ??$__acrt_lock_stream_and_call@V<lambda_481dd5778c961fbcd3b60b650e9b9dc4>@@@@YAHQAU_iobuf@@$$QAV<lambda_481dd5778c961fbcd3b60b650e9b9dc4>@@@Z 10020677 f i libucrt:output.obj
 0001:0001fa18       ??$count@D@formatting_buffer@__crt_stdio_output@@QBEIXZ 10020a18 f i libucrt:output.obj
 0001:0001fa30       ??$ensure_buffer_is_big_enough@D@formatting_buffer@__crt_stdio_output@@QAE_NI@Z 10020a30 f i libucrt:output.obj
 0001:0001fab6       ??$is_wide_character_specifier@D@__crt_stdio_output@@YA_N_KDW4length_modifier@0@@Z 10020ab6 f i libucrt:output.obj
 0001:0001faf6       ??$is_wide_character_specifier@_W@__crt_stdio_output@@YA_N_K_WW4length_modifier@0@@Z 10020af6 f i libucrt:output.obj
 0001:0001fb45       ??$scratch_data@D@formatting_buffer@__crt_stdio_output@@QAEPADXZ 10020b45 f i libucrt:output.obj
 0001:0001fb63       ??$type_case_integer_parse_into_buffer@I@?$output_processor@_WV?$string_output_adapter@_W@__crt_stdio_output@@V?$standard_base@_WV?$string_output_adapter@_W@__crt_stdio_output@@@2@@__crt_stdio_output@@AAEXII_N@Z 10020b63 f i libucrt:output.obj
 0001:0001fb63       ??$type_case_integer_parse_into_buffer@I@?$output_processor@_WV?$stream_output_adapter@_W@__crt_stdio_output@@V?$standard_base@_WV?$stream_output_adapter@_W@__crt_stdio_output@@@2@@__crt_stdio_output@@AAEXII_N@Z 10020b63 f i libucrt:output.obj
 0001:0001fb63       ??$type_case_integer_parse_into_buffer@I@?$output_processor@DV?$string_output_adapter@D@__crt_stdio_output@@V?$format_validation_base@DV?$string_output_adapter@D@__crt_stdio_output@@@2@@__crt_stdio_output@@AAEXII_N@Z 10020b63 f i libucrt:output.obj
 0001:0001fbd8       ??$type_case_integer_parse_into_buffer@_K@?$output_processor@DV?$string_output_adapter@D@__crt_stdio_output@@V?$format_validation_base@DV?$string_output_adapter@D@__crt_stdio_output@@@2@@__crt_stdio_output@@AAEX_KI_N@Z 10020bd8 f i libucrt:output.obj
 0001:0001fbd8       ??$type_case_integer_parse_into_buffer@_K@?$output_processor@_WV?$string_output_adapter@_W@__crt_stdio_output@@V?$standard_base@_WV?$string_output_adapter@_W@__crt_stdio_output@@@2@@__crt_stdio_output@@AAEX_KI_N@Z 10020bd8 f i libucrt:output.obj
 0001:0001fbd8       ??$type_case_integer_parse_into_buffer@_K@?$output_processor@_WV?$stream_output_adapter@_W@__crt_stdio_output@@V?$standard_base@_WV?$stream_output_adapter@_W@__crt_stdio_output@@@2@@__crt_stdio_output@@AAEX_KI_N@Z 10020bd8 f i libucrt:output.obj
 0001:0001fc60       ??$write_multiple_characters@V?$stream_output_adapter@_W@__crt_stdio_output@@D@__crt_stdio_output@@YAXABV?$stream_output_adapter@_W@0@DHQAH@Z 10020c60 f i libucrt:output.obj
 0001:0001fc91       ??$write_multiple_characters@V?$string_output_adapter@D@__crt_stdio_output@@D@__crt_stdio_output@@YAXABV?$string_output_adapter@D@0@DHQAH@Z 10020c91 f i libucrt:output.obj
 0001:0001fcbd       ??$write_multiple_characters@V?$string_output_adapter@_W@__crt_stdio_output@@D@__crt_stdio_output@@YAXABV?$string_output_adapter@_W@0@DHQAH@Z 10020cbd f i libucrt:output.obj
 0001:0001fcee       ??0?$common_data@D@__crt_stdio_output@@IAE@XZ 10020cee f i libucrt:output.obj
 0001:0001fd35       ??0?$common_data@_W@__crt_stdio_output@@IAE@XZ 10020d35 f i libucrt:output.obj
 0001:0001fd81       ??0?$output_adapter_data@DV?$string_output_adapter@D@__crt_stdio_output@@@__crt_stdio_output@@IAE@ABV?$string_output_adapter@D@1@_KQBDQAU__crt_locale_pointers@@QAD@Z 10020d81 f i libucrt:output.obj
 0001:0001fdbd       ??0?$output_adapter_data@_WV?$stream_output_adapter@_W@__crt_stdio_output@@@__crt_stdio_output@@IAE@ABV?$stream_output_adapter@_W@1@_KQB_WQAU__crt_locale_pointers@@QAD@Z 10020dbd f i libucrt:output.obj
 0001:0001fdbd       ??0?$output_adapter_data@_WV?$string_output_adapter@_W@__crt_stdio_output@@@__crt_stdio_output@@IAE@ABV?$string_output_adapter@_W@1@_KQB_WQAU__crt_locale_pointers@@QAD@Z 10020dbd f i libucrt:output.obj
 0001:0001fdf9       ??0?$output_processor@DV?$string_output_adapter@D@__crt_stdio_output@@V?$format_validation_base@DV?$string_output_adapter@D@__crt_stdio_output@@@2@@__crt_stdio_output@@QAE@ABV?$string_output_adapter@D@1@_KQBDQAU__crt_locale_pointers@@QAD@Z 10020df9 f i libucrt:output.obj
 0001:0001fe2e       ??0?$output_processor@_WV?$stream_output_adapter@_W@__crt_stdio_output@@V?$standard_base@_WV?$stream_output_adapter@_W@__crt_stdio_output@@@2@@__crt_stdio_output@@QAE@ABV?$stream_output_adapter@_W@1@_KQB_WQAU__crt_locale_pointers@@QAD@Z 10020e2e f i libucrt:output.obj
 0001:0001fe2e       ??0?$output_processor@_WV?$string_output_adapter@_W@__crt_stdio_output@@V?$standard_base@_WV?$string_output_adapter@_W@__crt_stdio_output@@@2@@__crt_stdio_output@@QAE@ABV?$string_output_adapter@_W@1@_KQB_WQAU__crt_locale_pointers@@QAD@Z 10020e2e f i libucrt:output.obj
 0001:0001fe63       ??1formatting_buffer@__crt_stdio_output@@QAE@XZ 10020e63 f i libucrt:output.obj
 0001:0001fe7d       ??4?$__crt_unique_heap_ptr@DU__crt_internal_free_policy@@@@QAEAAV0@$$QAV0@@Z 10020e7d f i libucrt:output.obj
 0001:0001ff5e       ?crop_zeroes@__crt_stdio_output@@YAXPADQAU__crt_locale_pointers@@@Z 10020f5e f i libucrt:output.obj
 0001:0001ffb5       ?find_next_state@?$output_processor@DV?$string_output_adapter@D@__crt_stdio_output@@V?$format_validation_base@DV?$string_output_adapter@D@__crt_stdio_output@@@2@@__crt_stdio_output@@ABE?AW4state@2@DW432@@Z 10020fb5 f i libucrt:output.obj
 0001:0001ffea       ?find_next_state@?$output_processor@_WV?$string_output_adapter@_W@__crt_stdio_output@@V?$standard_base@_WV?$string_output_adapter@_W@__crt_stdio_output@@@2@@__crt_stdio_output@@ABE?AW4state@2@_WW432@@Z 10020fea f i libucrt:output.obj
 0001:0001ffea       ?find_next_state@?$output_processor@_WV?$stream_output_adapter@_W@__crt_stdio_output@@V?$standard_base@_WV?$stream_output_adapter@_W@__crt_stdio_output@@@2@@__crt_stdio_output@@ABE?AW4state@2@_WW432@@Z 10020fea f i libucrt:output.obj
 0001:0002001e       ?force_decimal_point@__crt_stdio_output@@YAXPADQAU__crt_locale_pointers@@@Z 1002101e f i libucrt:output.obj
 0001:0002007a       ?parse_int_from_format_string@?$output_processor@DV?$string_output_adapter@D@__crt_stdio_output@@V?$format_validation_base@DV?$string_output_adapter@D@__crt_stdio_output@@@2@@__crt_stdio_output@@AAE_NQAH@Z 1002107a f i libucrt:output.obj
 0001:000200d6       ?parse_int_from_format_string@?$output_processor@_WV?$string_output_adapter@_W@__crt_stdio_output@@V?$standard_base@_WV?$string_output_adapter@_W@__crt_stdio_output@@@2@@__crt_stdio_output@@AAE_NQAH@Z 100210d6 f i libucrt:output.obj
 0001:000200d6       ?parse_int_from_format_string@?$output_processor@_WV?$stream_output_adapter@_W@__crt_stdio_output@@V?$standard_base@_WV?$stream_output_adapter@_W@__crt_stdio_output@@@2@@__crt_stdio_output@@AAE_NQAH@Z 100210d6 f i libucrt:output.obj
 0001:00020134       ?process@?$output_processor@DV?$string_output_adapter@D@__crt_stdio_output@@V?$format_validation_base@DV?$string_output_adapter@D@__crt_stdio_output@@@2@@__crt_stdio_output@@QAEHXZ 10021134 f i libucrt:output.obj
 0001:0002025c       ?process@?$output_processor@_WV?$stream_output_adapter@_W@__crt_stdio_output@@V?$standard_base@_WV?$stream_output_adapter@_W@__crt_stdio_output@@@2@@__crt_stdio_output@@QAEHXZ 1002125c f i libucrt:output.obj
 0001:0002037c       ?process@?$output_processor@_WV?$string_output_adapter@_W@__crt_stdio_output@@V?$standard_base@_WV?$string_output_adapter@_W@__crt_stdio_output@@@2@@__crt_stdio_output@@QAEHXZ 1002137c f i libucrt:output.obj
 0001:0002049c       ?state_case_flag@?$output_processor@DV?$string_output_adapter@D@__crt_stdio_output@@V?$format_validation_base@DV?$string_output_adapter@D@__crt_stdio_output@@@2@@__crt_stdio_output@@AAE_NXZ 1002149c f i libucrt:output.obj
 0001:000204d9       ?state_case_flag@?$output_processor@_WV?$stream_output_adapter@_W@__crt_stdio_output@@V?$standard_base@_WV?$stream_output_adapter@_W@__crt_stdio_output@@@2@@__crt_stdio_output@@AAE_NXZ 100214d9 f i libucrt:output.obj
 0001:000204d9       ?state_case_flag@?$output_processor@_WV?$string_output_adapter@_W@__crt_stdio_output@@V?$standard_base@_WV?$string_output_adapter@_W@__crt_stdio_output@@@2@@__crt_stdio_output@@AAE_NXZ 100214d9 f i libucrt:output.obj
 0001:00020516       ?state_case_normal@?$output_processor@DV?$string_output_adapter@D@__crt_stdio_output@@V?$format_validation_base@DV?$string_output_adapter@D@__crt_stdio_output@@@2@@__crt_stdio_output@@AAE_NXZ 10021516 f i libucrt:output.obj
 0001:00020535       ?state_case_normal@?$output_processor@_WV?$stream_output_adapter@_W@__crt_stdio_output@@V?$standard_base@_WV?$stream_output_adapter@_W@__crt_stdio_output@@@2@@__crt_stdio_output@@AAE_NXZ 10021535 f i libucrt:output.obj
 0001:00020554       ?state_case_normal@?$output_processor@_WV?$string_output_adapter@_W@__crt_stdio_output@@V?$standard_base@_WV?$string_output_adapter@_W@__crt_stdio_output@@@2@@__crt_stdio_output@@AAE_NXZ 10021554 f i libucrt:output.obj
 0001:00020573       ?state_case_normal_common@?$output_processor@DV?$string_output_adapter@D@__crt_stdio_output@@V?$format_validation_base@DV?$string_output_adapter@D@__crt_stdio_output@@@2@@__crt_stdio_output@@AAE_NXZ 10021573 f i libucrt:output.obj
 0001:0002059d       ?state_case_normal_common@?$output_processor@_WV?$stream_output_adapter@_W@__crt_stdio_output@@V?$standard_base@_WV?$stream_output_adapter@_W@__crt_stdio_output@@@2@@__crt_stdio_output@@AAE_NXZ 1002159d f i libucrt:output.obj
 0001:000205b8       ?state_case_normal_common@?$output_processor@_WV?$string_output_adapter@_W@__crt_stdio_output@@V?$standard_base@_WV?$string_output_adapter@_W@__crt_stdio_output@@@2@@__crt_stdio_output@@AAE_NXZ 100215b8 f i libucrt:output.obj
 0001:000205d3       ?state_case_normal_tchar@?$output_processor@DV?$string_output_adapter@D@__crt_stdio_output@@V?$format_validation_base@DV?$string_output_adapter@D@__crt_stdio_output@@@2@@__crt_stdio_output@@AAE_ND@Z 100215d3 f i libucrt:output.obj
 0001:00020634       ?state_case_precision@?$output_processor@DV?$string_output_adapter@D@__crt_stdio_output@@V?$format_validation_base@DV?$string_output_adapter@D@__crt_stdio_output@@@2@@__crt_stdio_output@@AAE_NXZ 10021634 f i libucrt:output.obj
 0001:0002065c       ?state_case_precision@?$output_processor@_WV?$string_output_adapter@_W@__crt_stdio_output@@V?$standard_base@_WV?$string_output_adapter@_W@__crt_stdio_output@@@2@@__crt_stdio_output@@AAE_NXZ 1002165c f i libucrt:output.obj
 0001:0002065c       ?state_case_precision@?$output_processor@_WV?$stream_output_adapter@_W@__crt_stdio_output@@V?$standard_base@_WV?$stream_output_adapter@_W@__crt_stdio_output@@@2@@__crt_stdio_output@@AAE_NXZ 1002165c f i libucrt:output.obj
 0001:00020685       ?state_case_size@?$output_processor@DV?$string_output_adapter@D@__crt_stdio_output@@V?$format_validation_base@DV?$string_output_adapter@D@__crt_stdio_output@@@2@@__crt_stdio_output@@AAE_NXZ 10021685 f i libucrt:output.obj
 0001:000207ee       ?state_case_size@?$output_processor@_WV?$stream_output_adapter@_W@__crt_stdio_output@@V?$standard_base@_WV?$stream_output_adapter@_W@__crt_stdio_output@@@2@@__crt_stdio_output@@AAE_NXZ 100217ee f i libucrt:output.obj
 0001:0002096a       ?state_case_size@?$output_processor@_WV?$string_output_adapter@_W@__crt_stdio_output@@V?$standard_base@_WV?$string_output_adapter@_W@__crt_stdio_output@@@2@@__crt_stdio_output@@AAE_NXZ 1002196a f i libucrt:output.obj
 0001:00020ae6       ?state_case_type@?$output_processor@DV?$string_output_adapter@D@__crt_stdio_output@@V?$format_validation_base@DV?$string_output_adapter@D@__crt_stdio_output@@@2@@__crt_stdio_output@@AAE_NXZ 10021ae6 f i libucrt:output.obj
 0001:00020d15       ?state_case_type@?$output_processor@_WV?$stream_output_adapter@_W@__crt_stdio_output@@V?$standard_base@_WV?$stream_output_adapter@_W@__crt_stdio_output@@@2@@__crt_stdio_output@@AAE_NXZ 10021d15 f i libucrt:output.obj
 0001:00020f72       ?state_case_type@?$output_processor@_WV?$string_output_adapter@_W@__crt_stdio_output@@V?$standard_base@_WV?$string_output_adapter@_W@__crt_stdio_output@@@2@@__crt_stdio_output@@AAE_NXZ 10021f72 f i libucrt:output.obj
 0001:000211cf       ?state_case_width@?$output_processor@DV?$string_output_adapter@D@__crt_stdio_output@@V?$format_validation_base@DV?$string_output_adapter@D@__crt_stdio_output@@@2@@__crt_stdio_output@@AAE_NXZ 100221cf f i libucrt:output.obj
 0001:000211fa       ?state_case_width@?$output_processor@_WV?$stream_output_adapter@_W@__crt_stdio_output@@V?$standard_base@_WV?$stream_output_adapter@_W@__crt_stdio_output@@@2@@__crt_stdio_output@@AAE_NXZ 100221fa f i libucrt:output.obj
 0001:000211fa       ?state_case_width@?$output_processor@_WV?$string_output_adapter@_W@__crt_stdio_output@@V?$standard_base@_WV?$string_output_adapter@_W@__crt_stdio_output@@@2@@__crt_stdio_output@@AAE_NXZ 100221fa f i libucrt:output.obj
 0001:00021226       ?to_integer_size@__crt_stdio_output@@YAIW4length_modifier@1@@Z 10022226 f i libucrt:output.obj
 0001:00021282       ?type_case_Z@?$output_processor@DV?$string_output_adapter@D@__crt_stdio_output@@V?$format_validation_base@DV?$string_output_adapter@D@__crt_stdio_output@@@2@@__crt_stdio_output@@AAE_NXZ 10022282 f i libucrt:output.obj
 0001:000212e5       ?type_case_Z@?$output_processor@_WV?$stream_output_adapter@_W@__crt_stdio_output@@V?$standard_base@_WV?$stream_output_adapter@_W@__crt_stdio_output@@@2@@__crt_stdio_output@@AAE_NXZ 100222e5 f i libucrt:output.obj
 0001:000212e5       ?type_case_Z@?$output_processor@_WV?$string_output_adapter@_W@__crt_stdio_output@@V?$standard_base@_WV?$string_output_adapter@_W@__crt_stdio_output@@@2@@__crt_stdio_output@@AAE_NXZ 100222e5 f i libucrt:output.obj
 0001:00021348       ?type_case_a@?$output_processor@DV?$string_output_adapter@D@__crt_stdio_output@@V?$format_validation_base@DV?$string_output_adapter@D@__crt_stdio_output@@@2@@__crt_stdio_output@@AAE_NXZ 10022348 f i libucrt:output.obj
 0001:000214a2       ?type_case_a@?$output_processor@_WV?$stream_output_adapter@_W@__crt_stdio_output@@V?$standard_base@_WV?$stream_output_adapter@_W@__crt_stdio_output@@@2@@__crt_stdio_output@@AAE_NXZ 100224a2 f i libucrt:output.obj
 0001:000214a2       ?type_case_a@?$output_processor@_WV?$string_output_adapter@_W@__crt_stdio_output@@V?$standard_base@_WV?$string_output_adapter@_W@__crt_stdio_output@@@2@@__crt_stdio_output@@AAE_NXZ 100224a2 f i libucrt:output.obj
 0001:00021614       ?type_case_c_tchar@?$output_processor@DV?$string_output_adapter@D@__crt_stdio_output@@V?$format_validation_base@DV?$string_output_adapter@D@__crt_stdio_output@@@2@@__crt_stdio_output@@AAE_ND@Z 10022614 f i libucrt:output.obj
 0001:000216a4       ?type_case_c_tchar@?$output_processor@_WV?$stream_output_adapter@_W@__crt_stdio_output@@V?$standard_base@_WV?$stream_output_adapter@_W@__crt_stdio_output@@@2@@__crt_stdio_output@@AAE_N_W@Z 100226a4 f i libucrt:output.obj
 0001:000216a4       ?type_case_c_tchar@?$output_processor@_WV?$string_output_adapter@_W@__crt_stdio_output@@V?$standard_base@_WV?$string_output_adapter@_W@__crt_stdio_output@@@2@@__crt_stdio_output@@AAE_N_W@Z 100226a4 f i libucrt:output.obj
 0001:0002173c       ?type_case_integer@?$output_processor@_WV?$string_output_adapter@_W@__crt_stdio_output@@V?$standard_base@_WV?$string_output_adapter@_W@__crt_stdio_output@@@2@@__crt_stdio_output@@AAE_NI_N@Z 1002273c f i libucrt:output.obj
 0001:0002173c       ?type_case_integer@?$output_processor@_WV?$stream_output_adapter@_W@__crt_stdio_output@@V?$standard_base@_WV?$stream_output_adapter@_W@__crt_stdio_output@@@2@@__crt_stdio_output@@AAE_NI_N@Z 1002273c f i libucrt:output.obj
 0001:0002173c       ?type_case_integer@?$output_processor@DV?$string_output_adapter@D@__crt_stdio_output@@V?$format_validation_base@DV?$string_output_adapter@D@__crt_stdio_output@@@2@@__crt_stdio_output@@AAE_NI_N@Z 1002273c f i libucrt:output.obj
 0001:00021886       ?type_case_n@?$output_processor@DV?$string_output_adapter@D@__crt_stdio_output@@V?$format_validation_base@DV?$string_output_adapter@D@__crt_stdio_output@@@2@@__crt_stdio_output@@AAE_NXZ 10022886 f i libucrt:output.obj
 0001:00021886       ?type_case_n@?$output_processor@_WV?$stream_output_adapter@_W@__crt_stdio_output@@V?$standard_base@_WV?$stream_output_adapter@_W@__crt_stdio_output@@@2@@__crt_stdio_output@@AAE_NXZ 10022886 f i libucrt:output.obj
 0001:00021886       ?type_case_n@?$output_processor@_WV?$string_output_adapter@_W@__crt_stdio_output@@V?$standard_base@_WV?$string_output_adapter@_W@__crt_stdio_output@@@2@@__crt_stdio_output@@AAE_NXZ 10022886 f i libucrt:output.obj
 0001:000218fa       ?type_case_o@?$output_processor@DV?$string_output_adapter@D@__crt_stdio_output@@V?$format_validation_base@DV?$string_output_adapter@D@__crt_stdio_output@@@2@@__crt_stdio_output@@AAE_NXZ 100228fa f i libucrt:output.obj
 0001:000218fa       ?type_case_o@?$output_processor@_WV?$string_output_adapter@_W@__crt_stdio_output@@V?$standard_base@_WV?$string_output_adapter@_W@__crt_stdio_output@@@2@@__crt_stdio_output@@AAE_NXZ 100228fa f i libucrt:output.obj
 0001:000218fa       ?type_case_o@?$output_processor@_WV?$stream_output_adapter@_W@__crt_stdio_output@@V?$standard_base@_WV?$stream_output_adapter@_W@__crt_stdio_output@@@2@@__crt_stdio_output@@AAE_NXZ 100228fa f i libucrt:output.obj
 0001:00021919       ?type_case_p@?$output_processor@_WV?$stream_output_adapter@_W@__crt_stdio_output@@V?$standard_base@_WV?$stream_output_adapter@_W@__crt_stdio_output@@@2@@__crt_stdio_output@@AAE_NXZ 10022919 f i libucrt:output.obj
 0001:00021919       ?type_case_p@?$output_processor@_WV?$string_output_adapter@_W@__crt_stdio_output@@V?$standard_base@_WV?$string_output_adapter@_W@__crt_stdio_output@@@2@@__crt_stdio_output@@AAE_NXZ 10022919 f i libucrt:output.obj
 0001:00021919       ?type_case_p@?$output_processor@DV?$string_output_adapter@D@__crt_stdio_output@@V?$format_validation_base@DV?$string_output_adapter@D@__crt_stdio_output@@@2@@__crt_stdio_output@@AAE_NXZ 10022919 f i libucrt:output.obj
 0001:00021931       ?type_case_s@?$output_processor@DV?$string_output_adapter@D@__crt_stdio_output@@V?$format_validation_base@DV?$string_output_adapter@D@__crt_stdio_output@@@2@@__crt_stdio_output@@AAE_NXZ 10022931 f i libucrt:output.obj
 0001:000219a4       ?type_case_s@?$output_processor@_WV?$string_output_adapter@_W@__crt_stdio_output@@V?$standard_base@_WV?$string_output_adapter@_W@__crt_stdio_output@@@2@@__crt_stdio_output@@AAE_NXZ 100229a4 f i libucrt:output.obj
 0001:000219a4       ?type_case_s@?$output_processor@_WV?$stream_output_adapter@_W@__crt_stdio_output@@V?$standard_base@_WV?$stream_output_adapter@_W@__crt_stdio_output@@@2@@__crt_stdio_output@@AAE_NXZ 100229a4 f i libucrt:output.obj
 0001:00021a18       ?type_case_s_compute_narrow_string_length@?$output_processor@_WV?$string_output_adapter@_W@__crt_stdio_output@@V?$standard_base@_WV?$string_output_adapter@_W@__crt_stdio_output@@@2@@__crt_stdio_output@@ABEHH_W@Z 10022a18 f i libucrt:output.obj
 0001:00021a18       ?type_case_s_compute_narrow_string_length@?$output_processor@_WV?$stream_output_adapter@_W@__crt_stdio_output@@V?$standard_base@_WV?$stream_output_adapter@_W@__crt_stdio_output@@@2@@__crt_stdio_output@@ABEHH_W@Z 10022a18 f i libucrt:output.obj
 0001:00021a58       ?validate_and_update_state_at_end_of_format_string@?$format_validation_base@DV?$string_output_adapter@D@__crt_stdio_output@@@__crt_stdio_output@@IBE_NXZ 10022a58 f i libucrt:output.obj
 0001:00021a7a       ?write_character@?$stream_output_adapter@_W@__crt_stdio_output@@QBEX_WQAH@Z 10022a7a f i libucrt:output.obj
 0001:00021aba       ?write_character@?$string_output_adapter@D@__crt_stdio_output@@QBE_NDQAH@Z 10022aba f i libucrt:output.obj
 0001:00021afc       ?write_character@?$string_output_adapter@_W@__crt_stdio_output@@QBE_N_WQAH@Z 10022afc f i libucrt:output.obj
 0001:00021b41       ?write_stored_string_tchar@?$output_processor@DV?$string_output_adapter@D@__crt_stdio_output@@V?$format_validation_base@DV?$string_output_adapter@D@__crt_stdio_output@@@2@@__crt_stdio_output@@AAE_ND@Z 10022b41 f i libucrt:output.obj
 0001:00021be8       ?write_stored_string_tchar@?$output_processor@_WV?$stream_output_adapter@_W@__crt_stdio_output@@V?$standard_base@_WV?$stream_output_adapter@_W@__crt_stdio_output@@@2@@__crt_stdio_output@@AAE_N_W@Z 10022be8 f i libucrt:output.obj
 0001:00021c73       ?write_stored_string_tchar@?$output_processor@_WV?$string_output_adapter@_W@__crt_stdio_output@@V?$standard_base@_WV?$string_output_adapter@_W@__crt_stdio_output@@@2@@__crt_stdio_output@@AAE_N_W@Z 10022c73 f i libucrt:output.obj
 0001:00021cfe       ?write_string@?$stream_output_adapter@_W@__crt_stdio_output@@QBEXQB_WHQAH1@Z 10022cfe f i libucrt:output.obj
 0001:00021d8b       ?write_string@?$string_output_adapter@D@__crt_stdio_output@@QBEXQBDHQAH1@Z 10022d8b f i libucrt:output.obj
 0001:00021e1e       ?write_string@?$string_output_adapter@_W@__crt_stdio_output@@QBEXQB_WHQAH1@Z 10022e1e f i libucrt:output.obj
 0001:00021eb8       ___stdio_common_vfwprintf  10022eb8 f   libucrt:output.obj
 0001:00021f2f       ___stdio_common_vsprintf_s 10022f2f f   libucrt:output.obj
 0001:00021f53       ___stdio_common_vswprintf  10022f53 f   libucrt:output.obj
 0001:00021f77       __fgetc_nolock             10022f77 f   libucrt:fgetc.obj
 0001:00021fb3       _fgetc                     10022fb3 f   libucrt:fgetc.obj
 0001:000220b5       ___acrt_initialize_stdio   100230b5 f   libucrt:_file.obj
 0001:0002217d       ___acrt_iob_func           1002317d f   libucrt:_file.obj
 0001:0002218d       ___acrt_uninitialize_stdio 1002318d f   libucrt:_file.obj
 0001:000221d9       __get_stream_buffer_pointers 100231d9 f   libucrt:_file.obj
 0001:0002221f       __lock_file                1002321f f   libucrt:_file.obj
 0001:00022233       __unlock_file              10023233 f   libucrt:_file.obj
 0001:00022247       _localeconv                10023247 f   libucrt:localeconv.obj
 0001:00022271       ??$?RV<lambda_11b4f7b0d3157825a5656a18eba1ae27>@@AAV<lambda_b51c0495177f500e782686251704ae76>@@V<lambda_cf89b47920b5017557bfe891e78aca36>@@@?$__crt_seh_guarded_call@I@@QAEI$$QAV<lambda_11b4f7b0d3157825a5656a18eba1ae27>@@AAV<lambda_b51c0495177f500e782686251704ae76>@@$$QAV<lambda_cf89b47920b5017557bfe891e78aca36>@@@Z 10023271 f i libucrt:fwrite.obj
 0001:000222c2       ??$__acrt_lock_stream_and_call@V<lambda_b51c0495177f500e782686251704ae76>@@@@YAIQAU_iobuf@@$$QAV<lambda_b51c0495177f500e782686251704ae76>@@@Z 100232c2 f i libucrt:fwrite.obj
 0001:00022330       __fwrite_nolock            10023330 f   libucrt:fwrite.obj
 0001:000224a9       _fwrite                    100234a9 f   libucrt:fwrite.obj
 0001:00022501       ___acrt_errno_from_os_error 10023501 f   libucrt:errno.obj
 0001:00022544       ___acrt_errno_map_os_error 10023544 f   libucrt:errno.obj
 0001:00022567       ___doserrno                10023567 f   libucrt:errno.obj
 0001:0002257a       __errno                    1002357a f   libucrt:errno.obj
 0001:0002258d       _fgetpos                   1002358d f   libucrt:fgetpos.obj
 0001:000225e8       ??$?RV<lambda_d92cfe8357b99225085016881b624cb0>@@AAV<lambda_b721fa326cdb32351d23dfa67958c160>@@V<lambda_42d75b0848218ec137fa420c8ba9fdf9>@@@?$__crt_seh_guarded_call@H@@QAEH$$QAV<lambda_d92cfe8357b99225085016881b624cb0>@@AAV<lambda_b721fa326cdb32351d23dfa67958c160>@@$$QAV<lambda_42d75b0848218ec137fa420c8ba9fdf9>@@@Z 100235e8 f i libucrt:setvbuf.obj
 0001:00022639       ??$__acrt_lock_stream_and_call@V<lambda_b721fa326cdb32351d23dfa67958c160>@@@@YAHQAU_iobuf@@$$QAV<lambda_b721fa326cdb32351d23dfa67958c160>@@@Z 10023639 f i libucrt:setvbuf.obj
 0001:0002272e       _setvbuf                   1002372e f   libucrt:setvbuf.obj
 0001:00022823       __time64                   10023823 f   libucrt:time.obj
 0001:00022aef       __localtime64              10023aef f   libucrt:localtime.obj
 0001:00022b16       _free                      10023b16 f   libucrt:free.obj
 0001:00022b1b       ??$is_overflow_condition@K@__crt_strtox@@YA_NIK@Z 10023b1b f i libucrt:atox.obj
 0001:00022b4e       ??$parse_integer@KV?$c_string_character_source@D@__crt_strtox@@@__crt_strtox@@YAKQAU__crt_locale_pointers@@V?$c_string_character_source@D@0@H_N@Z 10023b4e f i libucrt:atox.obj
 0001:00022d76       ??$parse_integer@KV?$c_string_character_source@_W@__crt_strtox@@@__crt_strtox@@YAKQAU__crt_locale_pointers@@V?$c_string_character_source@_W@0@H_N@Z 10023d76 f i libucrt:atox.obj
 0001:0002345b       ?unget@?$c_string_character_source@D@__crt_strtox@@QAEXD@Z 1002445b f i libucrt:atox.obj
 0001:00023483       ?unget@?$c_string_character_source@_W@__crt_strtox@@QAEX_W@Z 10024483 f i libucrt:atox.obj
 0001:000234af       ?validate@?$c_string_character_source@D@__crt_strtox@@QBE_NXZ 100244af f i libucrt:atox.obj
 0001:000234af       ?validate@?$c_string_character_source@_W@__crt_strtox@@QBE_NXZ 100244af f i libucrt:atox.obj
 0001:000234af       ?validate@?$string_output_adapter@_W@__crt_stdio_output@@QBE_NXZ 100244af f i libucrt:output.obj
 0001:000234af       ?validate@?$string_output_adapter@D@__crt_stdio_output@@QBE_NXZ 100244af f i libucrt:output.obj
 0001:000234af       ?validate@?$stream_output_adapter@_W@__crt_stdio_output@@QBE_NXZ 100244af f i libucrt:output.obj
 0001:000234ca       __chvalidchk_l             100244ca f i libucrt:atox.obj
 0001:000234f4       __ischartype_l             100244f4 f i libucrt:atox.obj
 0001:00023527       __wtol                     10024527 f   libucrt:atox.obj
 0001:00023551       _atol                      10024551 f   libucrt:atox.obj
 0001:00023551       _atoi                      10024551 f   libucrt:atox.obj
 0001:0002357b       __ungetc_nolock            1002457b f   libucrt:ungetc.obj
 0001:0002366a       _ungetc                    1002466a f   libucrt:ungetc.obj
 0001:000236da       _frexp                     100246da f   libucrt:frexp.obj
 0001:000237d6       ??$assemble_floating_point_ind@N@__crt_strtox@@YAXAAN@Z 100247d6 f i libucrt:atof.obj
 0001:00023805       ??$assemble_floating_point_infinity@N@__crt_strtox@@YAX_NAAN@Z 10024805 f i libucrt:atof.obj
 0001:00023844       ??$assemble_floating_point_qnan@N@__crt_strtox@@YAX_NAAN@Z 10024844 f i libucrt:atof.obj
 0001:00023883       ??$assemble_floating_point_snan@N@__crt_strtox@@YAX_NAAN@Z 10024883 f i libucrt:atof.obj
 0001:000238c7       ??$assemble_floating_point_value_t@M@__crt_strtox@@YA?AW4SLD_STATUS@@_NH_KAAM@Z 100248c7 f i libucrt:atof.obj
 0001:000238f7       ??$assemble_floating_point_value_t@N@__crt_strtox@@YA?AW4SLD_STATUS@@_NH_KAAN@Z 100248f7 f i libucrt:atof.obj
 0001:00023956       ??$assemble_floating_point_zero@N@__crt_strtox@@YAX_NAAN@Z 10024956 f i libucrt:atof.obj
 0001:00023a00       ??$convert_decimal_string_to_floating_type@N@__crt_strtox@@YA?AW4SLD_STATUS@@ABUfloating_point_string@0@AAN@Z 10024a00 f i libucrt:atof.obj
 0001:00023a23       ??$convert_hexadecimal_string_to_floating_type@N@__crt_strtox@@YA?AW4SLD_STATUS@@ABUfloating_point_string@0@AAN@Z 10024a23 f i libucrt:atof.obj
 0001:00023a46       ??$parse_floating_point@V?$c_string_character_source@D@__crt_strtox@@N@__crt_strtox@@YA?AW4SLD_STATUS@@QAU__crt_locale_pointers@@V?$c_string_character_source@D@0@QAN@Z 10024a46 f i libucrt:atof.obj
 0001:00023abc       ??$parse_floating_point_from_source@V?$c_string_character_source@D@__crt_strtox@@@__crt_strtox@@YA?AW4floating_point_parse_result@0@QAU__crt_locale_pointers@@AAV?$c_string_character_source@D@0@AAUfloating_point_string@0@@Z 10024abc f i libucrt:atof.obj
 0001:00023eae       ??$parse_floating_point_possible_infinity@DV?$c_string_character_source@D@__crt_strtox@@PBD@__crt_strtox@@YA?AW4floating_point_parse_result@0@AADAAV?$c_string_character_source@D@0@PBD@Z 10024eae f i libucrt:atof.obj
 0001:00023f5b       ??$parse_floating_point_possible_nan@DV?$c_string_character_source@D@__crt_strtox@@PBD@__crt_strtox@@YA?AW4floating_point_parse_result@0@AADAAV?$c_string_character_source@D@0@PBD@Z 10024f5b f i libucrt:atof.obj
 0001:00024076       ??$parse_floating_point_possible_nan_is_ind@DV?$c_string_character_source@D@__crt_strtox@@@__crt_strtox@@YA_NAADAAV?$c_string_character_source@D@0@@Z 10025076 f i libucrt:atof.obj
 0001:000240b2       ??$parse_floating_point_possible_nan_is_snan@DV?$c_string_character_source@D@__crt_strtox@@@__crt_strtox@@YA_NAADAAV?$c_string_character_source@D@0@@Z 100250b2 f i libucrt:atof.obj
 0001:000240ee       ??$parse_floating_point_write_result@N@__crt_strtox@@YA?AW4SLD_STATUS@@W4floating_point_parse_result@0@ABUfloating_point_string@0@QAN@Z 100250ee f i libucrt:atof.obj
 0001:00024218       ?as_double@floating_point_value@__crt_strtox@@QBEAANXZ 10025218 f i libucrt:atof.obj
 0001:0002423d       ?as_float@floating_point_value@__crt_strtox@@QBEAAMXZ 1002523d f i libucrt:atof.obj
 0001:00024262       ?assemble_floating_point_infinity@__crt_strtox@@YAX_NABVfloating_point_value@1@@Z 10025262 f i libucrt:atof.obj
 0001:0002429c       ?assemble_floating_point_value@__crt_strtox@@YA?AW4SLD_STATUS@@_KH_N1ABVfloating_point_value@1@@Z 1002529c f i libucrt:atof.obj
 0001:000245e8       ?assemble_floating_point_value_from_big_integer@__crt_strtox@@YA?AW4SLD_STATUS@@ABUbig_integer@1@I_N1ABVfloating_point_value@1@@Z 100255e8 f i libucrt:atof.obj
 0001:00024776       ?assemble_floating_point_zero@__crt_strtox@@YAX_NABVfloating_point_value@1@@Z 10025776 f i libucrt:atof.obj
 0001:000247aa       ?convert_decimal_string_to_floating_type_common@__crt_strtox@@YA?AW4SLD_STATUS@@ABUfloating_point_string@1@ABVfloating_point_value@1@@Z 100257aa f i libucrt:atof.obj
 0001:0002656d       ?convert_hexadecimal_string_to_floating_type_common@__crt_strtox@@YA?AW4SLD_STATUS@@ABUfloating_point_string@1@ABVfloating_point_value@1@@Z 1002756d f i libucrt:atof.obj
 0001:00026619       ?denormal_mantissa_mask@floating_point_value@__crt_strtox@@QBE_KXZ 10027619 f i libucrt:atof.obj
 0001:00026630       ?divide@__crt_strtox@@YA_KAAUbig_integer@1@ABU21@@Z 10027630 f i libucrt:atof.obj
 0001:00026ade       ?normal_mantissa_mask@floating_point_value@__crt_strtox@@QBE_KXZ 10027ade f i libucrt:atof.obj
 0001:00026af5       _atof                      10027af5 f   libucrt:atof.obj
 0001:00026b08       __isdigit_l                10027b08 f i libucrt:_ctype.obj
 0001:00026b40       __islower_l                10027b40 f i libucrt:_ctype.obj
 0001:00026b78       __isspace_l                10027b78 f i libucrt:_ctype.obj
 0001:00026bb0       __isupper_l                10027bb0 f i libucrt:_ctype.obj
 0001:00026be8       _isdigit                   10027be8 f i libucrt:_ctype.obj
 0001:00026c15       _islower                   10027c15 f i libucrt:_ctype.obj
 0001:00026c42       _isspace                   10027c42 f i libucrt:_ctype.obj
 0001:00026c6f       _isupper                   10027c6f f i libucrt:_ctype.obj
 0001:00026c9c       _fsetpos                   10027c9c f   libucrt:fsetpos.obj
 0001:00026cd7       ?LongLongSub@@YAJ_J0PA_J@Z 10027cd7 f i libucrt:fseek.obj
 0001:00026f91       __fseeki64                 10027f91 f   libucrt:fseek.obj
 0001:00026fac       _fseek                     10027fac f   libucrt:fseek.obj
 0001:0002762b       ??$ftprintf@PAU_iobuf@@PB_WABQB_WABQB_WABI@?$__crt_char_traits@_W@@SAH$$QAPAU_iobuf@@$$QAPB_WABQB_W2ABI@Z 1002862b f i libucrt:assert.obj
 0001:0002770a       __vfwprintf_l              1002870a f i libucrt:assert.obj
 0001:0002772f       __vswprintf_c_l            1002872f f i libucrt:assert.obj
 0001:0002775e       __wassert                  1002875e f   libucrt:assert.obj
 0001:000277a6       _fwprintf                  100287a6 f i libucrt:assert.obj
 0001:00027842       _swprintf                  10028842 f i libucrt:assert.obj
 0001:00027860       _malloc                    10028860 f   libucrt:malloc.obj
 0001:0002786b       ___ascii_stricmp           1002886b f   libucrt:stricmp.obj
 0001:000278a6       __stricmp                  100288a6 f   libucrt:stricmp.obj
 0001:000278ee       __stricmp_l                100288ee f   libucrt:stricmp.obj
 0001:00027988       ___acrt_initialize_locks   10028988 f   libucrt:locks.obj
 0001:000279c9       ___acrt_lock               100289c9 f   libucrt:locks.obj
 0001:000279e0       ___acrt_uninitialize_locks 100289e0 f   libucrt:locks.obj
 0001:00027a11       ___acrt_unlock             10028a11 f   libucrt:locks.obj
 0001:00027a28       __lock_locales             10028a28 f   libucrt:locks.obj
 0001:00027a31       __unlock_locales           10028a31 f   libucrt:locks.obj
 0001:00027ad7       _setlocale                 10028ad7 f   libucrt:setlocale.obj
 0001:00027cf5       __fsopen                   10028cf5 f   libucrt:fopen.obj
 0001:00027d00       __calloc_base              10028d00 f   libucrt:calloc_base.obj
 0001:00027d5d       ___pctype_func             10028d5d f   libucrt:ctype.obj
 0001:00027d83       __wcsdup                   10028d83 f   libucrt:wcsdup.obj
 0001:00027de4       ____lc_codepage_func       10028de4 f   libucrt:initctype.obj
 0001:00027e0b       ____lc_locale_name_func    10028e0b f   libucrt:initctype.obj
 0001:00027e34       ____mb_cur_max_func        10028e34 f   libucrt:initctype.obj
 0001:00027e5b       ___acrt_locale_initialize_ctype 10028e5b f   libucrt:initctype.obj
 0001:00028252       __ismbblead                10029252 f   libucrt:ismbbyte.obj
 0001:0002826a       __malloc_base              1002926a f   libucrt:malloc_base.obj
 0001:000282b8       __realloc_base             100292b8 f   libucrt:realloc_base.obj
 0001:00028321       ??$make_c_string_character_source@D$$T@__crt_strtox@@YA?AV?$c_string_character_source@D@0@QBD$$T@Z 10029321 f i libucrt:atox.obj
 0001:00028321       ??$make_c_string_character_source@DPAPAD@__crt_strtox@@YA?AV?$c_string_character_source@D@0@QBDQAPAD@Z 10029321 f i libucrt:strtod.obj
 0001:00028321       ??$make_c_string_character_source@_WPAPA_W@__crt_strtox@@YA?AV?$c_string_character_source@_W@0@QB_WQAPA_W@Z 10029321 f i libucrt:strtod.obj
 0001:00028321       ??$make_c_string_character_source@_W$$T@__crt_strtox@@YA?AV?$c_string_character_source@_W@0@QB_W$$T@Z 10029321 f i libucrt:atox.obj
 0001:00028340       _pow                       10029340 f   libucrt:pow.obj
 0001:00028380       __CIpow                    10029380 f   libucrt:pow.obj
 0001:000283bb       __CIpow_default            100293bb f   libucrt:pow.obj
 0001:000283d4       __pow_default              100293d4     libucrt:pow.obj
 0001:000285c9       ___strncnt                 100295c9 f   libucrt:strncnt.obj
 0001:000285e5       __free_base                100295e5 f   libucrt:free_base.obj
 0001:0002861f       ??$__crt_time_is_leap_year@H@@YA_NH@Z 1002961f f i libucrt:wcsftime.obj
 0001:00029813       __Wcsftime_l               1002a813 f   libucrt:wcsftime.obj
 0001:00029afb       __tolower_l                1002aafb f   libucrt:tolower_toupper.obj
 0001:00029b15       _tolower                   1002ab15 f   libucrt:tolower_toupper.obj
 0001:00029b45       _wcscpy_s                  1002ab45 f   libucrt:wcscpy_s.obj
 0001:00029ba9       _strnlen                   1002aba9 f   libucrt:strnlen.obj
 0001:00029cd0       _wcsnlen                   1002acd0 f   libucrt:strnlen.obj
 0001:00029e87       ___acrt_initialize_new_handler 1002ae87 f   libucrt:new_handler.obj
 0001:00029e9b       __callnewh                 1002ae9b f   libucrt:new_handler.obj
 0001:00029edf       __query_new_handler        1002aedf f   libucrt:new_handler.obj
 0001:00029f31       __seh_filter_dll           1002af31 f   libucrt:exception_filter.obj
 0001:00029f51       __seh_filter_exe           1002af51 f   libucrt:exception_filter.obj
 0001:0002a2df       ___acrt_initialize_thread_local_exit_callback 1002b2df f   libucrt:exit.obj
 0001:0002a2ee       __cexit                    1002b2ee f   libucrt:exit.obj
 0001:0002a2fd       __exit                     1002b2fd f   libucrt:exit.obj
 0001:0002a313       __is_c_termination_complete 1002b313 f   libucrt:exit.obj
 0001:0002a5b2       ___acrt_allocate_buffer_for_argv 1002b5b2 f   libucrt:argv_parsing.obj
 0001:0002a607       __configure_narrow_argv    1002b607 f   libucrt:argv_parsing.obj
 0001:0002a819       ??$uninitialize@A6AXAAPAPA_W@Z@?$dual_state_global@PAPA_W@__crt_state_management@@QAEXA6AXAAPAPA_W@Z@Z 1002b819 f i libucrt:environment_initialization.obj
 0001:0002a819       ??$uninitialize@A6AXAAPAPAD@Z@?$dual_state_global@PAPAD@__crt_state_management@@QAEXA6AXAAPAPAD@Z@Z 1002b819 f i libucrt:environment_initialization.obj
 0001:0002a88f       ___dcrt_get_or_create_narrow_environment_nolock 1002b88f f   libucrt:environment_initialization.obj
 0001:0002a894       ___dcrt_uninitialize_environments_nolock 1002b894 f   libucrt:environment_initialization.obj
 0001:0002a8cb       __initialize_narrow_environment 1002b8cb f   libucrt:environment_initialization.obj
 0001:0002a8d0       ??$?RV<lambda_800076c951b434888f4765a74a194fcc>@@AAV<lambda_4e60a939b0d047cfe11ddc22648dfba9>@@V<lambda_6dbb1268764f43b569ce7b67e331d33a>@@@?$__crt_seh_guarded_call@H@@QAEH$$QAV<lambda_800076c951b434888f4765a74a194fcc>@@AAV<lambda_4e60a939b0d047cfe11ddc22648dfba9>@@$$QAV<lambda_6dbb1268764f43b569ce7b67e331d33a>@@@Z 1002b8d0 f i libucrt:onexit.obj
 0001:0002a921       ??$?RV<lambda_995298e7d72eb4c2aab26c0585b3abe5>@@AAV<lambda_275893d493268fdec8709772e3fcec0e>@@V<lambda_293819299cbf9a7022e18b56a874bb5c>@@@?$__crt_seh_guarded_call@H@@QAEH$$QAV<lambda_995298e7d72eb4c2aab26c0585b3abe5>@@AAV<lambda_275893d493268fdec8709772e3fcec0e>@@$$QAV<lambda_293819299cbf9a7022e18b56a874bb5c>@@@Z 1002b921 f i libucrt:onexit.obj
 0001:0002a972       ??$__acrt_lock_and_call@V<lambda_275893d493268fdec8709772e3fcec0e>@@@@YAHW4__acrt_lock_id@@$$QAV<lambda_275893d493268fdec8709772e3fcec0e>@@@Z 1002b972 f i libucrt:onexit.obj
 0001:0002a99a       ??$__acrt_lock_and_call@V<lambda_4e60a939b0d047cfe11ddc22648dfba9>@@@@YAHW4__acrt_lock_id@@$$QAV<lambda_4e60a939b0d047cfe11ddc22648dfba9>@@@Z 1002b99a f i libucrt:onexit.obj
 0001:0002a9c2       ??$__crt_fast_encode_pointer@P6GHPA_WKJ@Z@@YAP6GHPA_WKJ@ZQ6GH0KJ@Z@Z 1002b9c2 f i libucrt:winapi_thunks.obj
 0001:0002a9c2       ??$__crt_fast_encode_pointer@P6AHXZ@@YAP6AHXZQ6AHXZ@Z 1002b9c2 f i libucrt:onexit.obj
 0001:0002ac42       __crt_atexit               1002bc42 f   libucrt:onexit.obj
 0001:0002ac58       __execute_onexit_table     1002bc58 f   libucrt:onexit.obj
 0001:0002ac75       __initialize_onexit_table  1002bc75 f   libucrt:onexit.obj
 0001:0002acb2       __register_onexit_function 1002bcb2 f   libucrt:onexit.obj
 0001:0002adc7       ___acrt_initialize         1002bdc7 f   libucrt:initialization.obj
 0001:0002add9       ___acrt_thread_attach      1002bdd9 f   libucrt:initialization.obj
 0001:0002ade4       ___acrt_thread_detach      1002bde4 f   libucrt:initialization.obj
 0001:0002adec       ___acrt_uninitialize       1002bdec f   libucrt:initialization.obj
 0001:0002adfe       ___acrt_uninitialize_critical 1002bdfe f   libucrt:initialization.obj
 0001:0002ae10       __initterm                 1002be10 f   libucrt:initterm.obj
 0001:0002ae6c       __initterm_e               1002be6c f   libucrt:initterm.obj
 0001:0002aeb1       _terminate                 1002beb1 f   libucrt:terminate.obj
 0001:0002aeed       _strcpy_s                  1002beed f   libucrt:strcpy_s.obj
 0001:0002af47       ??$?RV<lambda_a048d3beccc847880fc8490e18b82769>@@AAV<lambda_ec61778202f4f5fc7e7711acc23c3bca>@@V<lambda_f7496a158712204296dd6628a163878e>@@@?$__crt_seh_guarded_call@P6AXH@Z@@QAEP6AXH@Z$$QAV<lambda_a048d3beccc847880fc8490e18b82769>@@AAV<lambda_ec61778202f4f5fc7e7711acc23c3bca>@@$$QAV<lambda_f7496a158712204296dd6628a163878e>@@@Z 1002bf47 f i libucrt:signal.obj
 0001:0002afa1       ??$__acrt_lock_and_call@V<lambda_ec61778202f4f5fc7e7711acc23c3bca>@@@@YAP6AXH@ZW4__acrt_lock_id@@$$QAV<lambda_ec61778202f4f5fc7e7711acc23c3bca>@@@Z 1002bfa1 f i libucrt:signal.obj
 0001:0002b035       ___acrt_get_sigabrt_handler 1002c035 f   libucrt:signal.obj
 0001:0002b04c       ___acrt_initialize_signal_handlers 1002c04c f   libucrt:signal.obj
 0001:0002b087       ___fpecode                 1002c087 f   libucrt:signal.obj
 0001:0002b090       _raise                     1002c090 f   libucrt:signal.obj
 0001:0002b298       __fileno                   1002c298 f   libucrt:fileno.obj
 0001:0002b684       ___acrt_stdio_flush_and_write_narrow_nolock 1002c684 f   libucrt:_flsbuf.obj
 0001:0002b68f       ___acrt_stdio_flush_and_write_wide_nolock 1002c68f f   libucrt:_flsbuf.obj
 0001:0002b806       ___acrt_initialize_lowio   1002c806 f   libucrt:ioinit.obj
 0001:0002b85c       ___acrt_uninitialize_lowio 1002c85c f   libucrt:ioinit.obj
 0001:0002b888       ??$?RV<lambda_3518db117f0e7cdb002338c5d3c47b6c>@@AAV<lambda_b2ea41f6bbb362cd97d94c6828d90b61>@@V<lambda_abdedf541bb04549bc734292b4a045d4>@@@?$__crt_seh_guarded_call@X@@QAEX$$QAV<lambda_3518db117f0e7cdb002338c5d3c47b6c>@@AAV<lambda_b2ea41f6bbb362cd97d94c6828d90b61>@@$$QAV<lambda_abdedf541bb04549bc734292b4a045d4>@@@Z 1002c888 f i libucrt:per_thread_data.obj
 0001:0002b8d8       ??$?RV<lambda_51b6e8b1eb166f2a3faf91f424b38130>@@AAV<lambda_6250bd4b2a391816dd638c3bf72b0bcb>@@V<lambda_0b5a4a3e68152e1d9b943535f5f47bed>@@@?$__crt_seh_guarded_call@X@@QAEX$$QAV<lambda_51b6e8b1eb166f2a3faf91f424b38130>@@AAV<lambda_6250bd4b2a391816dd638c3bf72b0bcb>@@$$QAV<lambda_0b5a4a3e68152e1d9b943535f5f47bed>@@@Z 1002c8d8 f i libucrt:per_thread_data.obj
 0001:0002b939       ??$?RV<lambda_5b71d36f03204c0beab531769a5b5694>@@AAV<lambda_be2b3da3f62db62e9dad5dc70221a656>@@V<lambda_8f9ce462984622f9bf76b59e2aaaf805>@@@?$__crt_seh_guarded_call@X@@QAEX$$QAV<lambda_5b71d36f03204c0beab531769a5b5694>@@AAV<lambda_be2b3da3f62db62e9dad5dc70221a656>@@$$QAV<lambda_8f9ce462984622f9bf76b59e2aaaf805>@@@Z 1002c939 f i libucrt:per_thread_data.obj
 0001:0002b984       ??$?RV<lambda_9df27f884b057bc3edfc946cb5b7cf47>@@AAV<lambda_e69574bed617af4e071282c136b37893>@@V<lambda_cc0d902bcbbeb830f749456577db4721>@@@?$__crt_seh_guarded_call@X@@QAEX$$QAV<lambda_9df27f884b057bc3edfc946cb5b7cf47>@@AAV<lambda_e69574bed617af4e071282c136b37893>@@$$QAV<lambda_cc0d902bcbbeb830f749456577db4721>@@@Z 1002c984 f i libucrt:per_thread_data.obj
 0001:0002b9cc       ??$__acrt_lock_and_call@V<lambda_6250bd4b2a391816dd638c3bf72b0bcb>@@@@YAXW4__acrt_lock_id@@$$QAV<lambda_6250bd4b2a391816dd638c3bf72b0bcb>@@@Z 1002c9cc f i libucrt:per_thread_data.obj
 0001:0002b9f4       ??$__acrt_lock_and_call@V<lambda_b2ea41f6bbb362cd97d94c6828d90b61>@@@@YAXW4__acrt_lock_id@@$$QAV<lambda_b2ea41f6bbb362cd97d94c6828d90b61>@@@Z 1002c9f4 f i libucrt:per_thread_data.obj
 0001:0002ba1c       ??$__acrt_lock_and_call@V<lambda_be2b3da3f62db62e9dad5dc70221a656>@@@@YAXW4__acrt_lock_id@@$$QAV<lambda_be2b3da3f62db62e9dad5dc70221a656>@@@Z 1002ca1c f i libucrt:per_thread_data.obj
 0001:0002ba44       ??$__acrt_lock_and_call@V<lambda_e69574bed617af4e071282c136b37893>@@@@YAXW4__acrt_lock_id@@$$QAV<lambda_e69574bed617af4e071282c136b37893>@@@Z 1002ca44 f i libucrt:per_thread_data.obj
 0001:0002bbfa       ___acrt_freeptd            1002cbfa f   libucrt:per_thread_data.obj
 0001:0002bc26       ___acrt_getptd             1002cc26 f   libucrt:per_thread_data.obj
 0001:0002bcaa       ___acrt_getptd_noexit      1002ccaa f   libucrt:per_thread_data.obj
 0001:0002bd2f       ___acrt_initialize_ptd     1002cd2f f   libucrt:per_thread_data.obj
 0001:0002bd5b       ___acrt_uninitialize_ptd   1002cd5b f   libucrt:per_thread_data.obj
 0001:0002bd75       ??$?RV<lambda_61cee617f5178ae960314fd4d05640a0>@@AAV<lambda_6978c1fb23f02e42e1d9e99668cc68aa>@@V<lambda_9cd88cf8ad10232537feb2133f08c833>@@@?$__crt_seh_guarded_call@H@@QAEH$$QAV<lambda_61cee617f5178ae960314fd4d05640a0>@@AAV<lambda_6978c1fb23f02e42e1d9e99668cc68aa>@@$$QAV<lambda_9cd88cf8ad10232537feb2133f08c833>@@@Z 1002cd75 f i libucrt:commit.obj
 0001:0002be0d       ??$__acrt_lowio_lock_fh_and_call@V<lambda_6978c1fb23f02e42e1d9e99668cc68aa>@@@@YAHH$$QAV<lambda_6978c1fb23f02e42e1d9e99668cc68aa>@@@Z 1002ce0d f i libucrt:commit.obj
 0001:0002be35       __commit                   1002ce35 f   libucrt:commit.obj
 0001:0002c434       __write                    1002d434 f   libucrt:write.obj
 0001:0002c51f       __write_nolock             1002d51f f   libucrt:write.obj
 0001:0002c72b       ??$?RV<lambda_123407a5e2ac06da108355a851863b7a>@@AAV<lambda_2fe9b910cf3cbf4a0ab98a02ba45b3ec>@@V<lambda_ae55bdf541ad94d75914d381c370e64d>@@@?$__crt_seh_guarded_call@H@@QAEH$$QAV<lambda_123407a5e2ac06da108355a851863b7a>@@AAV<lambda_2fe9b910cf3cbf4a0ab98a02ba45b3ec>@@$$QAV<lambda_ae55bdf541ad94d75914d381c370e64d>@@@Z 1002d72b f i libucrt:close.obj
 0001:0002c7ad       ??$__acrt_lowio_lock_fh_and_call@V<lambda_2fe9b910cf3cbf4a0ab98a02ba45b3ec>@@@@YAHH$$QAV<lambda_2fe9b910cf3cbf4a0ab98a02ba45b3ec>@@@Z 1002d7ad f i libucrt:close.obj
 0001:0002c7d5       __close                    1002d7d5 f   libucrt:close.obj
 0001:0002c854       __close_nolock             1002d854 f   libucrt:close.obj
 0001:0002c8f0       ?__acrt_stdio_allocate_stream@@YA?AV__crt_stdio_stream@@XZ 1002d8f0 f   libucrt:stream.obj
 0001:0002c94f       ?__acrt_stdio_free_stream@@YAXV__crt_stdio_stream@@@Z 1002d94f f   libucrt:stream.obj
 0001:0002ca4d       ___acrt_stdio_free_buffer_nolock 1002da4d f   libucrt:_freebuf.obj
 0001:0002ca8b       ___acrt_update_locale_info 1002da8b f   libucrt:locale_update.obj
 0001:0002cab8       ___acrt_update_multibyte_info 1002dab8 f   libucrt:locale_update.obj
 0001:0002cae5       ??$?RV<lambda_70818de7b02deff9841e8b0962a60ed9>@@AAV<lambda_2af78c5f5901b1372d98f9ab3177dfa6>@@AAV<lambda_f51fe5fd7c79a33db34fc9310f277369>@@@?$__crt_seh_guarded_call@X@@QAEX$$QAV<lambda_70818de7b02deff9841e8b0962a60ed9>@@AAV<lambda_2af78c5f5901b1372d98f9ab3177dfa6>@@AAV<lambda_f51fe5fd7c79a33db34fc9310f277369>@@@Z 1002dae5 f i libucrt:wsetlocale.obj
 0001:0002cb20       ??$?RV<lambda_c76fdea48760d5f9368b465f31df4405>@@AAV<lambda_e378711a6f6581bf7f0efd7cdf97f5d9>@@V<lambda_e927a58b2a85c081d733e8c6192ae2d2>@@@?$__crt_seh_guarded_call@X@@QAEX$$QAV<lambda_c76fdea48760d5f9368b465f31df4405>@@AAV<lambda_e378711a6f6581bf7f0efd7cdf97f5d9>@@$$QAV<lambda_e927a58b2a85c081d733e8c6192ae2d2>@@@Z 1002db20 f i libucrt:wsetlocale.obj
 0001:0002cb63       ??$__acrt_lock_and_call@V<lambda_e378711a6f6581bf7f0efd7cdf97f5d9>@@@@YAXW4__acrt_lock_id@@$$QAV<lambda_e378711a6f6581bf7f0efd7cdf97f5d9>@@@Z 1002db63 f i libucrt:wsetlocale.obj
 0001:0002cce5       ___acrt_copy_locale_name   1002dce5 f   libucrt:wsetlocale.obj
 0001:0002cd4b       ___acrt_set_locale_changed 1002dd4b f   libucrt:wsetlocale.obj
 0001:0002cd56       ___acrt_uninitialize_locale 1002dd56 f   libucrt:wsetlocale.obj
 0001:0002cda8       ___lc_lctowcs              1002dda8 f   libucrt:wsetlocale.obj
 0001:0002ce18       ___lc_wcstolc              1002de18 f   libucrt:wsetlocale.obj
 0001:0002cf76       __expandlocale             1002df76 f   libucrt:wsetlocale.obj
 0001:0002d2ed       __wcscats                  1002e2ed f   libucrt:wsetlocale.obj
 0001:0002d32e       __wsetlocale               1002e32e f   libucrt:wsetlocale.obj
 0001:0002dbf8       _strtol                    1002ebf8 f   libucrt:strtox.obj
 0001:0002dc24       _wcstol                    1002ec24 f   libucrt:strtox.obj
 0001:0002dc50       __mbtowc_l                 1002ec50 f   libucrt:mbtowc.obj
 0001:0002dd4a       _mbtowc                    1002ed4a f   libucrt:mbtowc.obj
 0001:0002dd64       __wctomb_s_l               1002ed64 f   libucrt:wctomb.obj
 0001:0002de85       _wctomb_s                  1002ee85 f   libucrt:wctomb.obj
 0001:0002dea2       ?__acrt_fp_classify@@YA?AW4__acrt_fp_class@@ABN@Z 1002eea2 f i libucrt:cvt.obj
 0001:0002df0e       ?__acrt_fp_is_negative@@YA_NABN@Z 1002ef0e f i libucrt:cvt.obj
 0001:0002e76d       ___acrt_fp_format          1002f76d f   libucrt:cvt.obj
 0001:0002e8e9       __fputwc_nolock            1002f8e9 f   libucrt:fputwc.obj
 0001:0002ea0f       __get_printf_count_output  1002fa0f f   libucrt:printf_count_output.obj
 0001:0002ea24       ___acrt_stdio_begin_temporary_buffering_nolock 1002fa24 f   libucrt:_sftbuf.obj
 0001:0002ead9       ___acrt_stdio_end_temporary_buffering_nolock 1002fad9 f   libucrt:_sftbuf.obj
 0001:0002ec93       ___acrt_stdio_refill_and_read_narrow_nolock 1002fc93 f   libucrt:_filbuf.obj
 0001:0002ece4       ??$?RV<lambda_9227be29367c048ad7fd93a717dcb1a1>@@AAV<lambda_a463b7b0560cfcaf9b17f27c6ef46564>@@V<lambda_ccea11b5727ccf69be64f5f5d9a08d9f>@@@?$__crt_seh_guarded_call@H@@QAEH$$QAV<lambda_9227be29367c048ad7fd93a717dcb1a1>@@AAV<lambda_a463b7b0560cfcaf9b17f27c6ef46564>@@$$QAV<lambda_ccea11b5727ccf69be64f5f5d9a08d9f>@@@Z 1002fce4 f i libucrt:winapi_thunks.obj
 0001:0002ed68       ??$__acrt_lock_and_call@V<lambda_a463b7b0560cfcaf9b17f27c6ef46564>@@@@YAHW4__acrt_lock_id@@$$QAV<lambda_a463b7b0560cfcaf9b17f27c6ef46564>@@@Z 1002fd68 f i libucrt:winapi_thunks.obj
 0001:0002eef5       ___acrt_AreFileApisANSI@0  1002fef5 f   libucrt:winapi_thunks.obj
 0001:0002ef43       ___acrt_CompareStringEx@36 1002ff43 f   libucrt:winapi_thunks.obj
 0001:0002efb7       ___acrt_EnumSystemLocalesEx@16 1002ffb7 f   libucrt:winapi_thunks.obj
 0001:0002f024       ___acrt_FlsAlloc@4         10030024 f   libucrt:winapi_thunks.obj
 0001:0002f07a       ___acrt_FlsFree@4          1003007a f   libucrt:winapi_thunks.obj
 0001:0002f0d0       ___acrt_FlsGetValue@4      100300d0 f   libucrt:winapi_thunks.obj
 0001:0002f126       ___acrt_FlsSetValue@8      10030126 f   libucrt:winapi_thunks.obj
 0001:0002f17f       ___acrt_GetDateFormatEx@28 1003017f f   libucrt:winapi_thunks.obj
 0001:0002f201       ___acrt_GetLocaleInfoEx@16 10030201 f   libucrt:winapi_thunks.obj
 0001:0002f26b       ___acrt_GetSystemTimePreciseAsFileTime@4 1003026b f   libucrt:winapi_thunks.obj
 0001:0002f2c1       ___acrt_GetTimeFormatEx@24 100302c1 f   libucrt:winapi_thunks.obj
 0001:0002f331       ___acrt_GetUserDefaultLocaleName@8 10030331 f   libucrt:winapi_thunks.obj
 0001:0002f398       ___acrt_InitializeCriticalSectionEx@12 10030398 f   libucrt:winapi_thunks.obj
 0001:0002f3fa       ___acrt_IsValidLocaleName@4 100303fa f   libucrt:winapi_thunks.obj
 0001:0002f45d       ___acrt_LCIDToLocaleName@16 1003045d f   libucrt:winapi_thunks.obj
 0001:0002f4c7       ___acrt_LCMapStringEx@36   100304c7 f   libucrt:winapi_thunks.obj
 0001:0002f54f       ___acrt_LocaleNameToLCID@8 1003054f f   libucrt:winapi_thunks.obj
 0001:0002f5ab       ___acrt_MessageBoxW@16     100305ab f   libucrt:winapi_thunks.obj
 0001:0002f5f4       ___acrt_can_show_message_box 100305f4 f   libucrt:winapi_thunks.obj
 0001:0002f60d       ___acrt_can_use_vista_locale_apis 1003060d f   libucrt:winapi_thunks.obj
 0001:0002f619       ___acrt_get_parent_window  10030619 f   libucrt:winapi_thunks.obj
 0001:0002f698       ___acrt_initialize_winapi_thunks 10030698 f   libucrt:winapi_thunks.obj
 0001:0002f6be       ___acrt_is_interactive     100306be f   libucrt:winapi_thunks.obj
 0001:0002f764       ___acrt_is_packaged_app    10030764 f   libucrt:winapi_thunks.obj
 0001:0002f7eb       ___acrt_uninitialize_winapi_thunks 100307eb f   libucrt:winapi_thunks.obj
 0001:0002f821       __fcloseall                10030821 f   libucrt:closeall.obj
 0001:0002fdf1       __ftelli64                 10030df1 f   libucrt:ftell.obj
 0001:0002fdfc       __ftelli64_nolock          10030dfc f   libucrt:ftell.obj
 0001:0002fe07       ?initialize@?$dual_state_global@J@__crt_state_management@@QAEXJ@Z 10030e07 f i libucrt:timeset.obj
 0001:0002fe07       ?initialize@?$dual_state_global@P6AXPB_W00II@Z@__crt_state_management@@QAEXQ6AXPB_W00II@Z@Z 10030e07 f i libucrt:invalid_parameter.obj
 0001:0002fe07       ?initialize@?$dual_state_global@P6AHI@Z@__crt_state_management@@QAEXQ6AHI@Z@Z 10030e07 f i libucrt:new_handler.obj
 0001:0002fe07       ?initialize@?$dual_state_global@P6AHPAU_exception@@@Z@__crt_state_management@@QAEXQ6AHPAU_exception@@@Z@Z 10030e07 f i libucrt:matherr.obj
 0001:0002fe07       ?initialize@?$dual_state_global@PAU__crt_locale_data@@@__crt_state_management@@QAEXQAU__crt_locale_data@@@Z 10030e07 f i libucrt:initialization.obj
 0001:0002fe07       ?initialize@?$dual_state_global@H@__crt_state_management@@QAEXH@Z 10030e07 f i libucrt:timeset.obj
 0001:0002fe07       ?initialize@?$dual_state_global@PAPAD@__crt_state_management@@QAEXQAPAD@Z 10030e07 f i libucrt:environment_initialization.obj
 0001:0002fe07       ?initialize@?$dual_state_global@P6AXH@Z@__crt_state_management@@QAEXQ6AXH@Z@Z 10030e07 f i libucrt:signal.obj
 0001:0002fe38       ___acrt_initialize_timeset 10030e38 f   libucrt:timeset.obj
 0001:0002fe6f       ___daylight                10030e6f f   libucrt:timeset.obj
 0001:0002fe75       ___dstbias                 10030e75 f   libucrt:timeset.obj
 0001:0002fe7b       ___timezone                10030e7b f   libucrt:timeset.obj
 0001:0002fe81       ___tzname                  10030e81 f   libucrt:timeset.obj
 0001:0002fe87       __get_daylight             10030e87 f   libucrt:timeset.obj
 0001:0002feb3       __get_dstbias              10030eb3 f   libucrt:timeset.obj
 0001:0002fedf       __get_timezone             10030edf f   libucrt:timeset.obj
 0001:0002ff0b       ??$__crt_time_elapsed_leap_years@H@@YAHH@Z 10030f0b f i libucrt:gmtime.obj
 0001:00030138       ___getgmtimebuf            10031138 f   libucrt:gmtime.obj
 0001:00030176       __gmtime64_s               10031176 f   libucrt:gmtime.obj
 0001:000308c8       ___tzset                   100318c8 f   libucrt:tzset.obj
 0001:00030919       __isindst                  10031919 f   libucrt:tzset.obj
 0001:00030963       _iswctype                  10031963 f   libucrt:iswctype.obj
 0001:000309c2       __isctype_l                100319c2 f   libucrt:isctype.obj
 0001:00030a94       ___acrt_stdio_allocate_buffer_nolock 10031a94 f   libucrt:_getbuf.obj
 0001:00030af1       __dsign                    10031af1 f   libucrt:nan.obj
 0001:00030b01       __errcode                  10031b01 f   libucrt:fpexcept.obj
 0001:00030b35       __except1                  10031b35 f   libucrt:fpexcept.obj
 0001:00030c03       __handle_exc               10031c03 f   libucrt:fpexcept.obj
 0001:00030de3       __raise_exc                10031de3 f   libucrt:fpexcept.obj
 0001:00030e06       __raise_exc_ex             10031e06 f   libucrt:fpexcept.obj
 0001:000310f7       __set_errno_from_matherr   100320f7 f   libucrt:fpexcept.obj
 0001:00031126       __umatherr                 10032126 f   libucrt:fpexcept.obj
 0001:000311c8       __decomp                   100321c8 f   libucrt:util.obj
 0001:0003129c       __set_exp                  1003229c f   libucrt:util.obj
 0001:000312cb       __sptype                   100322cb f   libucrt:util.obj
 0001:00031329       __clrfp                    10032329 f   libucrt:fpctrl.obj
 0001:0003133c       __ctrlfp                   1003233c f   libucrt:fpctrl.obj
 0001:00031368       __set_statfp               10032368 f   libucrt:fpctrl.obj
 0001:000313c3       __statfp                   100323c3 f   libucrt:fpctrl.obj
 0001:000313d5       _fegetround                100323d5 f   libucrt:fegetround.obj
 0001:00031563       __lseeki64                 10032563 f   libucrt:lseek.obj
 0001:0003157e       __lseeki64_nolock          1003257e f   libucrt:lseek.obj
 0001:00031599       __query_app_type           10032599 f   libucrt:report_runtime_error.obj
 0001:0003168c       __itow_s                   1003268c f   libucrt:xtoa.obj
 0001:000316c1       __set_error_mode           100326c1 f   libucrt:set_error_mode.obj
 0001:00031700       _wcscat_s                  10032700 f   libucrt:wcscat_s.obj
 0001:0003185e       _wcsncat_s                 1003285e f   libucrt:wcsncat_s.obj
 0001:00031964       ___acrt_show_wide_message_box 10032964 f   libucrt:crtmbox.obj
 0001:00031ae8       __mbstowcs_s_l             10032ae8 f   libucrt:mbstowcs.obj
 0001:00031bcb       _mbstowcs_s                10032bcb f   libucrt:mbstowcs.obj
 0001:00031e6c       __wcstombs_s_l             10032e6c f   libucrt:wcstombs.obj
 0001:00031f39       ??$__acrt_stdio_parse_mode@D@@YA?AU__acrt_stdio_stream_mode@@QBD@Z 10032f39 f i libucrt:openfile.obj
 0001:000321f0       ?__acrt_stdio_parse_mode_D@@YA_NAAU__acrt_stdio_stream_mode@@@Z 100331f0 f i libucrt:openfile.obj
 0001:0003220b       ?__acrt_stdio_parse_mode_T@@YA_NAAU__acrt_stdio_stream_mode@@@Z 1003320b f i libucrt:openfile.obj
 0001:0003222a       ?__acrt_stdio_parse_mode_b@@YA_NAAU__acrt_stdio_stream_mode@@@Z 1003322a f i libucrt:openfile.obj
 0001:0003224a       ?__acrt_stdio_parse_mode_c@@YA_NAAU__acrt_stdio_stream_mode@@AA_N@Z 1003324a f i libucrt:openfile.obj
 0001:0003226c       ?__acrt_stdio_parse_mode_n@@YA_NAAU__acrt_stdio_stream_mode@@AA_N@Z 1003326c f i libucrt:openfile.obj
 0001:0003228e       ?__acrt_stdio_parse_mode_plus@@YA_NAAU__acrt_stdio_stream_mode@@AA_N@Z 1003328e f i libucrt:openfile.obj
 0001:000322c3       ?__acrt_stdio_parse_mode_t@@YA_NAAU__acrt_stdio_stream_mode@@@Z 100332c3 f i libucrt:openfile.obj
 0001:000322e3       __openfile                 100332e3 f   libucrt:openfile.obj
 0001:000322ee       __query_new_mode           100332ee f   libucrt:new_mode.obj
 0001:000322f4       ___acrt_initialize_heap    100332f4 f   libucrt:heap_handle.obj
 0001:00032305       ___acrt_uninitialize_heap  10033305 f   libucrt:heap_handle.obj
 0001:0003240a       ___acrt_GetLocaleInfoA     1003340a f   libucrt:getlocaleinfoa.obj
 0001:000325bc       ___acrt_GetStringTypeA     100335bc f   libucrt:getstringtypea.obj
 0001:000328f6       ___acrt_LCMapStringA       100338f6 f   libucrt:lcmapstringa.obj
 0001:00032941       __fpclass                  10033941 f   libucrt:ieeemisc.obj
 0001:000329e5       ___acrt_initialize_sse2    100339e5 f   libucrt:mathfcns.obj
 0001:00032a00       __CIpow_pentium4           10033a00 f   libucrt:pow_pentium4.obj
 0001:00032a19       __pow_pentium4             10033a19     libucrt:pow_pentium4.obj
 0001:00033531       __fFEXP                    10034531     libucrt:87tran.obj
 0001:00033588       __rtinfpopse               10034588     libucrt:87tran.obj
 0001:0003358a       __rtinfnpopse              1003458a     libucrt:87tran.obj
 0001:0003359a       __fFLN                     1003459a     libucrt:87tran.obj
 0001:0003364f       __rtinfpop                 1003464f     libucrt:87tran.obj
 0001:00033651       __rtinfnpop                10034651     libucrt:87tran.obj
 0001:0003366e       __ffexpm1                  1003466e     libucrt:87tran.obj
 0001:00033720       __trandisp1                10034720 f   libucrt:87disp.obj
 0001:00033787       __trandisp2                10034787 f   libucrt:87disp.obj
 0001:00033813       __rttospopde               10034813     libucrt:87disp.obj
 0001:00033818       __rttospop                 10034818     libucrt:87disp.obj
 0001:0003381a       __rtnospop                 1003481a     libucrt:87disp.obj
 0001:0003381c       __rttosnpop                1003481c     libucrt:87disp.obj
 0001:0003381d       __rtnospopde               1003481d     libucrt:87disp.obj
 0001:00033824       __rtzeropop                10034824     libucrt:87disp.obj
 0001:00033826       __rtzeronpop               10034826     libucrt:87disp.obj
 0001:0003382b       __rtzerospop               1003482b     libucrt:87disp.obj
 0001:00033838       __rtonepop                 10034838     libucrt:87disp.obj
 0001:0003383a       __rtonenpop                1003483a     libucrt:87disp.obj
 0001:0003383f       __tosnan1                  1003483f     libucrt:87disp.obj
 0001:0003386a       __nosnan2                  1003486a     libucrt:87disp.obj
 0001:0003386c       __tosnan2                  1003486c     libucrt:87disp.obj
 0001:00033894       __nan2                     10034894     libucrt:87disp.obj
 0001:000338d3       __rtindfpop                100348d3     libucrt:87disp.obj
 0001:000338d5       __rtindfnpop               100348d5     libucrt:87disp.obj
 0001:000338e6       __rttosnpopde              100348e6     libucrt:87disp.obj
 0001:000338f0       __rtatan2inf               100348f0     libucrt:87disp.obj
 0001:0003390d       __rtchsifneg               1003490d     libucrt:87disp.obj
 0001:00033920       __startTwoArgErrorHandling 10034920 f   libucrt:genexcep.obj
 0001:00033937       __startOneArgErrorHandling 10034937 f   libucrt:genexcep.obj
 0001:00033980       __twoToTOS                 10034980 f   libucrt:common.obj
 0001:00033995       __load_CW                  10034995 f   libucrt:common.obj
 0001:000339ac       __convertTOStoQNaN         100349ac f   libucrt:common.obj
 0001:000339c5       __fload_withFB             100349c5 f   libucrt:common.obj
 0001:00033a08       __checkTOS_withFB          10034a08 f   libucrt:common.obj
 0001:00033a1e       __fast_exit                10034a1e f   libucrt:common.obj
 0001:00033a2b       __math_exit                10034a2b f   libucrt:common.obj
 0001:00033a55       __check_overflow_exit      10034a55 f   libucrt:common.obj
 0001:00033a69       __check_range_exit         10034a69 f   libucrt:common.obj
 0001:00033b0c       __d_inttype                10034b0c f   libucrt:powhlp.obj
 0001:00033b76       __powhlp                   10034b76 f   libucrt:powhlp.obj
 0001:00033ca1       __wcsicmp                  10034ca1 f   libucrt:wcsicmp.obj
 0001:00033d36       __wcsicmp_l                10034d36 f   libucrt:wcsicmp.obj
 0001:00033e16       __isleadbyte_l             10034e16 f i libucrt:_wctype.obj
 0001:00034211       ??1?$argument_list@D@?A0xb0e4b824@@QAE@XZ 10035211 f i libucrt:argv_wildcards.obj
 0001:00034236       ?append@?$argument_list@D@?A0xb0e4b824@@QAEHQAD@Z 10035236 f i libucrt:argv_wildcards.obj
 0001:0003426b       ?expand_if_necessary@?$argument_list@D@?A0xb0e4b824@@AAEHXZ 1003526b f i libucrt:argv_wildcards.obj
 0001:000342f2       ___acrt_expand_narrow_argv_wildcards 100352f2 f   libucrt:argv_wildcards.obj
 0001:000342fd       ??$?RV<lambda_978dc153c237d78434369da87b74ff60>@@AAV<lambda_ad1ced32f4ac17aa236e5ef05d6b3b7c>@@V<lambda_4a8533e2866a575feecb8298ce776b0d>@@@?$__crt_seh_guarded_call@X@@QAEX$$QAV<lambda_978dc153c237d78434369da87b74ff60>@@AAV<lambda_ad1ced32f4ac17aa236e5ef05d6b3b7c>@@$$QAV<lambda_4a8533e2866a575feecb8298ce776b0d>@@@Z 100352fd f i libucrt:mbctype.obj
 0001:00034340       ??$__acrt_lock_and_call@V<lambda_ad1ced32f4ac17aa236e5ef05d6b3b7c>@@@@YAXW4__acrt_lock_id@@$$QAV<lambda_ad1ced32f4ac17aa236e5ef05d6b3b7c>@@@Z 10035340 f i libucrt:mbctype.obj
 0001:000347d7       ___acrt_initialize_multibyte 100357d7 f   libucrt:mbctype.obj
 0001:000347f5       ___acrt_update_thread_multibyte_data 100357f5 f   libucrt:mbctype.obj
 0001:00034897       __setmbcp_nolock           10035897 f   libucrt:mbctype.obj
 0001:00034a88       ___acrt_initialize_command_line 10035a88 f   libucrt:argv_data.obj
 0001:00034ad8       ___dcrt_get_narrow_environment_from_os 10035ad8 f   libucrt:get_environment_from_os.obj
 0001:00034e9b       ___dcrt_set_variable_in_narrow_environment_nolock 10035e9b f   libucrt:setenv.obj
 0001:00034ea6       __recalloc                 10035ea6 f   libucrt:recalloc.obj
 0001:00034eb1       __recalloc_base            10035eb1 f   libucrt:recalloc.obj
 0001:00034f1e       ___acrt_execute_initializers 10035f1e f   libucrt:shared_initialization.obj
 0001:00034fa1       ___acrt_execute_uninitializers 10035fa1 f   libucrt:shared_initialization.obj
 0001:00034fee       ___acrt_has_user_matherr   10035fee f   libucrt:matherr.obj
 0001:00035007       ___acrt_initialize_user_matherr 10036007 f   libucrt:matherr.obj
 0001:0003501b       ___acrt_invoke_user_matherr 1003601b f   libucrt:matherr.obj
 0001:00035064       __isatty                   10036064 f   libucrt:isatty.obj
 0001:000350ba       ___acrt_lowio_create_handle_array 100360ba f   libucrt:osfinfo.obj
 0001:00035134       ___acrt_lowio_destroy_handle_array 10036134 f   libucrt:osfinfo.obj
 0001:00035169       ___acrt_lowio_ensure_fh_exists 10036169 f   libucrt:osfinfo.obj
 0001:00035201       ___acrt_lowio_lock_fh      10036201 f   libucrt:osfinfo.obj
 0001:00035224       ___acrt_lowio_set_os_handle 10036224 f   libucrt:osfinfo.obj
 0001:000352b8       ___acrt_lowio_unlock_fh    100362b8 f   libucrt:osfinfo.obj
 0001:000352db       __alloc_osfhnd             100362db f   libucrt:osfinfo.obj
 0001:000353ed       __free_osfhnd              100363ed f   libucrt:osfinfo.obj
 0001:0003547e       __get_osfhandle            1003647e f   libucrt:osfinfo.obj
 0001:000354e8       ___acrt_add_locale_ref     100364e8 f   libucrt:locale_refcounting.obj
 0001:00035565       ___acrt_free_locale        10036565 f   libucrt:locale_refcounting.obj
 0001:000356af       ___acrt_locale_add_lc_time_reference 100366af f   libucrt:locale_refcounting.obj
 0001:000356d8       ___acrt_locale_free_lc_time_if_unreferenced 100366d8 f   libucrt:locale_refcounting.obj
 0001:00035708       ___acrt_locale_release_lc_time_reference 10036708 f   libucrt:locale_refcounting.obj
 0001:00035731       ___acrt_release_locale_ref 10036731 f   libucrt:locale_refcounting.obj
 0001:000357b2       ___acrt_update_thread_locale_data 100367b2 f   libucrt:locale_refcounting.obj
 0001:00035829       __updatetlocinfoEx_nolock  10036829 f   libucrt:locale_refcounting.obj
 0001:00035879       __putwch_nolock            10036879 f   libucrt:putwch.obj
 0001:000358be       ___acrt_locale_free_monetary 100368be f   libucrt:initmon.obj
 0001:000359bc       ___acrt_locale_initialize_monetary 100369bc f   libucrt:initmon.obj
 0001:00035d78       ___acrt_locale_free_numeric 10036d78 f   libucrt:initnum.obj
 0001:00035de1       ___acrt_locale_initialize_numeric 10036de1 f   libucrt:initnum.obj
 0001:000362b6       ___acrt_locale_free_time   100372b6 f   libucrt:inittime.obj
 0001:0003639a       ___acrt_locale_initialize_time 1003739a f   libucrt:inittime.obj
 0001:000364e6       _wcsncpy_s                 100374e6 f   libucrt:wcsncpy_s.obj
 0001:000364f1       _wcscspn                   100374f1 f   libucrt:wcscspn.obj
 0001:00036541       _wcsncmp                   10037541 f   libucrt:wcsncmp.obj
 0001:0003657b       _wcspbrk                   1003757b f   libucrt:wcspbrk.obj
 0001:00036cbe       ___acrt_get_qualified_locale 10037cbe f   libucrt:get_qualified_locale.obj
 0001:000375f6       ___acrt_get_qualified_locale_downlevel 100385f6 f   libucrt:getqloc_downlevel.obj
 0001:000377fd       ___acrt_fp_strflt_to_string 100387fd f   libucrt:_fptostr.obj
 0001:000378b9       ??0scoped_fp_state_reset@?A0x48fbfdd4@@QAE@XZ 100388b9 f i libucrt:cfout.obj
 0001:000378e3       ___acrt_fltout             100388e3 f   libucrt:cfout.obj
 0001:00039167       __read                     1003a167 f   libucrt:read.obj
 0001:0003927a       __read_nolock              1003a27a f   libucrt:read.obj
 0001:000396eb       ___acrt_DownlevelLCIDToLocaleName 1003a6eb f   libucrt:lcidtoname_downlevel.obj
 0001:00039795       ___acrt_DownlevelLocaleNameToLCID 1003a795 f   libucrt:lcidtoname_downlevel.obj
 0001:0003992e       _getenv_s                  1003a92e f   libucrt:getenv.obj
 0001:000399ea       _strncpy_s                 1003a9ea f   libucrt:strncpy_s.obj
 0001:00039c98       __getfpcontrolword         1003ac98 f   libucrt:_fenvutils.obj
 0001:00039cdb       __getfpstatusword          1003acdb f   libucrt:_fenvutils.obj
 0001:00039d83       __setfpcontrolword         1003ad83 f   libucrt:_fenvutils.obj
 0001:00039e03       __setfpstatusword          1003ae03 f   libucrt:_fenvutils.obj
 0001:00039e83       __wcsnicmp                 1003ae83 f   libucrt:wcsnicmp.obj
 0001:00039f3b       __wcsnicmp_l               1003af3b f   libucrt:wcsnicmp.obj
 0001:0003a040       _strncmp                   1003b040 f   libucrt:strncmp.obj
 0001:0003a0b8       __strnicmp                 1003b0b8 f   libucrt:strnicmp.obj
 0001:0003a124       __strnicmp_l               1003b124 f   libucrt:strnicmp.obj
 0001:0003a7b5       __sopen_nolock             1003b7b5 f   libucrt:open.obj
 0001:0003a806       __sopen_s                  1003b806 f   libucrt:open.obj
 0001:0003a826       __wsopen_nolock            1003b826 f   libucrt:open.obj
 0001:0003ab4f       ___libm_error_support      1003bb4f f   libucrt:libm_error.obj
 0001:0003ad67       __87except                 1003bd67 f   libucrt:87except.obj
 0001:0003ae72       __frnd                     1003be72 f   libucrt:frnd.obj
 0001:0003ae88       __towlower_l               1003be88 f   libucrt:towlower.obj
 0001:0003b040       _qsort                     1003c040 f   libucrt:qsort.obj
 0001:0003b3e0       _strpbrk                   1003c3e0 f   libucrt:strpbrk.obj
 0001:0003b420       __mbsdec                   1003c420 f   libucrt:mbsdec.obj
 0001:0003b437       __mbsdec_l                 1003c437 f   libucrt:mbsdec.obj
 0001:0003b4d3       __strnicoll                1003c4d3 f   libucrt:strnicol.obj
 0001:0003b4fc       __strnicoll_l              1003c4fc f   libucrt:strnicol.obj
 0001:0003b5c6       __msize                    1003c5c6 f   libucrt:msize.obj
 0001:0003b5f9       ___dcrt_lowio_initialize_console_output 1003c5f9 f   libucrt:initcon.obj
 0001:0003b618       ___dcrt_terminate_console_output 1003c618 f   libucrt:initcon.obj
 0001:0003b62f       _fegetenv                  1003c62f f   libucrt:fegetenv.obj
 0001:0003b64c       _fesetenv                  1003c64c f   libucrt:fesetenv.obj
 0001:0003b695       _feholdexcept              1003c695 f   libucrt:feholdexcept.obj
 0001:0003b6f0       _log10                     1003c6f0 f   libucrt:log10.obj
 0001:0003b730       __CIlog10                  1003c730 f   libucrt:log10.obj
 0001:0003b76b       __CIlog10_default          1003c76b f   libucrt:log10.obj
 0001:0003b77f       __log10_default            1003c77f     libucrt:log10.obj
 0001:0003b840       _ceil                      1003c840 f   libucrt:ceil_pentium4.obj
 0001:0003b880       __ceil_pentium4            1003c880 f   libucrt:ceil_pentium4.obj
 0001:0003b960       ___ascii_strnicmp          1003c960 f   libucrt:_strnicm.obj
 0001:0003b9c1       __get_fmode                1003c9c1 f   libucrt:setmode.obj
 0001:0003b9ed       __setmode_nolock           1003c9ed f   libucrt:setmode.obj
 0001:0003babe       ___acrt_copy_path_to_wide_string 1003cabe f   libucrt:string_utilities.obj
 0001:0003bb85       __chsize_nolock            1003cb85 f   libucrt:chsize.obj
 0001:0003bd16       ___acrt_LCMapStringW       1003cd16 f   libucrt:lcmapstringw.obj
 0001:0003bffc       ___acrt_CompareStringA     1003cffc f   libucrt:comparestringa.obj
 0001:0003c044       __clearfp                  1003d044 f   libucrt:ieee87.obj
 0001:0003c130       __CIlog10_pentium4         1003d130 f   libucrt:log10_pentium4.obj
 0001:0003c148       __log10_pentium4           1003d148     libucrt:log10_pentium4.obj
 0001:0003c3c0       __ceil_default             1003d3c0 f   libucrt:ceil.obj
 0001:0003c47a       _IsProcessorFeaturePresent@4 1003d47a f   kernel32:KERNEL32.dll
 0001:0003c480       _RtlUnwind@16              1003d480 f   kernel32:KERNEL32.dll
 0001:0003c486       ?DloadAcquireSectionWriteAccess@@YGXXZ 1003d486 f i DelayImp:delayhlp.obj
 0001:0003c4b9       ?DloadGetSRWLockFunctionPointers@@YGEXZ 1003d4b9 f i DelayImp:delayhlp.obj
 0001:0003c534       ?DloadLock@@YGXXZ          1003d534 f i DelayImp:delayhlp.obj
 0001:0003c591       ?DloadMakePermanentImageCommit@@YGXPAXK@Z 1003d591 f i DelayImp:delayhlp.obj
 0001:0003c603       ?DloadObtainSection@@YGPAXPAK0@Z 1003d603 f i DelayImp:delayhlp.obj
 0001:0003c686       ?DloadProtectSection@@YGXKPAK@Z 1003d686 f i DelayImp:delayhlp.obj
 0001:0003c6f6       ?DloadReleaseSectionWriteAccess@@YGXXZ 1003d6f6 f i DelayImp:delayhlp.obj
 0001:0003c72e       ?DloadUnlock@@YGXXZ        1003d72e f i DelayImp:delayhlp.obj
 0001:0003c778       ___delayLoadHelper2@8      1003d778 f   DelayImp:delayhlp.obj
 0001:0003ca00       __FindPESection            1003da00 f   LIBCMT:pesect.obj
 0001:0003ca50       __IsNonwritableInCurrentImage 1003da50 f   LIBCMT:pesect.obj
 0001:0003cb10       __ValidateImageBase        1003db10 f   LIBCMT:pesect.obj
 0001:0003cb50       __aulldvrm                 1003db50 f   LIBCMT:ulldvrm.obj
 0001:0003cbf0       __alldvrm                  1003dbf0 f   LIBCMT:lldvrm.obj
 0001:0003ccd0       __alldiv                   1003dcd0 f   LIBCMT:lldiv.obj
 0001:0003cd80       __allrem                   1003dd80 f   LIBCMT:llrem.obj
 0001:0003ce40       __allshl                   1003de40 f   LIBCMT:llshl.obj
 0001:0003ce60       __aullshr                  1003de60 f   LIBCMT:ullshr.obj
 0001:0003ce80       __SEH_prolog4_GS           1003de80 f   LIBCMT:_sehprolg4gs_.obj
 0001:0003cec9       __SEH_epilog4_GS           1003dec9 f   LIBCMT:_sehprolg4gs_.obj
 0001:0003cee0       __ftol2_sse                1003dee0 f   LIBCMT:_ftol2_.obj
 0001:0003cee9       __ftol2_pentium4           1003dee9 f   LIBCMT:_ftol2_.obj
 0001:0003cefc       __ftol2_sse_excpt          1003defc f   LIBCMT:_ftol2_.obj
 0001:0003cf20       __ftol2                    1003df20 f   LIBCMT:_ftol2_.obj
 0001:0003cfa0       _strrchr                   1003dfa0 f   libvcruntime:strrchr.obj
 0001:0003d0e0       _strchr                    1003e0e0 f   libvcruntime:strchr.obj
 0001:0003d14e       ___from_strstr_to_strchr   1003e14e     libvcruntime:strchr.obj
 0001:0003d20b       _wcschr                    1003e20b f   libvcruntime:wcschr.obj
 0001:0003d2c0       __libm_sse2_log_precise    1003e2c0 f   libucrt:log_sse2_precise.obj
 0001:0003d550       _log                       1003e550 f   libucrt:log.obj
 0001:0003d590       __CIlog                    1003e590 f   libucrt:log.obj
 0001:0003d5cb       __CIlog_default            1003e5cb f   libucrt:log.obj
 0001:0003d5df       __log_default              1003e5df     libucrt:log.obj
 0001:0003d6a0       __CIlog_pentium4           1003e6a0 f   libucrt:log_pentium4.obj
 0001:0003d6b8       __log_pentium4             1003e6b8     libucrt:log_pentium4.obj
 0001:0003f2c0       ??__F_Static@?1???$_Immortalize@V_Iostream_error_category@std@@@std@@YAAAV_Iostream_error_category@0@XZ@YAXXZ 100402c0 f i nodejieba.obj
 0002:00000000       __imp__GetModuleHandleA@4  10041000     kernel32:KERNEL32.dll
 0002:00000004       __imp__WideCharToMultiByte@32 10041004     kernel32:KERNEL32.dll
 0002:00000008       __imp__EnterCriticalSection@4 10041008     kernel32:KERNEL32.dll
 0002:0000000c       __imp__LeaveCriticalSection@4 1004100c     kernel32:KERNEL32.dll
 0002:00000010       __imp__DeleteCriticalSection@4 10041010     kernel32:KERNEL32.dll
 0002:00000014       __imp__EncodePointer@4     10041014     kernel32:KERNEL32.dll
 0002:00000018       __imp__DecodePointer@4     10041018     kernel32:KERNEL32.dll
 0002:0000001c       __imp__MultiByteToWideChar@24 1004101c     kernel32:KERNEL32.dll
 0002:00000020       __imp__SetLastError@4      10041020     kernel32:KERNEL32.dll
 0002:00000024       __imp__InitializeCriticalSectionAndSpinCount@8 10041024     kernel32:KERNEL32.dll
 0002:00000028       __imp__CreateEventW@16     10041028     kernel32:KERNEL32.dll
 0002:0000002c       __imp__TlsAlloc@0          1004102c     kernel32:KERNEL32.dll
 0002:00000030       __imp__TlsGetValue@4       10041030     kernel32:KERNEL32.dll
 0002:00000034       __imp__TlsSetValue@8       10041034     kernel32:KERNEL32.dll
 0002:00000038       __imp__TlsFree@4           10041038     kernel32:KERNEL32.dll
 0002:0000003c       __imp__GetSystemTimeAsFileTime@4 1004103c     kernel32:KERNEL32.dll
 0002:00000040       __imp__GetModuleHandleW@4  10041040     kernel32:KERNEL32.dll
 0002:00000044       __imp__GetProcAddress@8    10041044     kernel32:KERNEL32.dll
 0002:00000048       __imp__CompareStringW@24   10041048     kernel32:KERNEL32.dll
 0002:0000004c       __imp__LCMapStringW@24     1004104c     kernel32:KERNEL32.dll
 0002:00000050       __imp__GetLocaleInfoW@16   10041050     kernel32:KERNEL32.dll
 0002:00000054       __imp__GetStringTypeW@16   10041054     kernel32:KERNEL32.dll
 0002:00000058       __imp__GetCPInfo@8         10041058     kernel32:KERNEL32.dll
 0002:0000005c       __imp__CloseHandle@4       1004105c     kernel32:KERNEL32.dll
 0002:00000060       __imp__SetEvent@4          10041060     kernel32:KERNEL32.dll
 0002:00000064       __imp__ResetEvent@4        10041064     kernel32:KERNEL32.dll
 0002:00000068       __imp__WaitForSingleObjectEx@12 10041068     kernel32:KERNEL32.dll
 0002:0000006c       __imp__UnhandledExceptionFilter@4 1004106c     kernel32:KERNEL32.dll
 0002:00000070       __imp__SetUnhandledExceptionFilter@4 10041070     kernel32:KERNEL32.dll
 0002:00000074       __imp__GetCurrentProcess@0 10041074     kernel32:KERNEL32.dll
 0002:00000078       __imp__TerminateProcess@8  10041078     kernel32:KERNEL32.dll
 0002:0000007c       __imp__IsProcessorFeaturePresent@4 1004107c     kernel32:KERNEL32.dll
 0002:00000080       __imp__IsDebuggerPresent@0 10041080     kernel32:KERNEL32.dll
 0002:00000084       __imp__GetStartupInfoW@4   10041084     kernel32:KERNEL32.dll
 0002:00000088       __imp__QueryPerformanceCounter@4 10041088     kernel32:KERNEL32.dll
 0002:0000008c       __imp__GetCurrentProcessId@0 1004108c     kernel32:KERNEL32.dll
 0002:00000090       __imp__GetCurrentThreadId@0 10041090     kernel32:KERNEL32.dll
 0002:00000094       __imp__InitializeSListHead@4 10041094     kernel32:KERNEL32.dll
 0002:00000098       __imp__RtlUnwind@16        10041098     kernel32:KERNEL32.dll
 0002:0000009c       __imp__RaiseException@16   1004109c     kernel32:KERNEL32.dll
 0002:000000a0       __imp__GetLastError@0      100410a0     kernel32:KERNEL32.dll
 0002:000000a4       __imp__FreeLibrary@4       100410a4     kernel32:KERNEL32.dll
 0002:000000a8       __imp__LoadLibraryExW@12   100410a8     kernel32:KERNEL32.dll
 0002:000000ac       __imp__InterlockedFlushSList@4 100410ac     kernel32:KERNEL32.dll
 0002:000000b0       __imp__GetStdHandle@4      100410b0     kernel32:KERNEL32.dll
 0002:000000b4       __imp__GetFileType@4       100410b4     kernel32:KERNEL32.dll
 0002:000000b8       __imp__GetModuleFileNameA@12 100410b8     kernel32:KERNEL32.dll
 0002:000000bc       __imp__GetModuleFileNameW@12 100410bc     kernel32:KERNEL32.dll
 0002:000000c0       __imp__GetModuleHandleExW@12 100410c0     kernel32:KERNEL32.dll
 0002:000000c4       __imp__WriteConsoleW@20    100410c4     kernel32:KERNEL32.dll
 0002:000000c8       __imp__HeapAlloc@12        100410c8     kernel32:KERNEL32.dll
 0002:000000cc       __imp__HeapReAlloc@16      100410cc     kernel32:KERNEL32.dll
 0002:000000d0       __imp__HeapFree@12         100410d0     kernel32:KERNEL32.dll
 0002:000000d4       __imp__ExitProcess@4       100410d4     kernel32:KERNEL32.dll
 0002:000000d8       __imp__FlushFileBuffers@4  100410d8     kernel32:KERNEL32.dll
 0002:000000dc       __imp__WriteFile@20        100410dc     kernel32:KERNEL32.dll
 0002:000000e0       __imp__GetConsoleCP@0      100410e0     kernel32:KERNEL32.dll
 0002:000000e4       __imp__GetConsoleMode@8    100410e4     kernel32:KERNEL32.dll
 0002:000000e8       __imp__GetACP@0            100410e8     kernel32:KERNEL32.dll
 0002:000000ec       __imp__GetDateFormatW@24   100410ec     kernel32:KERNEL32.dll
 0002:000000f0       __imp__GetTimeFormatW@24   100410f0     kernel32:KERNEL32.dll
 0002:000000f4       __imp__IsValidLocale@8     100410f4     kernel32:KERNEL32.dll
 0002:000000f8       __imp__GetUserDefaultLCID@0 100410f8     kernel32:KERNEL32.dll
 0002:000000fc       __imp__EnumSystemLocalesW@8 100410fc     kernel32:KERNEL32.dll
 0002:00000100       __imp__ReadFile@20         10041100     kernel32:KERNEL32.dll
 0002:00000104       __imp__GetTimeZoneInformation@4 10041104     kernel32:KERNEL32.dll
 0002:00000108       __imp__SetFilePointerEx@20 10041108     kernel32:KERNEL32.dll
 0002:0000010c       __imp__OutputDebugStringW@4 1004110c     kernel32:KERNEL32.dll
 0002:00000110       __imp__CreateThread@24     10041110     kernel32:KERNEL32.dll
 0002:00000114       __imp__GetProcessHeap@0    10041114     kernel32:KERNEL32.dll
 0002:00000118       __imp__FindClose@4         10041118     kernel32:KERNEL32.dll
 0002:0000011c       __imp__FindFirstFileExA@24 1004111c     kernel32:KERNEL32.dll
 0002:00000120       __imp__FindNextFileA@8     10041120     kernel32:KERNEL32.dll
 0002:00000124       __imp__IsValidCodePage@4   10041124     kernel32:KERNEL32.dll
 0002:00000128       __imp__GetOEMCP@0          10041128     kernel32:KERNEL32.dll
 0002:0000012c       __imp__GetCommandLineA@0   1004112c     kernel32:KERNEL32.dll
 0002:00000130       __imp__GetCommandLineW@0   10041130     kernel32:KERNEL32.dll
 0002:00000134       __imp__GetEnvironmentStringsW@0 10041134     kernel32:KERNEL32.dll
 0002:00000138       __imp__FreeEnvironmentStringsW@4 10041138     kernel32:KERNEL32.dll
 0002:0000013c       __imp__SetEnvironmentVariableA@8 1004113c     kernel32:KERNEL32.dll
 0002:00000140       __imp__SetStdHandle@8      10041140     kernel32:KERNEL32.dll
 0002:00000144       __imp__ReadConsoleW@20     10041144     kernel32:KERNEL32.dll
 0002:00000148       __imp__CreateFileW@28      10041148     kernel32:KERNEL32.dll
 0002:0000014c       __imp__HeapSize@12         1004114c     kernel32:KERNEL32.dll
 0002:00000150       __imp__SetEndOfFile@4      10041150     kernel32:KERNEL32.dll
 0002:00000154       __imp__GetSystemInfo@4     10041154     kernel32:KERNEL32.dll
 0002:00000158       __imp__VirtualProtect@16   10041158     kernel32:KERNEL32.dll
 0002:0000015c       __imp__VirtualQuery@12     1004115c     kernel32:KERNEL32.dll
 0002:00000160       __imp__LoadLibraryExA@12   10041160     kernel32:KERNEL32.dll
 0002:00000164       \177KERNEL32_NULL_THUNK_DATA 10041164     kernel32:KERNEL32.dll
 0002:00000168       ___guard_check_icall_fptr  10041168     LIBCMT:guard_support.obj
 0002:0000016c       ___xc_a                    1004116c     LIBCMT:initializers.obj
 0002:00000194       __register_nodejieba_      10041194     index.obj
 0002:00000198       ___xc_z                    10041198     LIBCMT:initializers.obj
 0002:0000019c       ___xi_a                    1004119c     LIBCMT:initializers.obj
 0002:000001a8       ___acrt_stdio_initializer  100411a8     libucrt:stdio_initializer.obj
 0002:000001ac       ___acrt_timeset_initializer 100411ac     libucrt:timeset_initializer.obj
 0002:000001b0       ___acrt_tran_sse2_initializer 100411b0     libucrt:sse2_initializer.obj
 0002:000001b4       ___acrt_multibyte_initializer 100411b4     libucrt:multibyte_initializer.obj
 0002:000001b8       ___xi_z                    100411b8     LIBCMT:initializers.obj
 0002:000001bc       ___xl_a                    100411bc     LIBCMT:tlssup.obj
 0002:000001c0       ___xl_z                    100411c0     LIBCMT:tlssup.obj
 0002:000001c4       ___xp_a                    100411c4     LIBCMT:initializers.obj
 0002:000001c8       ___acrt_locale_terminator  100411c8     libucrt:locale_initializer.obj
 0002:000001cc       ___dcrt_console_output_terminator 100411cc     libucrt:console_output_initializer.obj
 0002:000001d0       ___acrt_stdio_terminator   100411d0     libucrt:stdio_initializer.obj
 0002:000001d4       ___xp_z                    100411d4     LIBCMT:initializers.obj
 0002:000001d8       ___xt_a                    100411d8     LIBCMT:initializers.obj
 0002:000001dc       ___xt_z                    100411dc     LIBCMT:initializers.obj
 0002:000001e0       __sz_node_exe              100411e0     node:node.exe
 0002:000001f0       ??_7_Facet_base@std@@6B@   100411f0     libcpmt:locale0.obj
 0002:00000200       ??_7_Locimp@locale@std@@6B@ 10041200     libcpmt:locale0.obj
 0002:0000020c       ??_C@_01NBENCBCI@?$CK?$AA@ 1004120c     libcpmt:locale0.obj
 0002:00000210       ??_C@_01GFHCPBMG@C?$AA@    10041210     libcpmt:locale0.obj
 0002:00000218       ??_7exception@std@@6B@     10041218     libcpmt:xthrow.obj
 0002:00000220       ??_C@_0BC@EOODALEL@Unknown?5exception?$AA@ 10041220     libcpmt:xthrow.obj
 0002:00000238       ??_7bad_alloc@std@@6B@     10041238     libcpmt:xthrow.obj
 0002:00000240       ??_C@_0P@GHFPNOJB@bad?5allocation?$AA@ 10041240     libcpmt:xthrow.obj
 0002:00000254       ??_7logic_error@std@@6B@   10041254     libcpmt:xthrow.obj
 0002:00000260       ??_7length_error@std@@6B@  10041260     libcpmt:xthrow.obj
 0002:0000026c       ??_7out_of_range@std@@6B@  1004126c     libcpmt:xthrow.obj
 0002:00000278       ??_7runtime_error@std@@6B@ 10041278     libcpmt:xthrow.obj
 0002:00000280       ?_BADOFF@std@@3_JB         10041280     libcpmt:ios.obj
 0002:0000028c       ??_7?$ctype@D@std@@6B@     1004128c     libcpmt:cerr.obj
 0002:000002bc       ??_7error_category@std@@6B@ 100412bc     libcpmt:cerr.obj
 0002:000002d8       ??_7_System_error@std@@6B@ 100412d8     libcpmt:cerr.obj
 0002:000002e4       ??_7system_error@std@@6B@  100412e4     libcpmt:cerr.obj
 0002:000002f0       ??_7_Iostream_error_category@std@@6B@ 100412f0     libcpmt:cerr.obj
 0002:0000030c       ??_7failure@ios_base@std@@6B@ 1004130c     libcpmt:cerr.obj
 0002:00000318       ??_7ios_base@std@@6B@      10041318     libcpmt:cerr.obj
 0002:00000320       ??_7?$basic_streambuf@DU?$char_traits@D@std@@@std@@6B@ 10041320     libcpmt:cerr.obj
 0002:00000360       ??_7?$basic_filebuf@DU?$char_traits@D@std@@@std@@6B@ 10041360     libcpmt:cerr.obj
 0002:000003a0       ??_7?$basic_ios@DU?$char_traits@D@std@@@std@@6B@ 100413a0     libcpmt:cerr.obj
 0002:000003a8       ??_7?$basic_ostream@DU?$char_traits@D@std@@@std@@6B@ 100413a8     libcpmt:cerr.obj
 0002:000003b0       ??_7?$codecvt@DDU_Mbstatet@@@std@@6B@ 100413b0     libcpmt:cerr.obj
 0002:00000414       ??_C@_01KDCPPGHE@r?$AA@    10041414     libcpmt:fiopen.obj
 0002:00000418       ??_C@_01NOFIACDB@w?$AA@    10041418     libcpmt:fiopen.obj
 0002:0000041c       ??_C@_01MCMALHOG@a?$AA@    1004141c     libcpmt:fiopen.obj
 0002:00000420       ??_C@_02JDPG@rb?$AA@       10041420     libcpmt:fiopen.obj
 0002:00000424       ??_C@_02GMLFBBN@wb?$AA@    10041424     libcpmt:fiopen.obj
 0002:00000428       ??_C@_02BOGAIONP@ab?$AA@   10041428     libcpmt:fiopen.obj
 0002:0000042c       ??_C@_02CBLLGHLK@r?$CL?$AA@ 1004142c     libcpmt:fiopen.obj
 0002:00000430       ??_C@_02CHHAKFFB@w?$CL?$AA@ 10041430     libcpmt:fiopen.obj
 0002:00000434       ??_C@_02DPNLHKJD@a?$CL?$AA@ 10041434     libcpmt:fiopen.obj
 0002:00000438       ??_C@_03HMFOOINA@r?$CLb?$AA@ 10041438     libcpmt:fiopen.obj
 0002:0000043c       ??_C@_03ELIABIOC@w?$CLb?$AA@ 1004143c     libcpmt:fiopen.obj
 0002:00000440       ??_C@_03DOPCBAKB@a?$CLb?$AA@ 10041440     libcpmt:fiopen.obj
 0002:00000444       ?valid@?1???$_Xfiopen@D@std@@YAPAU_iobuf@@PBDHH@Z@4QBHB 10041444     libcpmt:fiopen.obj
 0002:00000480       ??_C@_0BD@JPHBMONG@identifier?5removed?$AA@ 10041480     libcpmt:syserror.obj
 0002:00000494       ??_C@_0BG@CDNPAGJK@illegal?5byte?5sequence?$AA@ 10041494     libcpmt:syserror.obj
 0002:000004ac       ??_C@_0CD@BNPLBMNA@inappropriate?5io?5control?5operati@ 100414ac     libcpmt:syserror.obj
 0002:000004d0       ??_C@_0M@EGEKIIMP@interrupted?$AA@ 100414d0     libcpmt:syserror.obj
 0002:000004dc       ??_C@_0BB@FCMFBGOM@invalid?5argument?$AA@ 100414dc     libcpmt:syserror.obj
 0002:000004f0       ??_C@_0N@OHAFKDEK@invalid?5seek?$AA@ 100414f0     libcpmt:syserror.obj
 0002:00000500       ??_C@_08GLNPIFBN@io?5error?$AA@ 10041500     libcpmt:syserror.obj
 0002:0000050c       ??_C@_0P@FLLDBIDK@is?5a?5directory?$AA@ 1004150c     libcpmt:syserror.obj
 0002:0000051c       ??_C@_0N@IFLPBIOP@message?5size?$AA@ 1004151c     libcpmt:syserror.obj
 0002:0000052c       ??_C@_0N@KIIEAAIO@network?5down?$AA@ 1004152c     libcpmt:syserror.obj
 0002:0000053c       ??_C@_0O@FNPDBHEE@network?5reset?$AA@ 1004153c     libcpmt:syserror.obj
 0002:0000054c       ??_C@_0BE@IFNCKGE@network?5unreachable?$AA@ 1004154c     libcpmt:syserror.obj
 0002:00000560       ??_C@_0BA@PFFCAOFK@no?5buffer?5space?$AA@ 10041560     libcpmt:syserror.obj
 0002:00000570       ??_C@_0BB@IEPBLJHK@no?5child?5process?$AA@ 10041570     libcpmt:syserror.obj
 0002:00000584       ??_C@_07PLECNNKG@no?5link?$AA@ 10041584     libcpmt:syserror.obj
 0002:0000058c       ??_C@_0BC@NJECKMKE@no?5lock?5available?$AA@ 1004158c     libcpmt:syserror.obj
 0002:000005a0       ??_C@_0BF@PBGGPKKE@no?5message?5available?$AA@ 100415a0     libcpmt:syserror.obj
 0002:000005b8       ??_C@_0L@EDOLMPAK@no?5message?$AA@ 100415b8     libcpmt:syserror.obj
 0002:000005c4       ??_C@_0BD@EAMBFIDF@no?5protocol?5option?$AA@ 100415c4     libcpmt:syserror.obj
 0002:000005d8       ??_C@_0BD@IJDJKDEA@no?5space?5on?5device?$AA@ 100415d8     libcpmt:syserror.obj
 0002:000005ec       ??_C@_0BE@MKFDAFMP@no?5stream?5resources?$AA@ 100415ec     libcpmt:syserror.obj
 0002:00000600       ??_C@_0BK@IMCPHCBI@no?5such?5device?5or?5address?$AA@ 10041600     libcpmt:syserror.obj
 0002:0000061c       ??_C@_0P@FDINDDOK@no?5such?5device?$AA@ 1004161c     libcpmt:syserror.obj
 0002:0000062c       ??_C@_0BK@NDOCBPGE@no?5such?5file?5or?5directory?$AA@ 1004162c     libcpmt:syserror.obj
 0002:00000648       ??_C@_0BA@ENLPPKBN@no?5such?5process?$AA@ 10041648     libcpmt:syserror.obj
 0002:00000658       ??_C@_0BA@DOCPFFJG@not?5a?5directory?$AA@ 10041658     libcpmt:syserror.obj
 0002:00000668       ??_C@_0N@POEIPGGF@not?5a?5socket?$AA@ 10041668     libcpmt:syserror.obj
 0002:00000678       ??_C@_0N@LGAPMMPI@not?5a?5stream?$AA@ 10041678     libcpmt:syserror.obj
 0002:00000688       ??_C@_0O@GLMIBBEG@not?5connected?$AA@ 10041688     libcpmt:syserror.obj
 0002:00000698       ??_C@_0BC@ENOOLCNF@not?5enough?5memory?$AA@ 10041698     libcpmt:syserror.obj
 0002:000006ac       ??_C@_0O@NHEDABJP@not?5supported?$AA@ 100416ac     libcpmt:syserror.obj
 0002:000006bc       ??_C@_0BD@MOLBPMEA@operation?5canceled?$AA@ 100416bc     libcpmt:syserror.obj
 0002:000006d0       ??_C@_0BG@KDKHOPCO@operation?5in?5progress?$AA@ 100416d0     libcpmt:syserror.obj
 0002:000006e8       ??_C@_0BI@OHIEJAAB@operation?5not?5permitted?$AA@ 100416e8     libcpmt:syserror.obj
 0002:00000700       ??_C@_0BI@LNEGIFLN@operation?5not?5supported?$AA@ 10041700     libcpmt:syserror.obj
 0002:00000718       ??_C@_0BG@OEMDKMEE@operation?5would?5block?$AA@ 10041718     libcpmt:syserror.obj
 0002:00000730       ??_C@_0L@BLPOFLNJ@owner?5dead?$AA@ 10041730     libcpmt:syserror.obj
 0002:0000073c       ??_C@_0BC@CIJDGCDI@permission?5denied?$AA@ 1004173c     libcpmt:syserror.obj
 0002:00000750       ??_C@_0P@FNPOCJBE@protocol?5error?$AA@ 10041750     libcpmt:syserror.obj
 0002:00000760       ??_C@_0BH@JPPPLHJB@protocol?5not?5supported?$AA@ 10041760     libcpmt:syserror.obj
 0002:00000778       ??_C@_0BG@EICBIHDP@read?5only?5file?5system?$AA@ 10041778     libcpmt:syserror.obj
 0002:00000790       ??_C@_0BO@BJBOMOEJ@resource?5deadlock?5would?5occur?$AA@ 10041790     libcpmt:syserror.obj
 0002:000007b0       ??_C@_0BP@LKNGHENJ@resource?5unavailable?5try?5again?$AA@ 100417b0     libcpmt:syserror.obj
 0002:000007d0       ??_C@_0BE@GOIPJJHG@result?5out?5of?5range?$AA@ 100417d0     libcpmt:syserror.obj
 0002:000007e4       ??_C@_0BG@MPLKFPAE@state?5not?5recoverable?$AA@ 100417e4     libcpmt:syserror.obj
 0002:000007fc       ??_C@_0P@DIIFGFCG@stream?5timeout?$AA@ 100417fc     libcpmt:syserror.obj
 0002:0000080c       ??_C@_0P@IPFDMIFL@text?5file?5busy?$AA@ 1004180c     libcpmt:syserror.obj
 0002:0000081c       ??_C@_09KJPPMAOI@timed?5out?$AA@ 1004181c     libcpmt:syserror.obj
 0002:00000828       ??_C@_0BO@HACHBEKI@too?5many?5files?5open?5in?5system?$AA@ 10041828     libcpmt:syserror.obj
 0002:00000848       ??_C@_0BE@GHAFMPAH@too?5many?5files?5open?$AA@ 10041848     libcpmt:syserror.obj
 0002:0000085c       ??_C@_0P@HCOMKFCC@too?5many?5links?$AA@ 1004185c     libcpmt:syserror.obj
 0002:0000086c       ??_C@_0BO@EFGOJEF@too?5many?5symbolic?5link?5levels?$AA@ 1004186c     libcpmt:syserror.obj
 0002:0000088c       ??_C@_0BA@KGKGOOJA@value?5too?5large?$AA@ 1004188c     libcpmt:syserror.obj
 0002:0000089c       ??_C@_0BE@MIEJDDNH@wrong?5protocol?5type?$AA@ 1004189c     libcpmt:syserror.obj
 0002:00000d70       ??_C@_0BN@LKKBCCDB@address?5family?5not?5supported?$AA@ 10041d70     libcpmt:syserror.obj
 0002:00000d90       ??_C@_0P@LDMLAFHI@address?5in?5use?$AA@ 10041d90     libcpmt:syserror.obj
 0002:00000da0       ??_C@_0BG@DHPCNBJB@address?5not?5available?$AA@ 10041da0     libcpmt:syserror.obj
 0002:00000db8       ??_C@_0BC@DFIBIBIL@already?5connected?$AA@ 10041db8     libcpmt:syserror.obj
 0002:00000dcc       ??_C@_0BH@CAKOHOMI@argument?5list?5too?5long?$AA@ 10041dcc     libcpmt:syserror.obj
 0002:00000de4       ??_C@_0BH@CGIMPKIM@argument?5out?5of?5domain?$AA@ 10041de4     libcpmt:syserror.obj
 0002:00000dfc       ??_C@_0M@KGHGGJGL@bad?5address?$AA@ 10041dfc     libcpmt:syserror.obj
 0002:00000e08       ??_C@_0BE@MPJPGCEO@bad?5file?5descriptor?$AA@ 10041e08     libcpmt:syserror.obj
 0002:00000e1c       ??_C@_0M@PMMIEFCP@bad?5message?$AA@ 10041e1c     libcpmt:syserror.obj
 0002:00000e28       ??_C@_0M@KPHOFDBE@broken?5pipe?$AA@ 10041e28     libcpmt:syserror.obj
 0002:00000e34       ??_C@_0BD@MGNDDEGM@connection?5aborted?$AA@ 10041e34     libcpmt:syserror.obj
 0002:00000e48       ??_C@_0BP@KAIHPOGN@connection?5already?5in?5progress?$AA@ 10041e48     libcpmt:syserror.obj
 0002:00000e68       ??_C@_0BD@PJLIIJEL@connection?5refused?$AA@ 10041e68     libcpmt:syserror.obj
 0002:00000e7c       ??_C@_0BB@IECNJNOI@connection?5reset?$AA@ 10041e7c     libcpmt:syserror.obj
 0002:00000e90       ??_C@_0BC@PPHBOELF@cross?5device?5link?$AA@ 10041e90     libcpmt:syserror.obj
 0002:00000ea4       ??_C@_0BN@KDMIFEIP@destination?5address?5required?$AA@ 10041ea4     libcpmt:syserror.obj
 0002:00000ec4       ??_C@_0BI@NGCEHDD@device?5or?5resource?5busy?$AA@ 10041ec4     libcpmt:syserror.obj
 0002:00000edc       ??_C@_0BE@JIDOCPHM@directory?5not?5empty?$AA@ 10041edc     libcpmt:syserror.obj
 0002:00000ef0       ??_C@_0BI@BNCLIGPB@executable?5format?5error?$AA@ 10041ef0     libcpmt:syserror.obj
 0002:00000f08       ??_C@_0M@MIDIAGJP@file?5exists?$AA@ 10041f08     libcpmt:syserror.obj
 0002:00000f14       ??_C@_0P@DNAJLBJK@file?5too?5large?$AA@ 10041f14     libcpmt:syserror.obj
 0002:00000f24       ??_C@_0BC@EJHOMAAK@filename?5too?5long?$AA@ 10041f24     libcpmt:syserror.obj
 0002:00000f38       ??_C@_0BH@KEFGLDAF@function?5not?5supported?$AA@ 10041f38     libcpmt:syserror.obj
 0002:00000f50       ??_C@_0BB@DHFDFGDM@host?5unreachable?$AA@ 10041f50     libcpmt:syserror.obj
 0002:00000f64       ??_C@_0O@BFJCFAAK@unknown?5error?$AA@ 10041f64     libcpmt:syserror.obj
 0002:00000f78       ??_7?$num_put@DV?$ostreambuf_iterator@DU?$char_traits@D@std@@@std@@@std@@6B@ 10041f78     libcpmt:locale.obj
 0002:00000fa8       ??_7?$numpunct@D@std@@6B@  10041fa8     libcpmt:locale.obj
 0002:00000fc8       ??_C@_1BK@MGMFAEKH@?$AAk?$AAe?$AAr?$AAn?$AAe?$AAl?$AA3?$AA2?$AA?4?$AAd?$AAl?$AAl?$AA?$AA@ 10041fc8     libcpmt:winapisupp.obj
 0002:00000fe4       ??_C@_08KNHFBNJ@FlsAlloc?$AA@ 10041fe4     libcpmt:winapisupp.obj
 0002:00000ff0       ??_C@_07PEJMOBNF@FlsFree?$AA@ 10041ff0     libcpmt:winapisupp.obj
 0002:00000ff8       ??_C@_0M@GDNOONDI@FlsGetValue?$AA@ 10041ff8     libcpmt:winapisupp.obj
 0002:00001004       ??_C@_0M@JCPCPOEF@FlsSetValue?$AA@ 10042004     libcpmt:winapisupp.obj
 0002:00001010       ??_C@_0BM@HCFOFFN@InitializeCriticalSectionEx?$AA@ 10042010     libcpmt:winapisupp.obj
 0002:0000102c       ??_C@_0BE@GPLMMCMH@InitOnceExecuteOnce?$AA@ 1004202c     libcpmt:winapisupp.obj
 0002:00001040       ??_C@_0P@DLHPPCNH@CreateEventExW?$AA@ 10042040     libcpmt:winapisupp.obj
 0002:00001050       ??_C@_0BB@MEFPJLHN@CreateSemaphoreW?$AA@ 10042050     libcpmt:winapisupp.obj
 0002:00001064       ??_C@_0BD@KIEEOEEH@CreateSemaphoreExW?$AA@ 10042064     libcpmt:winapisupp.obj
 0002:00001078       ??_C@_0BG@OGFAJCKC@CreateThreadpoolTimer?$AA@ 10042078     libcpmt:winapisupp.obj
 0002:00001090       ??_C@_0BD@LPLEMMDI@SetThreadpoolTimer?$AA@ 10042090     libcpmt:winapisupp.obj
 0002:000010a4       ??_C@_0CA@FMNJENH@WaitForThreadpoolTimerCallbacks?$AA@ 100420a4     libcpmt:winapisupp.obj
 0002:000010c4       ??_C@_0BF@DCFCCNOC@CloseThreadpoolTimer?$AA@ 100420c4     libcpmt:winapisupp.obj
 0002:000010dc       ??_C@_0BF@FLABGKKM@CreateThreadpoolWait?$AA@ 100420dc     libcpmt:winapisupp.obj
 0002:000010f4       ??_C@_0BC@MGCOHNA@SetThreadpoolWait?$AA@ 100420f4     libcpmt:winapisupp.obj
 0002:00001108       ??_C@_0BE@OCIOMIMP@CloseThreadpoolWait?$AA@ 10042108     libcpmt:winapisupp.obj
 0002:0000111c       ??_C@_0BJ@LKGHFHBO@FlushProcessWriteBuffers?$AA@ 1004211c     libcpmt:winapisupp.obj
 0002:00001138       ??_C@_0BP@KALKKPMO@FreeLibraryWhenCallbackReturns?$AA@ 10042138     libcpmt:winapisupp.obj
 0002:00001158       ??_C@_0BK@DFNBACLA@GetCurrentProcessorNumber?$AA@ 10042158     libcpmt:winapisupp.obj
 0002:00001174       ??_C@_0BE@FKKLLFLM@CreateSymbolicLinkW?$AA@ 10042174     libcpmt:winapisupp.obj
 0002:00001188       ??_C@_0BE@JOGNEJCI@GetCurrentPackageId?$AA@ 10042188     libcpmt:winapisupp.obj
 0002:0000119c       ??_C@_0P@CDHHOHKP@GetTickCount64?$AA@ 1004219c     libcpmt:winapisupp.obj
 0002:000011ac       ??_C@_0BN@NEEHBBPO@GetFileInformationByHandleEx?$AA@ 100421ac     libcpmt:winapisupp.obj
 0002:000011cc       ??_C@_0BL@KBBHGKCM@SetFileInformationByHandle?$AA@ 100421cc     libcpmt:winapisupp.obj
 0002:000011e8       ??_C@_0BP@FPNJPEJC@GetSystemTimePreciseAsFileTime?$AA@ 100421e8     libcpmt:winapisupp.obj
 0002:00001208       ??_C@_0BM@HLJJNPAH@InitializeConditionVariable?$AA@ 10042208     libcpmt:winapisupp.obj
 0002:00001224       ??_C@_0BG@BFNILBLN@WakeConditionVariable?$AA@ 10042224     libcpmt:winapisupp.obj
 0002:0000123c       ??_C@_0BJ@PGPPEPCC@WakeAllConditionVariable?$AA@ 1004223c     libcpmt:winapisupp.obj
 0002:00001258       ??_C@_0BJ@JEBJOJFJ@SleepConditionVariableCS?$AA@ 10042258     libcpmt:winapisupp.obj
 0002:00001274       ??_C@_0BC@MMLHEBPB@InitializeSRWLock?$AA@ 10042274     libcpmt:winapisupp.obj
 0002:00001288       ??_C@_0BI@OMNLIJDB@AcquireSRWLockExclusive?$AA@ 10042288     libcpmt:winapisupp.obj
 0002:000012a0       ??_C@_0BL@OGHFEMNA@TryAcquireSRWLockExclusive?$AA@ 100422a0     libcpmt:winapisupp.obj
 0002:000012bc       ??_C@_0BI@HMIEPCNJ@ReleaseSRWLockExclusive?$AA@ 100422bc     libcpmt:winapisupp.obj
 0002:000012d4       ??_C@_0BK@LGACAGIC@SleepConditionVariableSRW?$AA@ 100422d4     libcpmt:winapisupp.obj
 0002:000012f0       ??_C@_0BF@GGPHFPJA@CreateThreadpoolWork?$AA@ 100422f0     libcpmt:winapisupp.obj
 0002:00001308       ??_C@_0BF@NHDAIMMO@SubmitThreadpoolWork?$AA@ 10042308     libcpmt:winapisupp.obj
 0002:00001320       ??_C@_0BE@NPHIPNPD@CloseThreadpoolWork?$AA@ 10042320     libcpmt:winapisupp.obj
 0002:00001334       ??_C@_0BA@IHGNDAEB@CompareStringEx?$AA@ 10042334     libcpmt:winapisupp.obj
 0002:00001344       ??_C@_0BA@ONOKGCMP@GetLocaleInfoEx?$AA@ 10042344     libcpmt:winapisupp.obj
 0002:00001354       ??_C@_0O@KKBNKAPF@LCMapStringEx?$AA@ 10042354     libcpmt:winapisupp.obj
 0002:00001364       ??_C@_11LOCGONAA@?$AA?$AA@ 10042364     libcpmt:wlocale.obj
 0002:00001368       ??_C@_13IMODFHAA@?$AA?9?$AA?$AA@ 10042368     libcpmt:wlocale.obj
 0002:0000136c       ??_C@_01JOAMLHOP@?9?$AA@   1004236c     libcpmt:wlocale.obj
 0002:00002250       ??_C@_15EMKDOKLE@?$AAa?$AAr?$AA?$AA@ 10043250     libcpmt:winapinls.obj
 0002:00002258       ??_C@_15KNPADPLH@?$AAb?$AAg?$AA?$AA@ 10043258     libcpmt:winapinls.obj
 0002:00002260       ??_C@_15EDMHLDMO@?$AAc?$AAa?$AA?$AA@ 10043260     libcpmt:winapinls.obj
 0002:00002268       ??_C@_1O@BPEAJADD@?$AAz?$AAh?$AA?9?$AAC?$AAH?$AAS?$AA?$AA@ 10043268     libcpmt:winapinls.obj
 0002:00002278       ??_C@_15LJNHCMNK@?$AAc?$AAs?$AA?$AA@ 10043278     libcpmt:winapinls.obj
 0002:00002280       ??_C@_15FOMCIDHG@?$AAd?$AAa?$AA?$AA@ 10043280     libcpmt:winapinls.obj
 0002:00002288       ??_C@_15NBKABECB@?$AAd?$AAe?$AA?$AA@ 10043288     libcpmt:winapinls.obj
 0002:00002290       ??_C@_15GHPEIIAO@?$AAe?$AAl?$AA?$AA@ 10043290     libcpmt:winapinls.obj
 0002:00002298       ??_C@_15MNPNEAIF@?$AAe?$AAn?$AA?$AA@ 10043298     libcpmt:winapinls.obj
 0002:000022a0       ??_C@_15GPIOMPMH@?$AAe?$AAs?$AA?$AA@ 100432a0     libcpmt:winapinls.obj
 0002:000022a8       ??_C@_15NGLOAKJC@?$AAf?$AAi?$AA?$AA@ 100432a8     libcpmt:winapinls.obj
 0002:000022b0       ??_C@_15FBKGNKAM@?$AAf?$AAr?$AA?$AA@ 100432b0     libcpmt:winapinls.obj
 0002:000022b8       ??_C@_15KGGCNEFK@?$AAh?$AAe?$AA?$AA@ 100432b8     libcpmt:winapinls.obj
 0002:000022c0       ??_C@_15PGHLIDMF@?$AAh?$AAu?$AA?$AA@ 100432c0     libcpmt:winapinls.obj
 0002:000022c8       ??_C@_15BIEMAPLM@?$AAi?$AAs?$AA?$AA@ 100432c8     libcpmt:winapinls.obj
 0002:000022d0       ??_C@_15IFJLDHAF@?$AAi?$AAt?$AA?$AA@ 100432d0     libcpmt:winapinls.obj
 0002:000022d8       ??_C@_15GEMIOCAG@?$AAj?$AAa?$AA?$AA@ 100432d8     libcpmt:winapinls.obj
 0002:000022e0       ??_C@_15EPELEGJA@?$AAk?$AAo?$AA?$AA@ 100432e0     libcpmt:winapinls.obj
 0002:000022e8       ??_C@_15NDDHIMN@?$AAn?$AAl?$AA?$AA@ 100432e8     libcpmt:winapinls.obj
 0002:000022f0       ??_C@_15BPIGNHCD@?$AAn?$AAo?$AA?$AA@ 100432f0     libcpmt:winapinls.obj
 0002:000022f8       ??_C@_15DEOPBLCG@?$AAp?$AAl?$AA?$AA@ 100432f8     libcpmt:winapinls.obj
 0002:00002300       ??_C@_15KBECGEFG@?$AAp?$AAt?$AA?$AA@ 10043300     libcpmt:winapinls.obj
 0002:00002308       ??_C@_15GLJCBFMD@?$AAr?$AAo?$AA?$AA@ 10043308     libcpmt:winapinls.obj
 0002:00002310       ??_C@_15FEDGKCDI@?$AAr?$AAu?$AA?$AA@ 10043310     libcpmt:winapinls.obj
 0002:00002318       ??_C@_15GLKMLLHM@?$AAh?$AAr?$AA?$AA@ 10043318     libcpmt:winapinls.obj
 0002:00002320       ??_C@_15CPKMFBDB@?$AAs?$AAk?$AA?$AA@ 10043320     libcpmt:winapinls.obj
 0002:00002328       ??_C@_15BAAIOGMK@?$AAs?$AAq?$AA?$AA@ 10043328     libcpmt:winapinls.obj
 0002:00002330       ??_C@_15INNPNOHD@?$AAs?$AAv?$AA?$AA@ 10043330     libcpmt:winapinls.obj
 0002:00002338       ??_C@_15CABMMOGH@?$AAt?$AAh?$AA?$AA@ 10043338     libcpmt:winapinls.obj
 0002:00002340       ??_C@_15BPLIHJJM@?$AAt?$AAr?$AA?$AA@ 10043340     libcpmt:winapinls.obj
 0002:00002348       ??_C@_15NEOEKKDJ@?$AAu?$AAr?$AA?$AA@ 10043348     libcpmt:winapinls.obj
 0002:00002350       ??_C@_15NFICGAJK@?$AAi?$AAd?$AA?$AA@ 10043350     libcpmt:winapinls.obj
 0002:00002358       ??_C@_15PJPFLCCM@?$AAu?$AAk?$AA?$AA@ 10043358     libcpmt:winapinls.obj
 0002:00002360       ??_C@_15HPJPHDM@?$AAb?$AAe?$AA?$AA@ 10043360     libcpmt:winapinls.obj
 0002:00002368       ??_C@_15LCHLGJII@?$AAs?$AAl?$AA?$AA@ 10043368     libcpmt:winapinls.obj
 0002:00002370       ??_C@_15PCFJPHHO@?$AAe?$AAt?$AA?$AA@ 10043370     libcpmt:winapinls.obj
 0002:00002378       ??_C@_15HPFPGODN@?$AAl?$AAv?$AA?$AA@ 10043378     libcpmt:winapinls.obj
 0002:00002380       ??_C@_15NFFGKGLG@?$AAl?$AAt?$AA?$AA@ 10043380     libcpmt:winapinls.obj
 0002:00002388       ??_C@_15BDAKCCHN@?$AAf?$AAa?$AA?$AA@ 10043388     libcpmt:winapinls.obj
 0002:00002390       ??_C@_15NFGIAIAJ@?$AAv?$AAi?$AA?$AA@ 10043390     libcpmt:winapinls.obj
 0002:00002398       ??_C@_15LMKNDMHN@?$AAh?$AAy?$AA?$AA@ 10043398     libcpmt:winapinls.obj
 0002:000023a0       ??_C@_15IJBHMCFL@?$AAa?$AAz?$AA?$AA@ 100433a0     libcpmt:winapinls.obj
 0002:000023a8       ??_C@_15EKOFJABL@?$AAe?$AAu?$AA?$AA@ 100433a8     libcpmt:winapinls.obj
 0002:000023b0       ??_C@_15BGHADCNK@?$AAm?$AAk?$AA?$AA@ 100433b0     libcpmt:winapinls.obj
 0002:000023b8       ??_C@_15JDNICKHM@?$AAa?$AAf?$AA?$AA@ 100433b8     libcpmt:winapinls.obj
 0002:000023c0       ??_C@_15KPJEDBKD@?$AAk?$AAa?$AA?$AA@ 100433c0     libcpmt:winapinls.obj
 0002:000023c8       ??_C@_15PDNFFFEO@?$AAf?$AAo?$AA?$AA@ 100433c8     libcpmt:winapinls.obj
 0002:000023d0       ??_C@_15OMLEGLOC@?$AAh?$AAi?$AA?$AA@ 100433d0     libcpmt:winapinls.obj
 0002:000023d8       ??_C@_15IDNNENKK@?$AAm?$AAs?$AA?$AA@ 100433d8     libcpmt:winapinls.obj
 0002:000023e0       ??_C@_15MACJNBMH@?$AAk?$AAk?$AA?$AA@ 100433e0     libcpmt:winapinls.obj
 0002:000023e8       ??_C@_15DKDJEOND@?$AAk?$AAy?$AA?$AA@ 100433e8     libcpmt:winapinls.obj
 0002:000023f0       ??_C@_15DFGDLJBG@?$AAs?$AAw?$AA?$AA@ 100433f0     libcpmt:winapinls.obj
 0002:000023f8       ??_C@_15BBFAICNG@?$AAu?$AAz?$AA?$AA@ 100433f8     libcpmt:winapinls.obj
 0002:00002400       ??_C@_15DKNDCGEA@?$AAt?$AAt?$AA?$AA@ 10043400     libcpmt:winapinls.obj
 0002:00002408       ??_C@_15MGIFMDPL@?$AAp?$AAa?$AA?$AA@ 10043408     libcpmt:winapinls.obj
 0002:00002410       ??_C@_15HCNDBBA@?$AAg?$AAu?$AA?$AA@ 10043410     libcpmt:winapinls.obj
 0002:00002418       ??_C@_15FNBEIBON@?$AAt?$AAa?$AA?$AA@ 10043418     libcpmt:winapinls.obj
 0002:00002420       ??_C@_15NCHGBGLK@?$AAt?$AAe?$AA?$AA@ 10043420     libcpmt:winapinls.obj
 0002:00002428       ??_C@_15PHPHCBPF@?$AAk?$AAn?$AA?$AA@ 10043428     libcpmt:winapinls.obj
 0002:00002430       ??_C@_15DLGBCKMP@?$AAm?$AAr?$AA?$AA@ 10043430     libcpmt:winapinls.obj
 0002:00002438       ??_C@_15EABBLBFF@?$AAs?$AAa?$AA?$AA@ 10043438     libcpmt:winapinls.obj
 0002:00002440       ??_C@_15CBKOMCOI@?$AAm?$AAn?$AA?$AA@ 10043440     libcpmt:winapinls.obj
 0002:00002448       ??_C@_15CKDMCJAF@?$AAg?$AAl?$AA?$AA@ 10043448     libcpmt:winapinls.obj
 0002:00002450       ??_C@_17CNJFBPG@?$AAk?$AAo?$AAk?$AA?$AA@ 10043450     libcpmt:winapinls.obj
 0002:00002458       ??_C@_17FFBJICPL@?$AAs?$AAy?$AAr?$AA?$AA@ 10043458     libcpmt:winapinls.obj
 0002:00002460       ??_C@_17KPNDCPAF@?$AAd?$AAi?$AAv?$AA?$AA@ 10043460     libcpmt:winapinls.obj
 0002:00002468       ??_C@_1M@OKAHONE@?$AAa?$AAr?$AA?9?$AAS?$AAA?$AA?$AA@ 10043468     libcpmt:winapinls.obj
 0002:00002474       ??_C@_1M@FFFIGIGK@?$AAb?$AAg?$AA?9?$AAB?$AAG?$AA?$AA@ 10043474     libcpmt:winapinls.obj
 0002:00002480       ??_C@_1M@BJNKEDC@?$AAc?$AAa?$AA?9?$AAE?$AAS?$AA?$AA@ 10043480     libcpmt:winapinls.obj
 0002:0000248c       ??_C@_1M@CLNBBOPM@?$AAz?$AAh?$AA?9?$AAT?$AAW?$AA?$AA@ 1004348c     libcpmt:winapinls.obj
 0002:00002498       ??_C@_1M@IJJHFJHA@?$AAc?$AAs?$AA?9?$AAC?$AAZ?$AA?$AA@ 10043498     libcpmt:winapinls.obj
 0002:000024a4       ??_C@_1M@CLPEOBGI@?$AAd?$AAa?$AA?9?$AAD?$AAK?$AA?$AA@ 100434a4     libcpmt:winapinls.obj
 0002:000024b0       ??_C@_1M@MCMADGCB@?$AAd?$AAe?$AA?9?$AAD?$AAE?$AA?$AA@ 100434b0     libcpmt:winapinls.obj
 0002:000024bc       ??_C@_1M@OOCKEMAM@?$AAe?$AAl?$AA?9?$AAG?$AAR?$AA?$AA@ 100434bc     libcpmt:winapinls.obj
 0002:000024c8       ??_C@_1M@BMHNFIME@?$AAe?$AAn?$AA?9?$AAU?$AAS?$AA?$AA@ 100434c8     libcpmt:winapinls.obj
 0002:000024d4       ??_C@_1M@DDNJFGID@?$AAf?$AAi?$AA?9?$AAF?$AAI?$AA?$AA@ 100434d4     libcpmt:winapinls.obj
 0002:000024e0       ??_C@_1M@GLIPPMAC@?$AAf?$AAr?$AA?9?$AAF?$AAR?$AA?$AA@ 100434e0     libcpmt:winapinls.obj
 0002:000024ec       ??_C@_1M@GFMCHPE@?$AAh?$AAe?$AA?9?$AAI?$AAL?$AA?$AA@ 100434ec     libcpmt:winapinls.obj
 0002:000024f8       ??_C@_1M@MHLPGNKM@?$AAh?$AAu?$AA?9?$AAH?$AAU?$AA?$AA@ 100434f8     libcpmt:winapinls.obj
 0002:00002504       ??_C@_1M@LPDDNNPN@?$AAi?$AAs?$AA?9?$AAI?$AAS?$AA?$AA@ 10043504     libcpmt:winapinls.obj
 0002:00002510       ??_C@_1M@MADIPODN@?$AAi?$AAt?$AA?9?$AAI?$AAT?$AA?$AA@ 10043510     libcpmt:winapinls.obj
 0002:0000251c       ??_C@_1M@HPNHIDJI@?$AAj?$AAa?$AA?9?$AAJ?$AAP?$AA?$AA@ 1004351c     libcpmt:winapinls.obj
 0002:00002528       ??_C@_1M@JLOOOEGK@?$AAk?$AAo?$AA?9?$AAK?$AAR?$AA?$AA@ 10043528     libcpmt:winapinls.obj
 0002:00002534       ??_C@_1M@IHBJJGG@?$AAn?$AAl?$AA?9?$AAN?$AAL?$AA?$AA@ 10043534     libcpmt:winapinls.obj
 0002:00002540       ??_C@_1M@EANAGDL@?$AAn?$AAb?$AA?9?$AAN?$AAO?$AA?$AA@ 10043540     libcpmt:winapinls.obj
 0002:0000254c       ??_C@_1M@NEIEMEGP@?$AAp?$AAl?$AA?9?$AAP?$AAL?$AA?$AA@ 1004354c     libcpmt:winapinls.obj
 0002:00002558       ??_C@_1M@BOCFIGEP@?$AAp?$AAt?$AA?9?$AAB?$AAR?$AA?$AA@ 10043558     libcpmt:winapinls.obj
 0002:00002564       ??_C@_1M@IMPFOPBG@?$AAr?$AAo?$AA?9?$AAR?$AAO?$AA?$AA@ 10043564     libcpmt:winapinls.obj
 0002:00002570       ??_C@_1M@IDNNEJMM@?$AAr?$AAu?$AA?9?$AAR?$AAU?$AA?$AA@ 10043570     libcpmt:winapinls.obj
 0002:0000257c       ??_C@_1M@LILEEOGM@?$AAh?$AAr?$AA?9?$AAH?$AAR?$AA?$AA@ 1004357c     libcpmt:winapinls.obj
 0002:00002588       ??_C@_1M@FKIFEHPB@?$AAs?$AAk?$AA?9?$AAS?$AAK?$AA?$AA@ 10043588     libcpmt:winapinls.obj
 0002:00002594       ??_C@_1M@LJMAMNPJ@?$AAs?$AAq?$AA?9?$AAA?$AAL?$AA?$AA@ 10043594     libcpmt:winapinls.obj
 0002:000025a0       ??_C@_1M@GIAKDKJK@?$AAs?$AAv?$AA?9?$AAS?$AAE?$AA?$AA@ 100435a0     libcpmt:winapinls.obj
 0002:000025ac       ??_C@_1M@MKJKIKCL@?$AAt?$AAh?$AA?9?$AAT?$AAH?$AA?$AA@ 100435ac     libcpmt:winapinls.obj
 0002:000025b8       ??_C@_1M@MFLCCMPB@?$AAt?$AAr?$AA?9?$AAT?$AAR?$AA?$AA@ 100435b8     libcpmt:winapinls.obj
 0002:000025c4       ??_C@_1M@OIJHDKJN@?$AAu?$AAr?$AA?9?$AAP?$AAK?$AA?$AA@ 100435c4     libcpmt:winapinls.obj
 0002:000025d0       ??_C@_1M@LHIPCIEK@?$AAi?$AAd?$AA?9?$AAI?$AAD?$AA?$AA@ 100435d0     libcpmt:winapinls.obj
 0002:000025dc       ??_C@_1M@MFMOBGI@?$AAu?$AAk?$AA?9?$AAU?$AAA?$AA?$AA@ 100435dc     libcpmt:winapinls.obj
 0002:000025e8       ??_C@_1M@OBGLJIPL@?$AAb?$AAe?$AA?9?$AAB?$AAY?$AA?$AA@ 100435e8     libcpmt:winapinls.obj
 0002:000025f4       ??_C@_1M@BCFAJEAD@?$AAs?$AAl?$AA?9?$AAS?$AAI?$AA?$AA@ 100435f4     libcpmt:winapinls.obj
 0002:00002600       ??_C@_1M@FKFFEDDN@?$AAe?$AAt?$AA?9?$AAE?$AAE?$AA?$AA@ 10043600     libcpmt:winapinls.obj
 0002:0000260c       ??_C@_1M@KGKKAACI@?$AAl?$AAv?$AA?9?$AAL?$AAV?$AA?$AA@ 1004360c     libcpmt:winapinls.obj
 0002:00002618       ??_C@_1M@IFGBIJO@?$AAl?$AAt?$AA?9?$AAL?$AAT?$AA?$AA@ 10043618     libcpmt:winapinls.obj
 0002:00002624       ??_C@_1M@FGEAHEDM@?$AAf?$AAa?$AA?9?$AAI?$AAR?$AA?$AA@ 10043624     libcpmt:winapinls.obj
 0002:00002630       ??_C@_1M@KBMAIBFN@?$AAv?$AAi?$AA?9?$AAV?$AAN?$AA?$AA@ 10043630     libcpmt:winapinls.obj
 0002:0000263c       ??_C@_1M@GPCBKDJK@?$AAh?$AAy?$AA?9?$AAA?$AAM?$AA?$AA@ 1004363c     libcpmt:winapinls.obj
 0002:00002648       ??_C@_1BG@BECMDDJB@?$AAa?$AAz?$AA?9?$AAA?$AAZ?$AA?9?$AAL?$AAa?$AAt?$AAn?$AA?$AA@ 10043648     libcpmt:winapinls.obj
 0002:00002660       ??_C@_1M@MAOFCAEA@?$AAe?$AAu?$AA?9?$AAE?$AAS?$AA?$AA@ 10043660     libcpmt:winapinls.obj
 0002:0000266c       ??_C@_1M@IGHABKPI@?$AAm?$AAk?$AA?9?$AAM?$AAK?$AA?$AA@ 1004366c     libcpmt:winapinls.obj
 0002:00002678       ??_C@_1M@IAIGNEJG@?$AAt?$AAn?$AA?9?$AAZ?$AAA?$AA?$AA@ 10043678     libcpmt:winapinls.obj
 0002:00002684       ??_C@_1M@IIJCOJFA@?$AAx?$AAh?$AA?9?$AAZ?$AAA?$AA?$AA@ 10043684     libcpmt:winapinls.obj
 0002:00002690       ??_C@_1M@LGPJHNJH@?$AAz?$AAu?$AA?9?$AAZ?$AAA?$AA?$AA@ 10043690     libcpmt:winapinls.obj
 0002:0000269c       ??_C@_1M@HOKAOIO@?$AAa?$AAf?$AA?9?$AAZ?$AAA?$AA?$AA@ 1004369c     libcpmt:winapinls.obj
 0002:000026a8       ??_C@_1M@DPCLHLIE@?$AAk?$AAa?$AA?9?$AAG?$AAE?$AA?$AA@ 100436a8     libcpmt:winapinls.obj
 0002:000026b4       ??_C@_1M@BLKMHJBI@?$AAf?$AAo?$AA?9?$AAF?$AAO?$AA?$AA@ 100436b4     libcpmt:winapinls.obj
 0002:000026c0       ??_C@_1M@LGGJAPPB@?$AAh?$AAi?$AA?9?$AAI?$AAN?$AA?$AA@ 100436c0     libcpmt:winapinls.obj
 0002:000026cc       ??_C@_1M@FIKPIHFE@?$AAm?$AAt?$AA?9?$AAM?$AAT?$AA?$AA@ 100436cc     libcpmt:winapinls.obj
 0002:000026d8       ??_C@_1M@HEGGPBFA@?$AAs?$AAe?$AA?9?$AAN?$AAO?$AA?$AA@ 100436d8     libcpmt:winapinls.obj
 0002:000026e4       ??_C@_1M@EIBJEEPA@?$AAm?$AAs?$AA?9?$AAM?$AAY?$AA?$AA@ 100436e4     libcpmt:winapinls.obj
 0002:000026f0       ??_C@_1M@FHLBGMPP@?$AAk?$AAk?$AA?9?$AAK?$AAZ?$AA?$AA@ 100436f0     libcpmt:winapinls.obj
 0002:000026fc       ??_C@_1M@NGJJLCGI@?$AAk?$AAy?$AA?9?$AAK?$AAG?$AA?$AA@ 100436fc     libcpmt:winapinls.obj
 0002:00002708       ??_C@_1M@GIENNBFC@?$AAs?$AAw?$AA?9?$AAK?$AAE?$AA?$AA@ 10043708     libcpmt:winapinls.obj
 0002:00002714       ??_C@_1BG@NDGMJIMJ@?$AAu?$AAz?$AA?9?$AAU?$AAZ?$AA?9?$AAL?$AAa?$AAt?$AAn?$AA?$AA@ 10043714     libcpmt:winapinls.obj
 0002:0000272c       ??_C@_1M@IDCCIHBC@?$AAt?$AAt?$AA?9?$AAR?$AAU?$AA?$AA@ 1004372c     libcpmt:winapinls.obj
 0002:00002738       ??_C@_1M@LOICPMOJ@?$AAb?$AAn?$AA?9?$AAI?$AAN?$AA?$AA@ 10043738     libcpmt:winapinls.obj
 0002:00002744       ??_C@_1M@KPKKNEAH@?$AAp?$AAa?$AA?9?$AAI?$AAN?$AA?$AA@ 10043744     libcpmt:winapinls.obj
 0002:00002750       ??_C@_1M@PJGPPBOG@?$AAg?$AAu?$AA?9?$AAI?$AAN?$AA?$AA@ 10043750     libcpmt:winapinls.obj
 0002:0000275c       ??_C@_1M@KMKMOPHI@?$AAt?$AAa?$AA?9?$AAI?$AAN?$AA?$AA@ 1004375c     libcpmt:winapinls.obj
 0002:00002768       ??_C@_1M@KFEHEPAC@?$AAt?$AAe?$AA?9?$AAI?$AAN?$AA?$AA@ 10043768     libcpmt:winapinls.obj
 0002:00002774       ??_C@_1M@CDCLMGHI@?$AAk?$AAn?$AA?9?$AAI?$AAN?$AA?$AA@ 10043774     libcpmt:winapinls.obj
 0002:00002780       ??_C@_1M@MIODLDKF@?$AAm?$AAl?$AA?9?$AAI?$AAN?$AA?$AA@ 10043780     libcpmt:winapinls.obj
 0002:0000278c       ??_C@_1M@PBIEACPO@?$AAm?$AAr?$AA?9?$AAI?$AAN?$AA?$AA@ 1004378c     libcpmt:winapinls.obj
 0002:00002798       ??_C@_1M@NIDEAGPH@?$AAs?$AAa?$AA?9?$AAI?$AAN?$AA?$AA@ 10043798     libcpmt:winapinls.obj
 0002:000027a4       ??_C@_1M@FHIHCBIO@?$AAm?$AAn?$AA?9?$AAM?$AAN?$AA?$AA@ 100437a4     libcpmt:winapinls.obj
 0002:000027b0       ??_C@_1M@JAIJPENP@?$AAc?$AAy?$AA?9?$AAG?$AAB?$AA?$AA@ 100437b0     libcpmt:winapinls.obj
 0002:000027bc       ??_C@_1M@PHGFBEPN@?$AAg?$AAl?$AA?9?$AAE?$AAS?$AA?$AA@ 100437bc     libcpmt:winapinls.obj
 0002:000027c8       ??_C@_1O@KPIPDNCP@?$AAk?$AAo?$AAk?$AA?9?$AAI?$AAN?$AA?$AA@ 100437c8     libcpmt:winapinls.obj
 0002:000027d8       ??_C@_1O@KNHJLDJA@?$AAs?$AAy?$AAr?$AA?9?$AAS?$AAY?$AA?$AA@ 100437d8     libcpmt:winapinls.obj
 0002:000027e8       ??_C@_1O@MKEKBLAH@?$AAd?$AAi?$AAv?$AA?9?$AAM?$AAV?$AA?$AA@ 100437e8     libcpmt:winapinls.obj
 0002:000027f8       ??_C@_1O@OHDCKDDF@?$AAq?$AAu?$AAz?$AA?9?$AAB?$AAO?$AA?$AA@ 100437f8     libcpmt:winapinls.obj
 0002:00002808       ??_C@_1M@LEPJNLFD@?$AAn?$AAs?$AA?9?$AAZ?$AAA?$AA?$AA@ 10043808     libcpmt:winapinls.obj
 0002:00002814       ??_C@_1M@OMLEIIJB@?$AAm?$AAi?$AA?9?$AAN?$AAZ?$AA?$AA@ 10043814     libcpmt:winapinls.obj
 0002:00002820       ??_C@_1M@PMPEAILG@?$AAa?$AAr?$AA?9?$AAI?$AAQ?$AA?$AA@ 10043820     libcpmt:winapinls.obj
 0002:0000282c       ??_C@_1M@BIBDDEMK@?$AAz?$AAh?$AA?9?$AAC?$AAN?$AA?$AA@ 1004382c     libcpmt:winapinls.obj
 0002:00002838       ??_C@_1M@CNKPNOEE@?$AAd?$AAe?$AA?9?$AAC?$AAH?$AA?$AA@ 10043838     libcpmt:winapinls.obj
 0002:00002844       ??_C@_1M@LKMGMLKO@?$AAe?$AAn?$AA?9?$AAG?$AAB?$AA?$AA@ 10043844     libcpmt:winapinls.obj
 0002:00002850       ??_C@_1M@PGKJFFGL@?$AAe?$AAs?$AA?9?$AAM?$AAX?$AA?$AA@ 10043850     libcpmt:winapinls.obj
 0002:0000285c       ??_C@_1M@DNNANBDC@?$AAf?$AAr?$AA?9?$AAB?$AAE?$AA?$AA@ 1004385c     libcpmt:winapinls.obj
 0002:00002868       ??_C@_1M@HLGMDFHM@?$AAi?$AAt?$AA?9?$AAC?$AAH?$AA?$AA@ 10043868     libcpmt:winapinls.obj
 0002:00002874       ??_C@_1M@CLLBGJH@?$AAn?$AAl?$AA?9?$AAB?$AAE?$AA?$AA@ 10043874     libcpmt:winapinls.obj
 0002:00002880       ??_C@_1M@BODBOGLF@?$AAn?$AAn?$AA?9?$AAN?$AAO?$AA?$AA@ 10043880     libcpmt:winapinls.obj
 0002:0000288c       ??_C@_1M@HFFAHKAD@?$AAp?$AAt?$AA?9?$AAP?$AAT?$AA?$AA@ 1004388c     libcpmt:winapinls.obj
 0002:00002898       ??_C@_1BG@LNOAKHIE@?$AAs?$AAr?$AA?9?$AAS?$AAP?$AA?9?$AAL?$AAa?$AAt?$AAn?$AA?$AA@ 10043898     libcpmt:winapinls.obj
 0002:000028b0       ??_C@_1M@HBMHBGAK@?$AAs?$AAv?$AA?9?$AAF?$AAI?$AA?$AA@ 100438b0     libcpmt:winapinls.obj
 0002:000028bc       ??_C@_1BG@DGCJGJBE@?$AAa?$AAz?$AA?9?$AAA?$AAZ?$AA?9?$AAC?$AAy?$AAr?$AAl?$AA?$AA@ 100438bc     libcpmt:winapinls.obj
 0002:000028d4       ??_C@_1M@KEJDAAHB@?$AAs?$AAe?$AA?9?$AAS?$AAE?$AA?$AA@ 100438d4     libcpmt:winapinls.obj
 0002:000028e0       ??_C@_1M@HEIBJJAD@?$AAm?$AAs?$AA?9?$AAB?$AAN?$AA?$AA@ 100438e0     libcpmt:winapinls.obj
 0002:000028ec       ??_C@_1BG@PBGJMCEM@?$AAu?$AAz?$AA?9?$AAU?$AAZ?$AA?9?$AAC?$AAy?$AAr?$AAl?$AA?$AA@ 100438ec     libcpmt:winapinls.obj
 0002:00002904       ??_C@_1O@LAOBCMDF@?$AAq?$AAu?$AAz?$AA?9?$AAE?$AAC?$AA?$AA@ 10043904     libcpmt:winapinls.obj
 0002:00002914       ??_C@_1M@POEEMAIO@?$AAa?$AAr?$AA?9?$AAE?$AAG?$AA?$AA@ 10043914     libcpmt:winapinls.obj
 0002:00002920       ??_C@_1M@EFAKDEDL@?$AAz?$AAh?$AA?9?$AAH?$AAK?$AA?$AA@ 10043920     libcpmt:winapinls.obj
 0002:0000292c       ??_C@_1M@HKKIJHGI@?$AAd?$AAe?$AA?9?$AAA?$AAT?$AA?$AA@ 1004392c     libcpmt:winapinls.obj
 0002:00002938       ??_C@_1M@KBFBEHJF@?$AAe?$AAn?$AA?9?$AAA?$AAU?$AA?$AA@ 10043938     libcpmt:winapinls.obj
 0002:00002944       ??_C@_1M@MNPLFAAH@?$AAe?$AAs?$AA?9?$AAE?$AAS?$AA?$AA@ 10043944     libcpmt:winapinls.obj
 0002:00002950       ??_C@_1M@HJOOJFMA@?$AAf?$AAr?$AA?9?$AAC?$AAA?$AA?$AA@ 10043950     libcpmt:winapinls.obj
 0002:0000295c       ??_C@_1BG@JPOFPNAB@?$AAs?$AAr?$AA?9?$AAS?$AAP?$AA?9?$AAC?$AAy?$AAr?$AAl?$AA?$AA@ 1004395c     libcpmt:winapinls.obj
 0002:00002974       ??_C@_1M@LNFOCMOB@?$AAs?$AAe?$AA?9?$AAF?$AAI?$AA?$AA@ 10043974     libcpmt:winapinls.obj
 0002:00002980       ??_C@_1O@MGJBOAMB@?$AAq?$AAu?$AAz?$AA?9?$AAP?$AAE?$AA?$AA@ 10043980     libcpmt:winapinls.obj
 0002:00002990       ??_C@_1M@GJINLBOK@?$AAa?$AAr?$AA?9?$AAL?$AAY?$AA?$AA@ 10043990     libcpmt:winapinls.obj
 0002:0000299c       ??_C@_1M@GGMNHJNL@?$AAz?$AAh?$AA?9?$AAS?$AAG?$AA?$AA@ 1004399c     libcpmt:winapinls.obj
 0002:000029a8       ??_C@_1M@HOIKODND@?$AAd?$AAe?$AA?9?$AAL?$AAU?$AA?$AA@ 100439a8     libcpmt:winapinls.obj
 0002:000029b4       ??_C@_1M@DDOCCGFG@?$AAe?$AAn?$AA?9?$AAC?$AAA?$AA?$AA@ 100439b4     libcpmt:winapinls.obj
 0002:000029c0       ??_C@_1M@BNOEMJLF@?$AAe?$AAs?$AA?9?$AAG?$AAT?$AA?$AA@ 100439c0     libcpmt:winapinls.obj
 0002:000029cc       ??_C@_1M@EOGNKEK@?$AAf?$AAr?$AA?9?$AAC?$AAH?$AA?$AA@ 100439cc     libcpmt:winapinls.obj
 0002:000029d8       ??_C@_1M@FLIDJFHL@?$AAh?$AAr?$AA?9?$AAB?$AAA?$AA?$AA@ 100439d8     libcpmt:winapinls.obj
 0002:000029e4       ??_C@_1O@FMCELNAJ@?$AAs?$AAm?$AAj?$AA?9?$AAN?$AAO?$AA?$AA@ 100439e4     libcpmt:winapinls.obj
 0002:000029f4       ??_C@_1M@JHGLJMGJ@?$AAa?$AAr?$AA?9?$AAD?$AAZ?$AA?$AA@ 100439f4     libcpmt:winapinls.obj
 0002:00002a00       ??_C@_1M@JKKFDCNP@?$AAz?$AAh?$AA?9?$AAM?$AAO?$AA?$AA@ 10043a00     libcpmt:winapinls.obj
 0002:00002a0c       ??_C@_1M@GEEFALPE@?$AAd?$AAe?$AA?9?$AAL?$AAI?$AA?$AA@ 10043a0c     libcpmt:winapinls.obj
 0002:00002a18       ??_C@_1M@IGEOFBG@?$AAe?$AAn?$AA?9?$AAN?$AAZ?$AA?$AA@ 10043a18     libcpmt:winapinls.obj
 0002:00002a24       ??_C@_1M@KDBONEHP@?$AAe?$AAs?$AA?9?$AAC?$AAR?$AA?$AA@ 10043a24     libcpmt:winapinls.obj
 0002:00002a30       ??_C@_1M@FHMDOHNN@?$AAf?$AAr?$AA?9?$AAL?$AAU?$AA?$AA@ 10043a30     libcpmt:winapinls.obj
 0002:00002a3c       ??_C@_1BG@NFKKMAFG@?$AAb?$AAs?$AA?9?$AAB?$AAA?$AA?9?$AAL?$AAa?$AAt?$AAn?$AA?$AA@ 10043a3c     libcpmt:winapinls.obj
 0002:00002a54       ??_C@_1O@IMNBEMCI@?$AAs?$AAm?$AAj?$AA?9?$AAS?$AAE?$AA?$AA@ 10043a54     libcpmt:winapinls.obj
 0002:00002a64       ??_C@_1M@DHHMBNDP@?$AAa?$AAr?$AA?9?$AAM?$AAA?$AA?$AA@ 10043a64     libcpmt:winapinls.obj
 0002:00002a70       ??_C@_1M@BNBLJCGH@?$AAe?$AAn?$AA?9?$AAI?$AAE?$AA?$AA@ 10043a70     libcpmt:winapinls.obj
 0002:00002a7c       ??_C@_1M@GEPAFMDL@?$AAe?$AAs?$AA?9?$AAP?$AAA?$AA?$AA@ 10043a7c     libcpmt:winapinls.obj
 0002:00002a88       ??_C@_1M@OJONDMDL@?$AAf?$AAr?$AA?9?$AAM?$AAC?$AA?$AA@ 10043a88     libcpmt:winapinls.obj
 0002:00002a94       ??_C@_1BG@OBCNFJB@?$AAs?$AAr?$AA?9?$AAB?$AAA?$AA?9?$AAL?$AAa?$AAt?$AAn?$AA?$AA@ 10043a94     libcpmt:winapinls.obj
 0002:00002aac       ??_C@_1O@KEMEEGPO@?$AAs?$AAm?$AAa?$AA?9?$AAN?$AAO?$AA?$AA@ 10043aac     libcpmt:winapinls.obj
 0002:00002abc       ??_C@_1M@ELMGFODK@?$AAa?$AAr?$AA?9?$AAT?$AAN?$AA?$AA@ 10043abc     libcpmt:winapinls.obj
 0002:00002ac8       ??_C@_1M@BHDLHFAF@?$AAe?$AAn?$AA?9?$AAZ?$AAA?$AA?$AA@ 10043ac8     libcpmt:winapinls.obj
 0002:00002ad4       ??_C@_1M@BMGIGLIF@?$AAe?$AAs?$AA?9?$AAD?$AAO?$AA?$AA@ 10043ad4     libcpmt:winapinls.obj
 0002:00002ae0       ??_C@_1BG@CMBHIPBE@?$AAs?$AAr?$AA?9?$AAB?$AAA?$AA?9?$AAC?$AAy?$AAr?$AAl?$AA?$AA@ 10043ae0     libcpmt:winapinls.obj
 0002:00002af8       ??_C@_1O@HEDBLHNP@?$AAs?$AAm?$AAa?$AA?9?$AAS?$AAE?$AA?$AA@ 10043af8     libcpmt:winapinls.obj
 0002:00002b08       ??_C@_1M@DAGCADIM@?$AAa?$AAr?$AA?9?$AAO?$AAM?$AA?$AA@ 10043b08     libcpmt:winapinls.obj
 0002:00002b14       ??_C@_1M@FODLMICG@?$AAe?$AAn?$AA?9?$AAJ?$AAM?$AA?$AA@ 10043b14     libcpmt:winapinls.obj
 0002:00002b20       ??_C@_1M@DNMLCIHB@?$AAe?$AAs?$AA?9?$AAV?$AAE?$AA?$AA@ 10043b20     libcpmt:winapinls.obj
 0002:00002b2c       ??_C@_1O@EOKHMKJK@?$AAs?$AAm?$AAs?$AA?9?$AAF?$AAI?$AA?$AA@ 10043b2c     libcpmt:winapinls.obj
 0002:00002b3c       ??_C@_1M@CAFJMKOF@?$AAa?$AAr?$AA?9?$AAY?$AAE?$AA?$AA@ 10043b3c     libcpmt:winapinls.obj
 0002:00002b48       ??_C@_1M@CBFHIJLI@?$AAe?$AAn?$AA?9?$AAC?$AAB?$AA?$AA@ 10043b48     libcpmt:winapinls.obj
 0002:00002b54       ??_C@_1M@BGNFLDN@?$AAe?$AAs?$AA?9?$AAC?$AAO?$AA?$AA@ 10043b54     libcpmt:winapinls.obj
 0002:00002b60       ??_C@_1O@JMPHMAMC@?$AAs?$AAm?$AAn?$AA?9?$AAF?$AAI?$AA?$AA@ 10043b60     libcpmt:winapinls.obj
 0002:00002b70       ??_C@_1M@JLANABKE@?$AAa?$AAr?$AA?9?$AAS?$AAY?$AA?$AA@ 10043b70     libcpmt:winapinls.obj
 0002:00002b7c       ??_C@_1M@HPKGCFGN@?$AAe?$AAn?$AA?9?$AAB?$AAZ?$AA?$AA@ 10043b7c     libcpmt:winapinls.obj
 0002:00002b88       ??_C@_1M@OLJCMLGM@?$AAe?$AAs?$AA?9?$AAP?$AAE?$AA?$AA@ 10043b88     libcpmt:winapinls.obj
 0002:00002b94       ??_C@_1M@MKKGFKLE@?$AAa?$AAr?$AA?9?$AAJ?$AAO?$AA?$AA@ 10043b94     libcpmt:winapinls.obj
 0002:00002ba0       ??_C@_1M@EKPGLDNI@?$AAe?$AAn?$AA?9?$AAT?$AAT?$AA?$AA@ 10043ba0     libcpmt:winapinls.obj
 0002:00002bac       ??_C@_1M@OONGHFHE@?$AAe?$AAs?$AA?9?$AAA?$AAR?$AA?$AA@ 10043bac     libcpmt:winapinls.obj
 0002:00002bb8       ??_C@_1M@OOJFGBHE@?$AAa?$AAr?$AA?9?$AAL?$AAB?$AA?$AA@ 10043bb8     libcpmt:winapinls.obj
 0002:00002bc4       ??_C@_1M@GCEJHNEG@?$AAe?$AAn?$AA?9?$AAZ?$AAW?$AA?$AA@ 10043bc4     libcpmt:winapinls.obj
 0002:00002bd0       ??_C@_1M@JNOCAHJI@?$AAe?$AAs?$AA?9?$AAE?$AAC?$AA?$AA@ 10043bd0     libcpmt:winapinls.obj
 0002:00002bdc       ??_C@_1M@JEFHPGGB@?$AAa?$AAr?$AA?9?$AAK?$AAW?$AA?$AA@ 10043bdc     libcpmt:winapinls.obj
 0002:00002be8       ??_C@_1M@MLKIBJOJ@?$AAe?$AAn?$AA?9?$AAP?$AAH?$AA?$AA@ 10043be8     libcpmt:winapinls.obj
 0002:00002bf4       ??_C@_1M@BDNIPEND@?$AAe?$AAs?$AA?9?$AAC?$AAL?$AA?$AA@ 10043bf4     libcpmt:winapinls.obj
 0002:00002c00       ??_C@_1M@MPNMEKBD@?$AAa?$AAr?$AA?9?$AAA?$AAE?$AA?$AA@ 10043c00     libcpmt:winapinls.obj
 0002:00002c0c       ??_C@_1M@KBJALCPI@?$AAe?$AAs?$AA?9?$AAU?$AAY?$AA?$AA@ 10043c0c     libcpmt:winapinls.obj
 0002:00002c18       ??_C@_1M@LLCCOAGA@?$AAa?$AAr?$AA?9?$AAB?$AAH?$AA?$AA@ 10043c18     libcpmt:winapinls.obj
 0002:00002c24       ??_C@_1M@PBFNCDEL@?$AAe?$AAs?$AA?9?$AAP?$AAY?$AA?$AA@ 10043c24     libcpmt:winapinls.obj
 0002:00002c30       ??_C@_1M@EDGINPNP@?$AAa?$AAr?$AA?9?$AAQ?$AAA?$AA?$AA@ 10043c30     libcpmt:winapinls.obj
 0002:00002c3c       ??_C@_1M@MKDBIIJI@?$AAe?$AAs?$AA?9?$AAB?$AAO?$AA?$AA@ 10043c3c     libcpmt:winapinls.obj
 0002:00002c48       ??_C@_1M@CPKKEBLD@?$AAe?$AAs?$AA?9?$AAS?$AAV?$AA?$AA@ 10043c48     libcpmt:winapinls.obj
 0002:00002c54       ??_C@_1M@NDBGMMJL@?$AAe?$AAs?$AA?9?$AAH?$AAN?$AA?$AA@ 10043c54     libcpmt:winapinls.obj
 0002:00002c60       ??_C@_1M@JIJIBHDP@?$AAe?$AAs?$AA?9?$AAN?$AAI?$AA?$AA@ 10043c60     libcpmt:winapinls.obj
 0002:00002c6c       ??_C@_1M@CGFMKEEK@?$AAe?$AAs?$AA?9?$AAP?$AAR?$AA?$AA@ 10043c6c     libcpmt:winapinls.obj
 0002:00002c78       ??_C@_1O@ICJHKIIK@?$AAz?$AAh?$AA?9?$AAC?$AAH?$AAT?$AA?$AA@ 10043c78     libcpmt:winapinls.obj
 0002:00002c88       ??_C@_15CLNEJCE@?$AAs?$AAr?$AA?$AA@ 10043c88     libcpmt:winapinls.obj
 0002:00002c90       ??_C@_1M@KAHEKEIG@?$AAa?$AAf?$AA?9?$AAz?$AAa?$AA?$AA@ 10043c90     libcpmt:winapinls.obj
 0002:00002c9c       ??_C@_1M@GIECOABL@?$AAa?$AAr?$AA?9?$AAa?$AAe?$AA?$AA@ 10043c9c     libcpmt:winapinls.obj
 0002:00002ca8       ??_C@_1M@BMLMEKGI@?$AAa?$AAr?$AA?9?$AAb?$AAh?$AA?$AA@ 10043ca8     libcpmt:winapinls.obj
 0002:00002cb4       ??_C@_1M@DAPFDGGB@?$AAa?$AAr?$AA?9?$AAd?$AAz?$AA?$AA@ 10043cb4     libcpmt:winapinls.obj
 0002:00002cc0       ??_C@_1M@FJNKGKIG@?$AAa?$AAr?$AA?9?$AAe?$AAg?$AA?$AA@ 10043cc0     libcpmt:winapinls.obj
 0002:00002ccc       ??_C@_1M@FLGKKCLO@?$AAa?$AAr?$AA?9?$AAi?$AAq?$AA?$AA@ 10043ccc     libcpmt:winapinls.obj
 0002:00002cd8       ??_C@_1M@GNDIPALM@?$AAa?$AAr?$AA?9?$AAj?$AAo?$AA?$AA@ 10043cd8     libcpmt:winapinls.obj
 0002:00002ce4       ??_C@_1M@DDMJFMGJ@?$AAa?$AAr?$AA?9?$AAk?$AAw?$AA?$AA@ 10043ce4     libcpmt:winapinls.obj
 0002:00002cf0       ??_C@_1M@EJALMLHM@?$AAa?$AAr?$AA?9?$AAl?$AAb?$AA?$AA@ 10043cf0     libcpmt:winapinls.obj
 0002:00002cfc       ??_C@_1M@MOBDBLOC@?$AAa?$AAr?$AA?9?$AAl?$AAy?$AA?$AA@ 10043cfc     libcpmt:winapinls.obj
 0002:00002d08       ??_C@_1M@JAOCLHDH@?$AAa?$AAr?$AA?9?$AAm?$AAa?$AA?$AA@ 10043d08     libcpmt:winapinls.obj
 0002:00002d14       ??_C@_1M@JHPMKJIE@?$AAa?$AAr?$AA?9?$AAo?$AAm?$AA?$AA@ 10043d14     libcpmt:winapinls.obj
 0002:00002d20       ??_C@_1M@OEPGHFNH@?$AAa?$AAr?$AA?9?$AAq?$AAa?$AA?$AA@ 10043d20     libcpmt:winapinls.obj
 0002:00002d2c       ??_C@_1M@KJDONENM@?$AAa?$AAr?$AA?9?$AAs?$AAa?$AA?$AA@ 10043d2c     libcpmt:winapinls.obj
 0002:00002d38       ??_C@_1M@DMJDKLKM@?$AAa?$AAr?$AA?9?$AAs?$AAy?$AA?$AA@ 10043d38     libcpmt:winapinls.obj
 0002:00002d44       ??_C@_1M@OMFIPEDC@?$AAa?$AAr?$AA?9?$AAt?$AAn?$AA?$AA@ 10043d44     libcpmt:winapinls.obj
 0002:00002d50       ??_C@_1M@IHMHGAON@?$AAa?$AAr?$AA?9?$AAy?$AAe?$AA?$AA@ 10043d50     libcpmt:winapinls.obj
 0002:00002d5c       ??_C@_1BG@KDCPGJGB@?$AAa?$AAz?$AA?9?$AAa?$AAz?$AA?9?$AAc?$AAy?$AAr?$AAl?$AA?$AA@ 10043d5c     libcpmt:winapinls.obj
 0002:00002d74       ??_C@_1BG@IBCKDDOE@?$AAa?$AAz?$AA?9?$AAa?$AAz?$AA?9?$AAl?$AAa?$AAt?$AAn?$AA?$AA@ 10043d74     libcpmt:winapinls.obj
 0002:00002d8c       ??_C@_1M@EGPFDCPD@?$AAb?$AAe?$AA?9?$AAb?$AAy?$AA?$AA@ 10043d8c     libcpmt:winapinls.obj
 0002:00002d98       ??_C@_1M@PCMGMCGC@?$AAb?$AAg?$AA?9?$AAb?$AAg?$AA?$AA@ 10043d98     libcpmt:winapinls.obj
 0002:00002da4       ??_C@_1M@BJBMFGOB@?$AAb?$AAn?$AA?9?$AAi?$AAn?$AA?$AA@ 10043da4     libcpmt:winapinls.obj
 0002:00002db0       ??_C@_1BG@EAKMMACD@?$AAb?$AAs?$AA?9?$AAb?$AAa?$AA?9?$AAl?$AAa?$AAt?$AAn?$AA?$AA@ 10043db0     libcpmt:winapinls.obj
 0002:00002dc8       ??_C@_1M@KGADAODK@?$AAc?$AAa?$AA?9?$AAe?$AAs?$AA?$AA@ 10043dc8     libcpmt:winapinls.obj
 0002:00002dd4       ??_C@_1M@COAJPDHI@?$AAc?$AAs?$AA?9?$AAc?$AAz?$AA?$AA@ 10043dd4     libcpmt:winapinls.obj
 0002:00002de0       ??_C@_1M@DHBHFONH@?$AAc?$AAy?$AA?9?$AAg?$AAb?$AA?$AA@ 10043de0     libcpmt:winapinls.obj
 0002:00002dec       ??_C@_1M@IMGKELGA@?$AAd?$AAa?$AA?9?$AAd?$AAk?$AA?$AA@ 10043dec     libcpmt:winapinls.obj
 0002:00002df8       ??_C@_1M@NNDGDNGA@?$AAd?$AAe?$AA?9?$AAa?$AAt?$AA?$AA@ 10043df8     libcpmt:winapinls.obj
 0002:00002e04       ??_C@_1M@IKDBHEEM@?$AAd?$AAe?$AA?9?$AAc?$AAh?$AA?$AA@ 10043e04     libcpmt:winapinls.obj
 0002:00002e10       ??_C@_1M@GFFOJMCJ@?$AAd?$AAe?$AA?9?$AAd?$AAe?$AA?$AA@ 10043e10     libcpmt:winapinls.obj
 0002:00002e1c       ??_C@_1M@MDNLKBPM@?$AAd?$AAe?$AA?9?$AAl?$AAi?$AA?$AA@ 10043e1c     libcpmt:winapinls.obj
 0002:00002e28       ??_C@_1M@NJBEEJNL@?$AAd?$AAe?$AA?9?$AAl?$AAu?$AA?$AA@ 10043e28     libcpmt:winapinls.obj
 0002:00002e34       ??_C@_1O@GNNELBAP@?$AAd?$AAi?$AAv?$AA?9?$AAm?$AAv?$AA?$AA@ 10043e34     libcpmt:winapinls.obj
 0002:00002e44       ??_C@_1M@EJLEOGAE@?$AAe?$AAl?$AA?9?$AAg?$AAr?$AA?$AA@ 10043e44     libcpmt:winapinls.obj
 0002:00002e50       ??_C@_1M@GMPONJN@?$AAe?$AAn?$AA?9?$AAa?$AAu?$AA?$AA@ 10043e50     libcpmt:winapinls.obj
 0002:00002e5c       ??_C@_1M@NIDIIPGF@?$AAe?$AAn?$AA?9?$AAb?$AAz?$AA?$AA@ 10043e5c     libcpmt:winapinls.obj
 0002:00002e68       ??_C@_1M@JEHMIMFO@?$AAe?$AAn?$AA?9?$AAc?$AAa?$AA?$AA@ 10043e68     libcpmt:winapinls.obj
 0002:00002e74       ??_C@_1M@IGMJCDLA@?$AAe?$AAn?$AA?9?$AAc?$AAb?$AA?$AA@ 10043e74     libcpmt:winapinls.obj
 0002:00002e80       ??_C@_1M@BNFIGBKG@?$AAe?$AAn?$AA?9?$AAg?$AAb?$AA?$AA@ 10043e80     libcpmt:winapinls.obj
 0002:00002e8c       ??_C@_1M@LKIFDIGP@?$AAe?$AAn?$AA?9?$AAi?$AAe?$AA?$AA@ 10043e8c     libcpmt:winapinls.obj
 0002:00002e98       ??_C@_1M@PJKFGCCO@?$AAe?$AAn?$AA?9?$AAj?$AAm?$AA?$AA@ 10043e98     libcpmt:winapinls.obj
 0002:00002ea4       ??_C@_1M@KPPKEPBO@?$AAe?$AAn?$AA?9?$AAn?$AAz?$AA?$AA@ 10043ea4     libcpmt:winapinls.obj
 0002:00002eb0       ??_C@_1M@GMDGLDOB@?$AAe?$AAn?$AA?9?$AAp?$AAh?$AA?$AA@ 10043eb0     libcpmt:winapinls.obj
 0002:00002ebc       ??_C@_1M@ONGIBJNA@?$AAe?$AAn?$AA?9?$AAt?$AAt?$AA?$AA@ 10043ebc     libcpmt:winapinls.obj
 0002:00002ec8       ??_C@_1M@LLODPCMM@?$AAe?$AAn?$AA?9?$AAu?$AAs?$AA?$AA@ 10043ec8     libcpmt:winapinls.obj
 0002:00002ed4       ??_C@_1M@LAKFNPAN@?$AAe?$AAn?$AA?9?$AAz?$AAa?$AA?$AA@ 10043ed4     libcpmt:winapinls.obj
 0002:00002ee0       ??_C@_1M@MFNHNHEO@?$AAe?$AAn?$AA?9?$AAz?$AAw?$AA?$AA@ 10043ee0     libcpmt:winapinls.obj
 0002:00002eec       ??_C@_1M@EJEINPHM@?$AAe?$AAs?$AA?9?$AAa?$AAr?$AA?$AA@ 10043eec     libcpmt:winapinls.obj
 0002:00002ef8       ??_C@_1M@GNKPCCJA@?$AAe?$AAs?$AA?9?$AAb?$AAo?$AA?$AA@ 10043ef8     libcpmt:winapinls.obj
 0002:00002f04       ??_C@_1M@LEEGFONL@?$AAe?$AAs?$AA?9?$AAc?$AAl?$AA?$AA@ 10043f04     libcpmt:winapinls.obj
 0002:00002f10       ??_C@_1M@KGPDPBDF@?$AAe?$AAs?$AA?9?$AAc?$AAo?$AA?$AA@ 10043f10     libcpmt:winapinls.obj
 0002:00002f1c       ??_C@_1M@EIAHOHH@?$AAe?$AAs?$AA?9?$AAc?$AAr?$AA?$AA@ 10043f1c     libcpmt:winapinls.obj
 0002:00002f28       ??_C@_1M@LLPGMBIN@?$AAe?$AAs?$AA?9?$AAd?$AAo?$AA?$AA@ 10043f28     libcpmt:winapinls.obj
 0002:00002f34       ??_C@_1M@DKHMKNJA@?$AAe?$AAs?$AA?9?$AAe?$AAc?$AA?$AA@ 10043f34     libcpmt:winapinls.obj
 0002:00002f40       ??_C@_1M@GKGFPKAP@?$AAe?$AAs?$AA?9?$AAe?$AAs?$AA?$AA@ 10043f40     libcpmt:winapinls.obj
 0002:00002f4c       ??_C@_1M@LKHKGDLN@?$AAe?$AAs?$AA?9?$AAg?$AAt?$AA?$AA@ 10043f4c     libcpmt:winapinls.obj
 0002:00002f58       ??_C@_1M@HEIIGGJD@?$AAe?$AAs?$AA?9?$AAh?$AAn?$AA?$AA@ 10043f58     libcpmt:winapinls.obj
 0002:00002f64       ??_C@_1M@FBDHPPGD@?$AAe?$AAs?$AA?9?$AAm?$AAx?$AA?$AA@ 10043f64     libcpmt:winapinls.obj
 0002:00002f70       ??_C@_1M@DPAGLNDH@?$AAe?$AAs?$AA?9?$AAn?$AAi?$AA?$AA@ 10043f70     libcpmt:winapinls.obj
 0002:00002f7c       ??_C@_1M@MDGOPGDD@?$AAe?$AAs?$AA?9?$AAp?$AAa?$AA?$AA@ 10043f7c     libcpmt:winapinls.obj
 0002:00002f88       ??_C@_1M@EMAMGBGE@?$AAe?$AAs?$AA?9?$AAp?$AAe?$AA?$AA@ 10043f88     libcpmt:winapinls.obj
 0002:00002f94       ??_C@_1M@IBMCAOEC@?$AAe?$AAs?$AA?9?$AAp?$AAr?$AA?$AA@ 10043f94     libcpmt:winapinls.obj
 0002:00002fa0       ??_C@_1M@FGMDIJED@?$AAe?$AAs?$AA?9?$AAp?$AAy?$AA?$AA@ 10043fa0     libcpmt:winapinls.obj
 0002:00002fac       ??_C@_1M@IIDEOLLL@?$AAe?$AAs?$AA?9?$AAs?$AAv?$AA?$AA@ 10043fac     libcpmt:winapinls.obj
 0002:00002fb8       ??_C@_1M@GAOBIPA@?$AAe?$AAs?$AA?9?$AAu?$AAy?$AA?$AA@ 10043fb8     libcpmt:winapinls.obj
 0002:00002fc4       ??_C@_1M@JKFFICHJ@?$AAe?$AAs?$AA?9?$AAv?$AAe?$AA?$AA@ 10043fc4     libcpmt:winapinls.obj
 0002:00002fd0       ??_C@_1M@PNMLOJDF@?$AAe?$AAt?$AA?9?$AAe?$AAe?$AA?$AA@ 10043fd0     libcpmt:winapinls.obj
 0002:00002fdc       ??_C@_1M@GHHLIKEI@?$AAe?$AAu?$AA?9?$AAe?$AAs?$AA?$AA@ 10043fdc     libcpmt:winapinls.obj
 0002:00002fe8       ??_C@_1M@PBNONODE@?$AAf?$AAa?$AA?9?$AAi?$AAr?$AA?$AA@ 10043fe8     libcpmt:winapinls.obj
 0002:00002ff4       ??_C@_1M@JEEHPMIL@?$AAf?$AAi?$AA?9?$AAf?$AAi?$AA?$AA@ 10043ff4     libcpmt:winapinls.obj
 0002:00003000       ??_C@_1M@LMDCNDBA@?$AAf?$AAo?$AA?9?$AAf?$AAo?$AA?$AA@ 10044000     libcpmt:winapinls.obj
 0002:0000300c       ??_C@_1M@JKEOHLDK@?$AAf?$AAr?$AA?9?$AAb?$AAe?$AA?$AA@ 1004400c     libcpmt:winapinls.obj
 0002:00003018       ??_C@_1M@NOHADPMI@?$AAf?$AAr?$AA?9?$AAc?$AAa?$AA?$AA@ 10044018     libcpmt:winapinls.obj
 0002:00003024       ??_C@_1M@KDHIHAEC@?$AAf?$AAr?$AA?9?$AAc?$AAh?$AA?$AA@ 10044024     libcpmt:winapinls.obj
 0002:00003030       ??_C@_1M@MMBBFGAK@?$AAf?$AAr?$AA?9?$AAf?$AAr?$AA?$AA@ 10044030     libcpmt:winapinls.obj
 0002:0000303c       ??_C@_1M@PAFNENNF@?$AAf?$AAr?$AA?9?$AAl?$AAu?$AA?$AA@ 1004403c     libcpmt:winapinls.obj
 0002:00003048       ??_C@_1M@EOHDJGDD@?$AAf?$AAr?$AA?9?$AAm?$AAc?$AA?$AA@ 10044048     libcpmt:winapinls.obj
 0002:00003054       ??_C@_1M@FAPLLOPF@?$AAg?$AAl?$AA?9?$AAe?$AAs?$AA?$AA@ 10044054     libcpmt:winapinls.obj
 0002:00003060       ??_C@_1M@FOPBFLOO@?$AAg?$AAu?$AA?9?$AAi?$AAn?$AA?$AA@ 10044060     libcpmt:winapinls.obj
 0002:0000306c       ??_C@_1M@KBMCINPM@?$AAh?$AAe?$AA?9?$AAi?$AAl?$AA?$AA@ 1004406c     libcpmt:winapinls.obj
 0002:00003078       ??_C@_1M@BBPHKFPJ@?$AAh?$AAi?$AA?9?$AAi?$AAn?$AA?$AA@ 10044078     libcpmt:winapinls.obj
 0002:00003084       ??_C@_1M@PMBNDPHD@?$AAh?$AAr?$AA?9?$AAb?$AAa?$AA?$AA@ 10044084     libcpmt:winapinls.obj
 0002:00003090       ??_C@_1M@BPCKOEGE@?$AAh?$AAr?$AA?9?$AAh?$AAr?$AA?$AA@ 10044090     libcpmt:winapinls.obj
 0002:0000309c       ??_C@_1M@GACBMHKE@?$AAh?$AAu?$AA?9?$AAh?$AAu?$AA?$AA@ 1004409c     libcpmt:winapinls.obj
 0002:000030a8       ??_C@_1M@MILPAJJC@?$AAh?$AAy?$AA?9?$AAa?$AAm?$AA?$AA@ 100440a8     libcpmt:winapinls.obj
 0002:000030b4       ??_C@_1M@BABBICEC@?$AAi?$AAd?$AA?9?$AAi?$AAd?$AA?$AA@ 100440b4     libcpmt:winapinls.obj
 0002:000030c0       ??_C@_1M@BIKNHHPF@?$AAi?$AAs?$AA?9?$AAi?$AAs?$AA?$AA@ 100440c0     libcpmt:winapinls.obj
 0002:000030cc       ??_C@_1M@NMPCJPHE@?$AAi?$AAt?$AA?9?$AAc?$AAh?$AA?$AA@ 100440cc     libcpmt:winapinls.obj
 0002:000030d8       ??_C@_1M@GHKGFEDF@?$AAi?$AAt?$AA?9?$AAi?$AAt?$AA?$AA@ 100440d8     libcpmt:winapinls.obj
 0002:000030e4       ??_C@_1M@NIEJCJJA@?$AAj?$AAa?$AA?9?$AAj?$AAp?$AA?$AA@ 100440e4     libcpmt:winapinls.obj
 0002:000030f0       ??_C@_1M@JILFNBIM@?$AAk?$AAa?$AA?9?$AAg?$AAe?$AA?$AA@ 100440f0     libcpmt:winapinls.obj
 0002:000030fc       ??_C@_1M@PACPMGPH@?$AAk?$AAk?$AA?9?$AAk?$AAz?$AA?$AA@ 100440fc     libcpmt:winapinls.obj
 0002:00003108       ??_C@_1M@IELFGMHA@?$AAk?$AAn?$AA?9?$AAi?$AAn?$AA?$AA@ 10044108     libcpmt:winapinls.obj
 0002:00003114       ??_C@_1M@DMHAEOGC@?$AAk?$AAo?$AA?9?$AAk?$AAr?$AA?$AA@ 10044114     libcpmt:winapinls.obj
 0002:00003120       ??_C@_1O@IBBJHCH@?$AAk?$AAo?$AAk?$AA?9?$AAi?$AAn?$AA?$AA@ 10044120     libcpmt:winapinls.obj
 0002:00003130       ??_C@_1M@HBAHBIGA@?$AAk?$AAy?$AA?9?$AAk?$AAg?$AA?$AA@ 10044130     libcpmt:winapinls.obj
 0002:0000313c       ??_C@_1M@KPMILCJG@?$AAl?$AAt?$AA?9?$AAl?$AAt?$AA?$AA@ 1004413c     libcpmt:winapinls.obj
 0002:00003148       ??_C@_1M@BDEKKCA@?$AAl?$AAv?$AA?9?$AAl?$AAv?$AA?$AA@ 10044148     libcpmt:winapinls.obj
 0002:00003154       ??_C@_1M@ELCKCCJJ@?$AAm?$AAi?$AA?9?$AAn?$AAz?$AA?$AA@ 10044154     libcpmt:winapinls.obj
 0002:00003160       ??_C@_1M@CBOOLAPA@?$AAm?$AAk?$AA?9?$AAm?$AAk?$AA?$AA@ 10044160     libcpmt:winapinls.obj
 0002:0000316c       ??_C@_1M@GPHNBJKN@?$AAm?$AAl?$AA?9?$AAi?$AAn?$AA?$AA@ 1004416c     libcpmt:winapinls.obj
 0002:00003178       ??_C@_1M@PABJILIG@?$AAm?$AAn?$AA?9?$AAm?$AAn?$AA?$AA@ 10044178     libcpmt:winapinls.obj
 0002:00003184       ??_C@_1M@FGBKKIPG@?$AAm?$AAr?$AA?9?$AAi?$AAn?$AA?$AA@ 10044184     libcpmt:winapinls.obj
 0002:00003190       ??_C@_1M@NDBPDDAL@?$AAm?$AAs?$AA?9?$AAb?$AAn?$AA?$AA@ 10044190     libcpmt:winapinls.obj
 0002:0000319c       ??_C@_1M@OPIHOOPI@?$AAm?$AAs?$AA?9?$AAm?$AAy?$AA?$AA@ 1004419c     libcpmt:winapinls.obj
 0002:000031a8       ??_C@_1M@PPDBCNFM@?$AAm?$AAt?$AA?9?$AAm?$AAt?$AA?$AA@ 100441a8     libcpmt:winapinls.obj
 0002:000031b4       ??_C@_1M@KDJDKMDD@?$AAn?$AAb?$AA?9?$AAn?$AAo?$AA?$AA@ 100441b4     libcpmt:winapinls.obj
 0002:000031c0       ??_C@_1M@KFCFLMJP@?$AAn?$AAl?$AA?9?$AAb?$AAe?$AA?$AA@ 100441c0     libcpmt:winapinls.obj
 0002:000031cc       ??_C@_1M@KPOPDDGO@?$AAn?$AAl?$AA?9?$AAn?$AAl?$AA?$AA@ 100441cc     libcpmt:winapinls.obj
 0002:000031d8       ??_C@_1M@LJKPEMLN@?$AAn?$AAn?$AA?9?$AAn?$AAo?$AA?$AA@ 100441d8     libcpmt:winapinls.obj
 0002:000031e4       ??_C@_1M@BDGHHBFL@?$AAn?$AAs?$AA?9?$AAz?$AAa?$AA?$AA@ 100441e4     libcpmt:winapinls.obj
 0002:000031f0       ??_C@_1M@IDEHOAP@?$AAp?$AAa?$AA?9?$AAi?$AAn?$AA?$AA@ 100441f0     libcpmt:winapinls.obj
 0002:000031fc       ??_C@_1M@HDBKGOGH@?$AAp?$AAl?$AA?9?$AAp?$AAl?$AA?$AA@ 100441fc     libcpmt:winapinls.obj
 0002:00003208       ??_C@_1M@LJLLCMEH@?$AAp?$AAt?$AA?9?$AAb?$AAr?$AA?$AA@ 10044208     libcpmt:winapinls.obj
 0002:00003214       ??_C@_1M@NCMONAAL@?$AAp?$AAt?$AA?9?$AAp?$AAt?$AA?$AA@ 10044214     libcpmt:winapinls.obj
 0002:00003220       ??_C@_1O@EAKMAJDN@?$AAq?$AAu?$AAz?$AA?9?$AAb?$AAo?$AA?$AA@ 10044220     libcpmt:winapinls.obj
 0002:00003230       ??_C@_1O@BHHPIGDN@?$AAq?$AAu?$AAz?$AA?9?$AAe?$AAc?$AA?$AA@ 10044230     libcpmt:winapinls.obj
 0002:00003240       ??_C@_1O@GBAPEKMJ@?$AAq?$AAu?$AAz?$AA?9?$AAp?$AAe?$AA?$AA@ 10044240     libcpmt:winapinls.obj
 0002:00003250       ??_C@_1M@CLGLEFBO@?$AAr?$AAo?$AA?9?$AAr?$AAo?$AA?$AA@ 10044250     libcpmt:winapinls.obj
 0002:0000325c       ??_C@_1M@CEEDODME@?$AAr?$AAu?$AA?9?$AAr?$AAu?$AA?$AA@ 1004425c     libcpmt:winapinls.obj
 0002:00003268       ??_C@_1M@HPKKKMPP@?$AAs?$AAa?$AA?9?$AAi?$AAn?$AA?$AA@ 10044268     libcpmt:winapinls.obj
 0002:00003274       ??_C@_1M@BKMAIGOJ@?$AAs?$AAe?$AA?9?$AAf?$AAi?$AA?$AA@ 10044274     libcpmt:winapinls.obj
 0002:00003280       ??_C@_1M@NDPIFLFI@?$AAs?$AAe?$AA?9?$AAn?$AAo?$AA?$AA@ 10044280     libcpmt:winapinls.obj
 0002:0000328c       ??_C@_1M@DANKKHJ@?$AAs?$AAe?$AA?9?$AAs?$AAe?$AA?$AA@ 1004428c     libcpmt:winapinls.obj
 0002:00003298       ??_C@_1M@PNBLONPJ@?$AAs?$AAk?$AA?9?$AAs?$AAk?$AA?$AA@ 10044298     libcpmt:winapinls.obj
 0002:000032a4       ??_C@_1M@LFMODOAL@?$AAs?$AAl?$AA?9?$AAs?$AAi?$AA?$AA@ 100442a4     libcpmt:winapinls.obj
 0002:000032b0       ??_C@_1O@DFKOMPG@?$AAs?$AAm?$AAa?$AA?9?$AAn?$AAo?$AA?$AA@ 100442b0     libcpmt:winapinls.obj
 0002:000032c0       ??_C@_1O@NDKPBNNH@?$AAs?$AAm?$AAa?$AA?9?$AAs?$AAe?$AA?$AA@ 100442c0     libcpmt:winapinls.obj
 0002:000032d0       ??_C@_1O@PLLKBHAB@?$AAs?$AAm?$AAj?$AA?9?$AAn?$AAo?$AA?$AA@ 100442d0     libcpmt:winapinls.obj
 0002:000032e0       ??_C@_1O@CLEPOGCA@?$AAs?$AAm?$AAj?$AA?9?$AAs?$AAe?$AA?$AA@ 100442e0     libcpmt:winapinls.obj
 0002:000032f0       ??_C@_1O@DLGJGKMK@?$AAs?$AAm?$AAn?$AA?9?$AAf?$AAi?$AA?$AA@ 100442f0     libcpmt:winapinls.obj
 0002:00003300       ??_C@_1O@OJDJGAJC@?$AAs?$AAm?$AAs?$AA?9?$AAf?$AAi?$AA?$AA@ 10044300     libcpmt:winapinls.obj
 0002:00003310       ??_C@_1M@BOFOGHPB@?$AAs?$AAq?$AA?9?$AAa?$AAl?$AA?$AA@ 10044310     libcpmt:winapinls.obj
 0002:0000331c       ??_C@_1BG@LJBBIPGB@?$AAs?$AAr?$AA?9?$AAb?$AAa?$AA?9?$AAc?$AAy?$AAr?$AAl?$AA?$AA@ 1004431c     libcpmt:winapinls.obj
 0002:00003334       ??_C@_1BG@JLBENFOE@?$AAs?$AAr?$AA?9?$AAb?$AAa?$AA?9?$AAl?$AAa?$AAt?$AAn?$AA?$AA@ 10044334     libcpmt:winapinls.obj
 0002:0000334c       ??_C@_1BG@KODPNHE@?$AAs?$AAr?$AA?9?$AAs?$AAp?$AA?9?$AAc?$AAy?$AAr?$AAl?$AA?$AA@ 1004434c     libcpmt:winapinls.obj
 0002:00003364       ??_C@_1BG@CIOGKHPB@?$AAs?$AAr?$AA?9?$AAs?$AAp?$AA?9?$AAl?$AAa?$AAt?$AAn?$AA?$AA@ 10044364     libcpmt:winapinls.obj
 0002:0000337c       ??_C@_1M@NGFJLMAC@?$AAs?$AAv?$AA?9?$AAf?$AAi?$AA?$AA@ 1004437c     libcpmt:winapinls.obj
 0002:00003388       ??_C@_1M@MPJEJAJC@?$AAs?$AAv?$AA?9?$AAs?$AAe?$AA?$AA@ 10044388     libcpmt:winapinls.obj
 0002:00003394       ??_C@_1M@MPNDHLFK@?$AAs?$AAw?$AA?9?$AAk?$AAe?$AA?$AA@ 10044394     libcpmt:winapinls.obj
 0002:000033a0       ??_C@_1O@KOHBJJI@?$AAs?$AAy?$AAr?$AA?9?$AAs?$AAy?$AA?$AA@ 100443a0     libcpmt:winapinls.obj
 0002:000033b0       ??_C@_1M@LDCEFHA@?$AAt?$AAa?$AA?9?$AAi?$AAn?$AA?$AA@ 100443b0     libcpmt:winapinls.obj
 0002:000033bc       ??_C@_1M@CNJOFAK@?$AAt?$AAe?$AA?9?$AAi?$AAn?$AA?$AA@ 100443bc     libcpmt:winapinls.obj
 0002:000033c8       ??_C@_1M@GNAECACD@?$AAt?$AAh?$AA?9?$AAt?$AAh?$AA?$AA@ 100443c8     libcpmt:winapinls.obj
 0002:000033d4       ??_C@_1M@CHBIHOJO@?$AAt?$AAn?$AA?9?$AAz?$AAa?$AA?$AA@ 100443d4     libcpmt:winapinls.obj
 0002:000033e0       ??_C@_1M@GCCMIGPJ@?$AAt?$AAr?$AA?9?$AAt?$AAr?$AA?$AA@ 100443e0     libcpmt:winapinls.obj
 0002:000033ec       ??_C@_1M@CELMCNBK@?$AAt?$AAt?$AA?9?$AAr?$AAu?$AA?$AA@ 100443ec     libcpmt:winapinls.obj
 0002:000033f8       ??_C@_1M@KLMCELGA@?$AAu?$AAk?$AA?9?$AAu?$AAa?$AA?$AA@ 100443f8     libcpmt:winapinls.obj
 0002:00003404       ??_C@_1M@EPAJJAJF@?$AAu?$AAr?$AA?9?$AAp?$AAk?$AA?$AA@ 10044404     libcpmt:winapinls.obj
 0002:00003410       ??_C@_1BG@GEGPMCDJ@?$AAu?$AAz?$AA?9?$AAu?$AAz?$AA?9?$AAc?$AAy?$AAr?$AAl?$AA?$AA@ 10044410     libcpmt:winapinls.obj
 0002:00003428       ??_C@_1BG@EGGKJILM@?$AAu?$AAz?$AA?9?$AAu?$AAz?$AA?9?$AAl?$AAa?$AAt?$AAn?$AA?$AA@ 10044428     libcpmt:winapinls.obj
 0002:00003440       ??_C@_1M@GFOCLFF@?$AAv?$AAi?$AA?9?$AAv?$AAn?$AA?$AA@ 10044440     libcpmt:winapinls.obj
 0002:0000344c       ??_C@_1M@CPAMEDFI@?$AAx?$AAh?$AA?9?$AAz?$AAa?$AA?$AA@ 1004444c     libcpmt:winapinls.obj
 0002:00003458       ??_C@_1O@EBKIFIGN@?$AAz?$AAh?$AA?9?$AAc?$AAh?$AAs?$AA?$AA@ 10044458     libcpmt:winapinls.obj
 0002:00003468       ??_C@_1O@NMHPGANE@?$AAz?$AAh?$AA?9?$AAc?$AAh?$AAt?$AA?$AA@ 10044468     libcpmt:winapinls.obj
 0002:00003478       ??_C@_1M@LPINJOMC@?$AAz?$AAh?$AA?9?$AAc?$AAn?$AA?$AA@ 10044478     libcpmt:winapinls.obj
 0002:00003484       ??_C@_1M@OCJEJODD@?$AAz?$AAh?$AA?9?$AAh?$AAk?$AA?$AA@ 10044484     libcpmt:winapinls.obj
 0002:00003490       ??_C@_1M@DNDLJINH@?$AAz?$AAh?$AA?9?$AAm?$AAo?$AA?$AA@ 10044490     libcpmt:winapinls.obj
 0002:0000349c       ??_C@_1M@MBFDNDND@?$AAz?$AAh?$AA?9?$AAs?$AAg?$AA?$AA@ 1004449c     libcpmt:winapinls.obj
 0002:000034a8       ??_C@_1M@IMEPLEPE@?$AAz?$AAh?$AA?9?$AAt?$AAw?$AA?$AA@ 100444a8     libcpmt:winapinls.obj
 0002:000034b4       ??_C@_1M@BBGHNHJP@?$AAz?$AAu?$AA?9?$AAz?$AAa?$AA?$AA@ 100444b4     libcpmt:winapinls.obj
 0002:000034c0       __pDefaultRawDllMain       100444c0     LIBCMT:dll_dllmain.obj
 0002:000034c0       __pRawDllMain              100444c0     LIBCMT:dll_dllmain.obj
 0002:000034c8       ??_7type_info@@6B@         100444c8     LIBCMT:std_type_info_static.obj
 0002:000034d8       ??_7bad_array_new_length@std@@6B@ 100444d8     LIBCMT:throw_bad_alloc.obj
 0002:000034e0       ??_C@_0BF@KINCDENJ@bad?5array?5new?5length?$AA@ 100444e0     LIBCMT:throw_bad_alloc.obj
 0002:000034f8       __pDestructExceptionObject 100444f8     libvcruntime:frame.obj
 0002:00003500       ??_7bad_exception@std@@6B@ 10044500     libvcruntime:frame.obj
 0002:00003508       ??_C@_0O@DPKOEFFH@bad?5exception?$AA@ 10044508     libvcruntime:frame.obj
 0002:00003548       ??_C@_1BC@DNHGCMLG@?$AAa?$AAd?$AAv?$AAa?$AAp?$AAi?$AA3?$AA2?$AA?$AA@ 10044548     libvcruntime:winapi_downlevel.obj
 0002:0000355c       ??_C@_1DM@KHCHBNEB@?$AAa?$AAp?$AAi?$AA?9?$AAm?$AAs?$AA?9?$AAw?$AAi?$AAn?$AA?9?$AAc?$AAo?$AAr?$AAe?$AA?9?$AAf?$AAi?$AAb?$AAe?$AAr?$AAs?$AA?9?$AAl?$AA1?$AA?9?$AA1?$AA?9?$AA1?$AA?$AA@ 1004455c     libvcruntime:winapi_downlevel.obj
 0002:00003598       ??_C@_1DK@LPPGFMPP@?$AAa?$AAp?$AAi?$AA?9?$AAm?$AAs?$AA?9?$AAw?$AAi?$AAn?$AA?9?$AAc?$AAo?$AAr?$AAe?$AA?9?$AAs?$AAy?$AAn?$AAc?$AAh?$AA?9?$AAl?$AA1?$AA?9?$AA2?$AA?9?$AA0?$AA?$AA@ 10044598     libvcruntime:winapi_downlevel.obj
 0002:000035d4       ??_C@_1BC@GDMECMAK@?$AAk?$AAe?$AAr?$AAn?$AAe?$AAl?$AA3?$AA2?$AA?$AA@ 100445d4     libvcruntime:winapi_downlevel.obj
 0002:000037a0       ??_C@_08EHJDFFNH@__based?$CI?$AA@ 100447a0     libvcruntime:undname.obj
 0002:000037ac       ??_C@_07KOLFKCDI@__cdecl?$AA@ 100447ac     libvcruntime:undname.obj
 0002:000037b4       ??_C@_08GHMPAG@__pascal?$AA@ 100447b4     libvcruntime:undname.obj
 0002:000037c0       ??_C@_09IFJBGAPI@__stdcall?$AA@ 100447c0     libvcruntime:undname.obj
 0002:000037cc       ??_C@_0L@NPHFGOKO@__thiscall?$AA@ 100447cc     libvcruntime:undname.obj
 0002:000037d8       ??_C@_0L@JMKHOMEK@__fastcall?$AA@ 100447d8     libvcruntime:undname.obj
 0002:000037e4       ??_C@_0N@BCKKPABJ@__vectorcall?$AA@ 100447e4     libvcruntime:undname.obj
 0002:000037f4       ??_C@_09HIJEGCPM@__clrcall?$AA@ 100447f4     libvcruntime:undname.obj
 0002:00003800       ??_C@_06GHPCKEAG@__eabi?$AA@ 10044800     libvcruntime:undname.obj
 0002:00003808       ??_C@_07JOMMBBKO@__ptr64?$AA@ 10044808     libvcruntime:undname.obj
 0002:00003810       ??_C@_0L@PILCLIHE@__restrict?$AA@ 10044810     libvcruntime:undname.obj
 0002:0000381c       ??_C@_0M@GFIIJFMG@__unaligned?$AA@ 1004481c     libvcruntime:undname.obj
 0002:00003828       ??_C@_09DHDLOLLB@restrict?$CI?$AA@ 10044828     libvcruntime:undname.obj
 0002:00003834       ??_C@_04NIHEBCM@?5new?$AA@ 10044834     libvcruntime:undname.obj
 0002:0000383c       ??_C@_07FPCDHGMM@?5delete?$AA@ 1004483c     libvcruntime:undname.obj
 0002:00003844       ??_C@_01NEMOKFLO@?$DN?$AA@ 10044844     libvcruntime:undname.obj
 0002:00003848       ??_C@_02GPIOPFAK@?$DO?$DO?$AA@ 10044848     libvcruntime:undname.obj
 0002:0000384c       ??_C@_02FODMEDOG@?$DM?$DM?$AA@ 1004484c     libvcruntime:undname.obj
 0002:00003850       ??_C@_01DCLJPIOD@?$CB?$AA@ 10044850     libvcruntime:undname.obj
 0002:00003854       ??_C@_02EGOFBIJA@?$DN?$DN?$AA@ 10044854     libvcruntime:undname.obj
 0002:00003858       ??_C@_02FDNJECIE@?$CB?$DN?$AA@ 10044858     libvcruntime:undname.obj
 0002:0000385c       ??_C@_02GPECMEKF@?$FL?$FN?$AA@ 1004485c     libvcruntime:undname.obj
 0002:00003860       ??_C@_08LHJFAFGD@operator?$AA@ 10044860     libvcruntime:undname.obj
 0002:0000386c       ??_C@_02HBOOOICD@?9?$DO?$AA@ 1004486c     libvcruntime:undname.obj
 0002:00003870       ??_C@_02ECNGHCIF@?$CL?$CL?$AA@ 10044870     libvcruntime:undname.obj
 0002:00003874       ??_C@_02BAABKJLB@?9?9?$AA@ 10044874     libvcruntime:undname.obj
 0002:00003878       ??_C@_01MIFGBAGJ@?$CL?$AA@ 10044878     libvcruntime:undname.obj
 0002:0000387c       ??_C@_01HNPIGOCE@?$CG?$AA@ 1004487c     libvcruntime:undname.obj
 0002:00003880       ??_C@_03MNHNFDLC@?9?$DO?$CK?$AA@ 10044880     libvcruntime:undname.obj
 0002:00003884       ??_C@_01KMDKNFGN@?1?$AA@   10044884     libvcruntime:undname.obj
 0002:00003888       ??_C@_01FGNFDNOH@?$CF?$AA@ 10044888     libvcruntime:undname.obj
 0002:0000388c       ??_C@_01MNNFJEPP@?$DM?$AA@ 1004488c     libvcruntime:undname.obj
 0002:00003890       ??_C@_02EHCHHCKH@?$DM?$DN?$AA@ 10044890     libvcruntime:undname.obj
 0002:00003894       ??_C@_01PPODPGHN@?$DO?$AA@ 10044894     libvcruntime:undname.obj
 0002:00003898       ??_C@_02EEKDKGMJ@?$DO?$DN?$AA@ 10044898     libvcruntime:undname.obj
 0002:0000389c       ??_C@_02HCKGKOFO@?$CI?$CJ?$AA@ 1004489c     libvcruntime:undname.obj
 0002:000038a0       ??_C@_01PJKLJHI@?$HO?$AA@  100448a0     libvcruntime:undname.obj
 0002:000038a4       ??_C@_01JKBOJNNK@?$FO?$AA@ 100448a4     libvcruntime:undname.obj
 0002:000038a8       ??_C@_01DNKMNLPK@?$HM?$AA@ 100448a8     libvcruntime:undname.obj
 0002:000038ac       ??_C@_02PPKAJPJL@?$CG?$CG?$AA@ 100448ac     libvcruntime:undname.obj
 0002:000038b0       ??_C@_02NONPIBCD@?$HM?$HM?$AA@ 100448b0     libvcruntime:undname.obj
 0002:000038b4       ??_C@_02FPIMKNGF@?$CK?$DN?$AA@ 100448b4     libvcruntime:undname.obj
 0002:000038b8       ??_C@_02FOEOMHFC@?$CL?$DN?$AA@ 100448b8     libvcruntime:undname.obj
 0002:000038bc       ??_C@_02FKMDLLOA@?9?$DN?$AA@ 100448bc     libvcruntime:undname.obj
 0002:000038c0       ??_C@_02FJEHGPIO@?1?$DN?$AA@ 100448c0     libvcruntime:undname.obj
 0002:000038c4       ??_C@_02FENAOKFI@?$CF?$DN?$AA@ 100448c4     libvcruntime:undname.obj
 0002:000038c8       ??_C@_03IKFCCPFF@?$DO?$DO?$DN?$AA@ 100448c8     libvcruntime:undname.obj
 0002:000038cc       ??_C@_03CDNPDDLA@?$DM?$DM?$DN?$AA@ 100448cc     libvcruntime:undname.obj
 0002:000038d0       ??_C@_02FGJGFEAB@?$CG?$DN?$AA@ 100448d0     libvcruntime:undname.obj
 0002:000038d4       ??_C@_02DHLNPPGH@?$HM?$DN?$AA@ 100448d4     libvcruntime:undname.obj
 0002:000038d8       ??_C@_02MHEGNOJ@?$FO?$DN?$AA@ 100448d8     libvcruntime:undname.obj
 0002:000038dc       ??_C@_09IFPLHPGF@?$GAvftable?8?$AA@ 100448dc     libvcruntime:undname.obj
 0002:000038e8       ??_C@_09BLBHBJP@?$GAvbtable?8?$AA@ 100448e8     libvcruntime:undname.obj
 0002:000038f4       ??_C@_07FEEIOKP@?$GAvcall?8?$AA@ 100448f4     libvcruntime:undname.obj
 0002:000038fc       ??_C@_08LLFFHHDJ@?$GAtypeof?8?$AA@ 100448fc     libvcruntime:undname.obj
 0002:00003908       ??_C@_0BF@KDPPACIK@?$GAlocal?5static?5guard?8?$AA@ 10044908     libvcruntime:undname.obj
 0002:00003920       ??_C@_08OBABFOLI@?$GAstring?8?$AA@ 10044920     libvcruntime:undname.obj
 0002:0000392c       ??_C@_0BD@JDLKDPAB@?$GAvbase?5destructor?8?$AA@ 1004492c     libvcruntime:undname.obj
 0002:00003940       ??_C@_0BN@DEGPLNFK@?$GAvector?5deleting?5destructor?8?$AA@ 10044940     libvcruntime:undname.obj
 0002:00003960       ??_C@_0BO@OBMKPJIG@?$GAdefault?5constructor?5closure?8?$AA@ 10044960     libvcruntime:undname.obj
 0002:00003980       ??_C@_0BN@IMDCHIKM@?$GAscalar?5deleting?5destructor?8?$AA@ 10044980     libvcruntime:undname.obj
 0002:000039a0       ??_C@_0BO@PFGOCPJJ@?$GAvector?5constructor?5iterator?8?$AA@ 100449a0     libvcruntime:undname.obj
 0002:000039c0       ??_C@_0BN@LFPFMEDL@?$GAvector?5destructor?5iterator?8?$AA@ 100449c0     libvcruntime:undname.obj
 0002:000039e0       ??_C@_0CE@IKBNEHA@?$GAvector?5vbase?5constructor?5iterat@ 100449e0     libvcruntime:undname.obj
 0002:00003a04       ??_C@_0BL@NILFHHPC@?$GAvirtual?5displacement?5map?8?$AA@ 10044a04     libvcruntime:undname.obj
 0002:00003a20       ??_C@_0CB@JONCMFFK@?$GAeh?5vector?5constructor?5iterator?8@ 10044a20     libvcruntime:undname.obj
 0002:00003a44       ??_C@_0CA@GCEOPDGL@?$GAeh?5vector?5destructor?5iterator?8?$AA@ 10044a44     libvcruntime:undname.obj
 0002:00003a64       ??_C@_0CH@OOJPLCPH@?$GAeh?5vector?5vbase?5constructor?5ite@ 10044a64     libvcruntime:undname.obj
 0002:00003a8c       ??_C@_0BL@LLKPOHJI@?$GAcopy?5constructor?5closure?8?$AA@ 10044a8c     libvcruntime:undname.obj
 0002:00003aa8       ??_C@_0BA@KBCDOMBN@?$GAudt?5returning?8?$AA@ 10044aa8     libvcruntime:undname.obj
 0002:00003ab8       ??_C@_03KLGMFNMG@?$GAEH?$AA@ 10044ab8     libvcruntime:undname.obj
 0002:00003abc       ??_C@_05KHLCHHI@?$GARTTI?$AA@ 10044abc     libvcruntime:undname.obj
 0002:00003ac4       ??_C@_0BA@KKLDJDLB@?$GAlocal?5vftable?8?$AA@ 10044ac4     libvcruntime:undname.obj
 0002:00003ad4       ??_C@_0CE@IIHCMGGL@?$GAlocal?5vftable?5constructor?5closu@ 10044ad4     libvcruntime:undname.obj
 0002:00003af8       ??_C@_06FHBGPFGH@?5new?$FL?$FN?$AA@ 10044af8     libvcruntime:undname.obj
 0002:00003b00       ??_C@_09LBNFPBCA@?5delete?$FL?$FN?$AA@ 10044b00     libvcruntime:undname.obj
 0002:00003b0c       ??_C@_0P@HJKNJFNN@?$GAomni?5callsig?8?$AA@ 10044b0c     libvcruntime:undname.obj
 0002:00003b1c       ??_C@_0BL@CNOONJFP@?$GAplacement?5delete?5closure?8?$AA@ 10044b1c     libvcruntime:undname.obj
 0002:00003b38       ??_C@_0BN@CKNJLHMB@?$GAplacement?5delete?$FL?$FN?5closure?8?$AA@ 10044b38     libvcruntime:undname.obj
 0002:00003b58       ??_C@_0CG@CFDHKGGD@?$GAmanaged?5vector?5constructor?5iter@ 10044b58     libvcruntime:undname.obj
 0002:00003b80       ??_C@_0CF@IMGKMJNO@?$GAmanaged?5vector?5destructor?5itera@ 10044b80     libvcruntime:undname.obj
 0002:00003ba8       ??_C@_0CG@HLDDJMAG@?$GAeh?5vector?5copy?5constructor?5iter@ 10044ba8     libvcruntime:undname.obj
 0002:00003bd0       ??_C@_0CM@FCBBDIGB@?$GAeh?5vector?5vbase?5copy?5constructo@ 10044bd0     libvcruntime:undname.obj
 0002:00003bfc       ??_C@_0BL@CLIPGLGB@?$GAdynamic?5initializer?5for?5?8?$AA@ 10044bfc     libvcruntime:undname.obj
 0002:00003c18       ??_C@_0CB@PDBIFEP@?$GAdynamic?5atexit?5destructor?5for?5?8@ 10044c18     libvcruntime:undname.obj
 0002:00003c3c       ??_C@_0CD@CGAJBKEJ@?$GAvector?5copy?5constructor?5iterato@ 10044c3c     libvcruntime:undname.obj
 0002:00003c60       ??_C@_0CJ@GJELGAMM@?$GAvector?5vbase?5copy?5constructor?5i@ 10044c60     libvcruntime:undname.obj
 0002:00003c8c       ??_C@_0CL@FGIJHLCE@?$GAmanaged?5vector?5copy?5constructor@ 10044c8c     libvcruntime:undname.obj
 0002:00003cb8       ??_C@_0BM@PMGGMLDN@?$GAlocal?5static?5thread?5guard?8?$AA@ 10044cb8     libvcruntime:undname.obj
 0002:00003cd4       ??_C@_0N@BDNMDMOL@operator?5?$CC?$CC?5?$AA@ 10044cd4     libvcruntime:undname.obj
 0002:00003ce4       ??_C@_0BC@DAFEJGAK@?5Type?5Descriptor?8?$AA@ 10044ce4     libvcruntime:undname.obj
 0002:00003cf8       ??_C@_0BM@LDKODKLH@?5Base?5Class?5Descriptor?5at?5?$CI?$AA@ 10044cf8     libvcruntime:undname.obj
 0002:00003d14       ??_C@_0BD@LGICGFMM@?5Base?5Class?5Array?8?$AA@ 10044d14     libvcruntime:undname.obj
 0002:00003d28       ??_C@_0BN@MECKDCOJ@?5Class?5Hierarchy?5Descriptor?8?$AA@ 10044d28     libvcruntime:undname.obj
 0002:00003d48       ??_C@_0BK@CFCOFLF@?5Complete?5Object?5Locator?8?$AA@ 10044d48     libvcruntime:undname.obj
 0002:00003d68       _standard_lookup_table     10044d68     libucrt:output.obj
 0002:00003dc8       _format_validation_lookup_table 10044dc8     libucrt:output.obj
 0002:00003e24       ??_C@_06OJHGLDPL@?$CInull?$CJ?$AA@ 10044e24     libucrt:output.obj
 0002:00003e2c       ??_C@_1O@CEDCILHN@?$AA?$CI?$AAn?$AAu?$AAl?$AAl?$AA?$CJ?$AA?$AA@ 10044e2c     libucrt:output.obj
 0002:00003fa8       __real@8000000000000000    10044fa8     libucrt:frexp.obj
 0002:00003fb0       ?large_power_data@?1??multiply_by_power_of_ten@__crt_strtox@@YA_NAAUbig_integer@2@I@Z@4QBIB 10044fb0     libucrt:atof.obj
 0002:000048b8       ?large_power_indices@?1??multiply_by_power_of_ten@__crt_strtox@@YA_NAAUbig_integer@2@I@Z@4QBUunpack_index@?1??12@YA_N0I@Z@B 100458b8     libucrt:atof.obj
 0002:00004950       ?small_powers_of_ten@?6??multiply_by_power_of_ten@__crt_strtox@@YA_NAAUbig_integer@2@I@Z@4QBIB 10045950     libucrt:atof.obj
 0002:00004978       ??_C@_1GE@DPGDJKLM@?$AAm?$AAi?$AAn?$AAk?$AAe?$AAr?$AAn?$AAe?$AAl?$AA?2?$AAc?$AAr?$AAt?$AAs?$AA?2?$AAu?$AAc?$AAr?$AAt?$AA?2?$AAi?$AAn?$AAc?$AA?2?$AAc?$AAo?$AAr?$AAe?$AAc?$AAr?$AAt?$AA_@ 10045978     libucrt:atof.obj
 0002:000049e0       ??_C@_1FM@FELNCOBF@?$AA_?$AA_?$AAc?$AAr?$AAt?$AA_?$AAs?$AAt?$AAr?$AAt?$AAo?$AAx?$AA?3?$AA?3?$AAf?$AAl?$AAo?$AAa?$AAt?$AAi?$AAn?$AAg?$AA_?$AAp?$AAo?$AAi?$AAn?$AAt?$AA_?$AAv?$AAa?$AAl@ 100459e0     libucrt:atof.obj
 0002:00004a3c       ??_C@_1BG@GEMHBGAF@?$AA_?$AAi?$AAs?$AA_?$AAd?$AAo?$AAu?$AAb?$AAl?$AAe?$AA?$AA@ 10045a3c     libucrt:atof.obj
 0002:00004a58       ??_C@_1FK@JOJELFFO@?$AA_?$AA_?$AAc?$AAr?$AAt?$AA_?$AAs?$AAt?$AAr?$AAt?$AAo?$AAx?$AA?3?$AA?3?$AAf?$AAl?$AAo?$AAa?$AAt?$AAi?$AAn?$AAg?$AA_?$AAp?$AAo?$AAi?$AAn?$AAt?$AA_?$AAv?$AAa?$AAl@ 10045a58     libucrt:atof.obj
 0002:00004ab4       ??_C@_1BI@BANMPGJI@?$AA?$CB?$AA_?$AAi?$AAs?$AA_?$AAd?$AAo?$AAu?$AAb?$AAl?$AAe?$AA?$AA@ 10045ab4     libucrt:atof.obj
 0002:00004acc       ?inf_uppercase@?2???$parse_floating_point_possible_infinity@DV?$c_string_character_source@D@__crt_strtox@@PBD@__crt_strtox@@YA?AW4floating_point_parse_result@1@AADAAV?$c_string_character_source@D@1@PBD@Z@4QBDB 10045acc     libucrt:atof.obj
 0002:00004ad0       ?inf_lowercase@?2???$parse_floating_point_possible_infinity@DV?$c_string_character_source@D@__crt_strtox@@PBD@__crt_strtox@@YA?AW4floating_point_parse_result@1@AADAAV?$c_string_character_source@D@1@PBD@Z@4QBDB 10045ad0     libucrt:atof.obj
 0002:00004ad4       ?inity_uppercase@?5???$parse_floating_point_possible_infinity@DV?$c_string_character_source@D@__crt_strtox@@PBD@__crt_strtox@@YA?AW4floating_point_parse_result@1@AADAAV?$c_string_character_source@D@1@PBD@Z@4QBDB 10045ad4     libucrt:atof.obj
 0002:00004adc       ?inity_lowercase@?5???$parse_floating_point_possible_infinity@DV?$c_string_character_source@D@__crt_strtox@@PBD@__crt_strtox@@YA?AW4floating_point_parse_result@1@AADAAV?$c_string_character_source@D@1@PBD@Z@4QBDB 10045adc     libucrt:atof.obj
 0002:00004ae4       ?uppercase@?2???$parse_floating_point_possible_nan@DV?$c_string_character_source@D@__crt_strtox@@PBD@__crt_strtox@@YA?AW4floating_point_parse_result@1@AADAAV?$c_string_character_source@D@1@PBD@Z@4QBDB 10045ae4     libucrt:atof.obj
 0002:00004ae8       ?lowercase@?2???$parse_floating_point_possible_nan@DV?$c_string_character_source@D@__crt_strtox@@PBD@__crt_strtox@@YA?AW4floating_point_parse_result@1@AADAAV?$c_string_character_source@D@1@PBD@Z@4QBDB 10045ae8     libucrt:atof.obj
 0002:00004aec       ?uppercase@?1???$parse_floating_point_possible_nan_is_snan@DV?$c_string_character_source@D@__crt_strtox@@@__crt_strtox@@YA_NAADAAV?$c_string_character_source@D@1@@Z@4QBDB 10045aec     libucrt:atof.obj
 0002:00004af4       ?lowercase@?1???$parse_floating_point_possible_nan_is_snan@DV?$c_string_character_source@D@__crt_strtox@@@__crt_strtox@@YA_NAADAAV?$c_string_character_source@D@1@@Z@4QBDB 10045af4     libucrt:atof.obj
 0002:00004afc       ?uppercase@?1???$parse_floating_point_possible_nan_is_ind@DV?$c_string_character_source@D@__crt_strtox@@@__crt_strtox@@YA_NAADAAV?$c_string_character_source@D@1@@Z@4QBDB 10045afc     libucrt:atof.obj
 0002:00004b00       ?lowercase@?1???$parse_floating_point_possible_nan_is_ind@DV?$c_string_character_source@D@__crt_strtox@@@__crt_strtox@@YA_NAADAAV?$c_string_character_source@D@1@@Z@4QBDB 10045b00     libucrt:atof.obj
 0002:00004b08       ??_C@_1EK@MBDPDCGA@?$AAM?$AAi?$AAc?$AAr?$AAo?$AAs?$AAo?$AAf?$AAt?$AA?5?$AAV?$AAi?$AAs?$AAu?$AAa?$AAl?$AA?5?$AAC?$AA?$CL?$AA?$CL?$AA?5?$AAR?$AAu?$AAn?$AAt?$AAi?$AAm?$AAe?$AA?5?$AAL?$AAi?$AAb@ 10045b08     libucrt:assert.obj
 0002:00004b58       ??_C@_1FE@LHBLIKM@?$AAA?$AAs?$AAs?$AAe?$AAr?$AAt?$AAi?$AAo?$AAn?$AA?5?$AAf?$AAa?$AAi?$AAl?$AAe?$AAd?$AA?3?$AA?5?$AA?$CF?$AAT?$AAs?$AA?0?$AA?5?$AAf?$AAi?$AAl?$AAe?$AA?5?$AA?$CF?$AAT?$AAs?$AA?0@ 10045b58     libucrt:assert.obj
 0002:00004bac       ??_C@_1CE@OJBNHDMO@?$AAA?$AAs?$AAs?$AAe?$AAr?$AAt?$AAi?$AAo?$AAn?$AA?5?$AAf?$AAa?$AAi?$AAl?$AAe?$AAd?$AA?$CB?$AA?$AA@ 10045bac     libucrt:assert.obj
 0002:00004bd0       ??_C@_1BE@PHKBBGE@?$AAP?$AAr?$AAo?$AAg?$AAr?$AAa?$AAm?$AA?3?$AA?5?$AA?$AA@ 10045bd0     libucrt:assert.obj
 0002:00004be4       ??_C@_1O@HEMHKNDC@?$AAF?$AAi?$AAl?$AAe?$AA?3?$AA?5?$AA?$AA@ 10045be4     libucrt:assert.obj
 0002:00004bf4       ??_C@_1O@KCAFKHJE@?$AAL?$AAi?$AAn?$AAe?$AA?3?$AA?5?$AA?$AA@ 10045bf4     libucrt:assert.obj
 0002:00004c04       ??_C@_1BK@PEDCIPMA@?$AAE?$AAx?$AAp?$AAr?$AAe?$AAs?$AAs?$AAi?$AAo?$AAn?$AA?3?$AA?5?$AA?$AA@ 10045c04     libucrt:assert.obj
 0002:00004c20       ??_C@_1OA@EGMLFBHJ@?$AAF?$AAo?$AAr?$AA?5?$AAi?$AAn?$AAf?$AAo?$AAr?$AAm?$AAa?$AAt?$AAi?$AAo?$AAn?$AA?5?$AAo?$AAn?$AA?5?$AAh?$AAo?$AAw?$AA?5?$AAy?$AAo?$AAu?$AAr?$AA?5?$AAp?$AAr?$AAo?$AAg@ 10045c20     libucrt:assert.obj
 0002:00004d00       ??_C@_1HK@POCJMFGK@?$AA?$CI?$AAP?$AAr?$AAe?$AAs?$AAs?$AA?5?$AAR?$AAe?$AAt?$AAr?$AAy?$AA?5?$AAt?$AAo?$AA?5?$AAd?$AAe?$AAb?$AAu?$AAg?$AA?5?$AAt?$AAh?$AAe?$AA?5?$AAa?$AAp?$AAp?$AAl?$AAi?$AAc@ 10045d00     libucrt:assert.obj
 0002:00004d7c       ??_C@_17LGKOMLJ@?$AA?4?$AA?4?$AA?4?$AA?$AA@ 10045d7c     libucrt:assert.obj
 0002:00004d84       ??_C@_13LBAGMAIH@?$AA?6?$AA?$AA@ 10045d84     libucrt:assert.obj
 0002:00004d88       ??_C@_15IABLJNFO@?$AA?6?$AA?6?$AA?$AA@ 10045d88     libucrt:assert.obj
 0002:00004d90       ??_C@_1CO@EAEJAADC@?$AA?$DM?$AAp?$AAr?$AAo?$AAg?$AAr?$AAa?$AAm?$AA?5?$AAn?$AAa?$AAm?$AAe?$AA?5?$AAu?$AAn?$AAk?$AAn?$AAo?$AAw?$AAn?$AA?$DO?$AA?$AA@ 10045d90     libucrt:assert.obj
 0002:00004dc0       __wctype                   10045dc0     libucrt:ctype.obj
 0002:00004fc8       ___newctype                10045fc8     libucrt:ctype.obj
 0002:000052c8       ___newclmap                100462c8     libucrt:ctype.obj
 0002:00005448       ___newcumap                10046448     libucrt:ctype.obj
 0002:000055d4       __half                     100465d4     libucrt:pow.obj
 0002:000055dc       ??_C@_1M@PBPMMENC@?$AAa?$AAm?$AA?1?$AAp?$AAm?$AA?$AA@ 100465dc     libucrt:wcsftime.obj
 0002:000055e8       ??_C@_17BLFJJHMM@?$AAa?$AA?1?$AAp?$AA?$AA@ 100465e8     libucrt:wcsftime.obj
 0002:000055f0       ??_C@_13HOIJIPNN@?$AA?5?$AA?$AA@ 100465f0     libucrt:wcsftime.obj
 0002:000055f4       ??_C@_13CGOKJPIL@?$AA?1?$AA?$AA@ 100465f4     libucrt:wcsftime.obj
 0002:000055f8       ??_C@_13EBCNDICG@?$AA?3?$AA?$AA@ 100465f8     libucrt:wcsftime.obj
 0002:000055fc       ??_C@_13KDLDGPGJ@?$AA?7?$AA?$AA@ 100465fc     libucrt:wcsftime.obj
 0002:00005600       ??_C@_13KJIIAINM@?$AA?$CL?$AA?$AA@ 10046600     libucrt:wcsftime.obj
 0002:00005604       ??_C@_13EJFHHPOP@?$AA?$CF?$AA?$AA@ 10046604     libucrt:wcsftime.obj
 0002:00005608       ___acrt_exception_action_table 10046608     libucrt:exception_filter.obj
 0002:00005698       ___acrt_signal_action_table_count 10046698     libucrt:exception_filter.obj
 0002:0000569c       ___acrt_signal_action_first_fpe_index 1004669c     libucrt:exception_filter.obj
 0002:000056a0       ___acrt_signal_action_fpe_count 100466a0     libucrt:exception_filter.obj
 0002:000056a4       ??_C@_1BI@BGOHAHKC@?$AAm?$AAs?$AAc?$AAo?$AAr?$AAe?$AAe?$AA?4?$AAd?$AAl?$AAl?$AA?$AA@ 100466a4     libucrt:exit.obj
 0002:000056bc       ??_C@_0P@MIGLKIOC@CorExitProcess?$AA@ 100466bc     libucrt:exit.obj
 0002:00005748       ___lc_category             10046748     libucrt:wsetlocale.obj
 0002:00005790       ??_C@_1O@GIFLHMA@?$AAL?$AAC?$AA_?$AAA?$AAL?$AAL?$AA?$AA@ 10046790     libucrt:wsetlocale.obj
 0002:000057a0       ??_C@_1BG@PPOMIBNJ@?$AAL?$AAC?$AA_?$AAC?$AAO?$AAL?$AAL?$AAA?$AAT?$AAE?$AA?$AA@ 100467a0     libucrt:wsetlocale.obj
 0002:000057b8       ??_C@_1BC@FFJGAPJM@?$AAL?$AAC?$AA_?$AAC?$AAT?$AAY?$AAP?$AAE?$AA?$AA@ 100467b8     libucrt:wsetlocale.obj
 0002:000057cc       ??_C@_1BI@PCKFNJFB@?$AAL?$AAC?$AA_?$AAM?$AAO?$AAN?$AAE?$AAT?$AAA?$AAR?$AAY?$AA?$AA@ 100467cc     libucrt:wsetlocale.obj
 0002:000057e4       ??_C@_1BG@ENIEDKID@?$AAL?$AAC?$AA_?$AAN?$AAU?$AAM?$AAE?$AAR?$AAI?$AAC?$AA?$AA@ 100467e4     libucrt:wsetlocale.obj
 0002:000057fc       ??_C@_1BA@HAAOMIIG@?$AAL?$AAC?$AA_?$AAT?$AAI?$AAM?$AAE?$AA?$AA@ 100467fc     libucrt:wsetlocale.obj
 0002:00005890       ??_C@_15NBPDDFIP@?$AA?$DN?$AA?$DL?$AA?$AA@ 10046890     libucrt:wsetlocale.obj
 0002:00005898       ??_C@_13PJJBFPED@?$AA?$DL?$AA?$AA@ 10046898     libucrt:wsetlocale.obj
 0002:0000589c       ??_C@_13NMPKAAJP@?$AA?$DN?$AA?$AA@ 1004689c     libucrt:wsetlocale.obj
 0002:000058a0       ??_C@_13FHBKNHDA@?$AAC?$AA?$AA@ 100468a0     libucrt:wsetlocale.obj
 0002:000058a4       ??_C@_17MBJJLFDM@?$AA_?$AA?4?$AA?0?$AA?$AA@ 100468a4     libucrt:wsetlocale.obj
 0002:000058ac       ??_C@_13ENNFDPBH@?$AA_?$AA?$AA@ 100468ac     libucrt:wsetlocale.obj
 0002:000058b0       ??_C@_13JOFGPIOO@?$AA?4?$AA?$AA@ 100468b0     libucrt:wsetlocale.obj
 0002:000058b4       ??_C@_03KOEHGMDN@Sun?$AA@  100468b4     libucrt:nlsdata.obj
 0002:000058b8       ??_C@_03PDAGKDH@Mon?$AA@   100468b8     libucrt:nlsdata.obj
 0002:000058bc       ??_C@_03NAGEINEP@Tue?$AA@  100468bc     libucrt:nlsdata.obj
 0002:000058c0       ??_C@_03MHOMLAJA@Wed?$AA@  100468c0     libucrt:nlsdata.obj
 0002:000058c4       ??_C@_03IOFIKPDN@Thu?$AA@  100468c4     libucrt:nlsdata.obj
 0002:000058c8       ??_C@_03IDIOELNC@Fri?$AA@  100468c8     libucrt:nlsdata.obj
 0002:000058cc       ??_C@_03FEFJNEK@Sat?$AA@   100468cc     libucrt:nlsdata.obj
 0002:000058d0       ??_C@_06OOPIFAJ@Sunday?$AA@ 100468d0     libucrt:nlsdata.obj
 0002:000058d8       ??_C@_06JLEDEDGH@Monday?$AA@ 100468d8     libucrt:nlsdata.obj
 0002:000058e0       ??_C@_07BAAGCFCM@Tuesday?$AA@ 100468e0     libucrt:nlsdata.obj
 0002:000058e8       ??_C@_09DLIGFAKA@Wednesday?$AA@ 100468e8     libucrt:nlsdata.obj
 0002:000058f4       ??_C@_08HACCIKIA@Thursday?$AA@ 100468f4     libucrt:nlsdata.obj
 0002:00005900       ??_C@_06JECMNKMI@Friday?$AA@ 10046900     libucrt:nlsdata.obj
 0002:00005908       ??_C@_08INBOOONO@Saturday?$AA@ 10046908     libucrt:nlsdata.obj
 0002:00005914       ??_C@_03JIHJHPIE@Jan?$AA@  10046914     libucrt:nlsdata.obj
 0002:00005918       ??_C@_03HJBDCHOM@Feb?$AA@  10046918     libucrt:nlsdata.obj
 0002:0000591c       ??_C@_03ODNJBKGA@Mar?$AA@  1004691c     libucrt:nlsdata.obj
 0002:00005920       ??_C@_03LEOLGMJP@Apr?$AA@  10046920     libucrt:nlsdata.obj
 0002:00005924       ??_C@_03CNMDKL@May?$AA@    10046924     libucrt:nlsdata.obj
 0002:00005928       ??_C@_03IDFGHECI@Jun?$AA@  10046928     libucrt:nlsdata.obj
 0002:0000592c       ??_C@_03LBGABGKK@Jul?$AA@  1004692c     libucrt:nlsdata.obj
 0002:00005930       ??_C@_03IFJFEIGA@Aug?$AA@  10046930     libucrt:nlsdata.obj
 0002:00005934       ??_C@_03GGCAPAJC@Sep?$AA@  10046934     libucrt:nlsdata.obj
 0002:00005938       ??_C@_03BMAOKBAD@Oct?$AA@  10046938     libucrt:nlsdata.obj
 0002:0000593c       ??_C@_03JPJOFNIA@Nov?$AA@  1004693c     libucrt:nlsdata.obj
 0002:00005940       ??_C@_03MKABNOCG@Dec?$AA@  10046940     libucrt:nlsdata.obj
 0002:00005944       ??_C@_07CGJPFGJA@January?$AA@ 10046944     libucrt:nlsdata.obj
 0002:0000594c       ??_C@_08GNJGEPFN@February?$AA@ 1004694c     libucrt:nlsdata.obj
 0002:00005958       ??_C@_05HPCKOFNC@March?$AA@ 10046958     libucrt:nlsdata.obj
 0002:00005960       ??_C@_05DMJDNLEJ@April?$AA@ 10046960     libucrt:nlsdata.obj
 0002:00005968       ??_C@_04CNLMGBGM@June?$AA@ 10046968     libucrt:nlsdata.obj
 0002:00005970       ??_C@_04MIEPOIFP@July?$AA@ 10046970     libucrt:nlsdata.obj
 0002:00005978       ??_C@_06LBBHFDDG@August?$AA@ 10046978     libucrt:nlsdata.obj
 0002:00005980       ??_C@_09BHHEALKD@September?$AA@ 10046980     libucrt:nlsdata.obj
 0002:0000598c       ??_C@_07JJNFCEND@October?$AA@ 1004698c     libucrt:nlsdata.obj
 0002:00005994       ??_C@_08HCHEGEOA@November?$AA@ 10046994     libucrt:nlsdata.obj
 0002:000059a0       ??_C@_08EDHMEBNP@December?$AA@ 100469a0     libucrt:nlsdata.obj
 0002:000059ac       ??_C@_02DEDBPAFC@AM?$AA@   100469ac     libucrt:nlsdata.obj
 0002:000059b0       ??_C@_02CJNFDJBF@PM?$AA@   100469b0     libucrt:nlsdata.obj
 0002:000059b4       ??_C@_08BPBNCDIB@MM?1dd?1yy?$AA@ 100469b4     libucrt:nlsdata.obj
 0002:000059c0       ??_C@_0BE@CKGJFCPC@dddd?0?5MMMM?5dd?0?5yyyy?$AA@ 100469c0     libucrt:nlsdata.obj
 0002:000059d4       ??_C@_08JCCMCCIL@HH?3mm?3ss?$AA@ 100469d4     libucrt:nlsdata.obj
 0002:000059e0       ??_C@_17MBGCMIPB@?$AAS?$AAu?$AAn?$AA?$AA@ 100469e0     libucrt:nlsdata.obj
 0002:000059e8       ??_C@_17KBOMKBF@?$AAM?$AAo?$AAn?$AA?$AA@ 100469e8     libucrt:nlsdata.obj
 0002:000059f0       ??_C@_17BMKGEGOJ@?$AAT?$AAu?$AAe?$AA?$AA@ 100469f0     libucrt:nlsdata.obj
 0002:000059f8       ??_C@_17CJEDCEPE@?$AAW?$AAe?$AAd?$AA?$AA@ 100469f8     libucrt:nlsdata.obj
 0002:00005a00       ??_C@_17PDPHAADD@?$AAT?$AAh?$AAu?$AA?$AA@ 10046a00     libucrt:nlsdata.obj
 0002:00005a08       ??_C@_17HFOLPPLP@?$AAF?$AAr?$AAi?$AA?$AA@ 10046a08     libucrt:nlsdata.obj
 0002:00005a10       ??_C@_17GGIBDPIH@?$AAS?$AAa?$AAt?$AA?$AA@ 10046a10     libucrt:nlsdata.obj
 0002:00005a18       ??_C@_1O@IHNHDHPB@?$AAS?$AAu?$AAn?$AAd?$AAa?$AAy?$AA?$AA@ 10046a18     libucrt:nlsdata.obj
 0002:00005a28       ??_C@_1O@MMNBFLIA@?$AAM?$AAo?$AAn?$AAd?$AAa?$AAy?$AA?$AA@ 10046a28     libucrt:nlsdata.obj
 0002:00005a38       ??_C@_1BA@ENFBFFEK@?$AAT?$AAu?$AAe?$AAs?$AAd?$AAa?$AAy?$AA?$AA@ 10046a38     libucrt:nlsdata.obj
 0002:00005a48       ??_C@_1BE@EBOGMDOH@?$AAW?$AAe?$AAd?$AAn?$AAe?$AAs?$AAd?$AAa?$AAy?$AA?$AA@ 10046a48     libucrt:nlsdata.obj
 0002:00005a5c       ??_C@_1BC@HHMNLIHE@?$AAT?$AAh?$AAu?$AAr?$AAs?$AAd?$AAa?$AAy?$AA?$AA@ 10046a5c     libucrt:nlsdata.obj
 0002:00005a70       ??_C@_1O@PDICJHAG@?$AAF?$AAr?$AAi?$AAd?$AAa?$AAy?$AA?$AA@ 10046a70     libucrt:nlsdata.obj
 0002:00005a80       ??_C@_1BC@ENMNNPAJ@?$AAS?$AAa?$AAt?$AAu?$AAr?$AAd?$AAa?$AAy?$AA?$AA@ 10046a80     libucrt:nlsdata.obj
 0002:00005a94       ??_C@_17DKNBKCHM@?$AAJ?$AAa?$AAn?$AA?$AA@ 10046a94     libucrt:nlsdata.obj
 0002:00005a9c       ??_C@_17LMDJEKJN@?$AAF?$AAe?$AAb?$AA?$AA@ 10046a9c     libucrt:nlsdata.obj
 0002:00005aa4       ??_C@_17CKNLEDEC@?$AAM?$AAa?$AAr?$AA?$AA@ 10046aa4     libucrt:nlsdata.obj
 0002:00005aac       ??_C@_17LFPOIHDD@?$AAA?$AAp?$AAr?$AA?$AA@ 10046aac     libucrt:nlsdata.obj
 0002:00005ab4       ??_C@_17PNNKMEED@?$AAM?$AAa?$AAy?$AA?$AA@ 10046ab4     libucrt:nlsdata.obj
 0002:00005abc       ??_C@_17KCJGOCPB@?$AAJ?$AAu?$AAn?$AA?$AA@ 10046abc     libucrt:nlsdata.obj
 0002:00005ac4       ??_C@_17IJPCKHK@?$AAJ?$AAu?$AAl?$AA?$AA@ 10046ac4     libucrt:nlsdata.obj
 0002:00005acc       ??_C@_17ICPELBCN@?$AAA?$AAu?$AAg?$AA?$AA@ 10046acc     libucrt:nlsdata.obj
 0002:00005ad4       ??_C@_17HCHCOKMG@?$AAS?$AAe?$AAp?$AA?$AA@ 10046ad4     libucrt:nlsdata.obj
 0002:00005adc       ??_C@_17FNLKOI@?$AAO?$AAc?$AAt?$AA?$AA@ 10046adc     libucrt:nlsdata.obj
 0002:00005ae4       ??_C@_17BBDMLCIG@?$AAN?$AAo?$AAv?$AA?$AA@ 10046ae4     libucrt:nlsdata.obj
 0002:00005aec       ??_C@_17EGKACKIF@?$AAD?$AAe?$AAc?$AA?$AA@ 10046aec     libucrt:nlsdata.obj
 0002:00005af4       ??_C@_1BA@EFMEIEBA@?$AAJ?$AAa?$AAn?$AAu?$AAa?$AAr?$AAy?$AA?$AA@ 10046af4     libucrt:nlsdata.obj
 0002:00005b04       ??_C@_1BC@JGDDFFAM@?$AAF?$AAe?$AAb?$AAr?$AAu?$AAa?$AAr?$AAy?$AA?$AA@ 10046b04     libucrt:nlsdata.obj
 0002:00005b18       ??_C@_1M@IKEENEDF@?$AAM?$AAa?$AAr?$AAc?$AAh?$AA?$AA@ 10046b18     libucrt:nlsdata.obj
 0002:00005b24       ??_C@_1M@GJNLMHFD@?$AAA?$AAp?$AAr?$AAi?$AAl?$AA?$AA@ 10046b24     libucrt:nlsdata.obj
 0002:00005b30       ??_C@_19EPFLPGAP@?$AAJ?$AAu?$AAn?$AAe?$AA?$AA@ 10046b30     libucrt:nlsdata.obj
 0002:00005b3c       ??_C@_19BIFMLPCD@?$AAJ?$AAu?$AAl?$AAy?$AA?$AA@ 10046b3c     libucrt:nlsdata.obj
 0002:00005b48       ??_C@_1O@PAHLKOAC@?$AAA?$AAu?$AAg?$AAu?$AAs?$AAt?$AA?$AA@ 10046b48     libucrt:nlsdata.obj
 0002:00005b58       ??_C@_1BE@DKAAMBJL@?$AAS?$AAe?$AAp?$AAt?$AAe?$AAm?$AAb?$AAe?$AAr?$AA?$AA@ 10046b58     libucrt:nlsdata.obj
 0002:00005b6c       ??_C@_1BA@EPANDLNG@?$AAO?$AAc?$AAt?$AAo?$AAb?$AAe?$AAr?$AA?$AA@ 10046b6c     libucrt:nlsdata.obj
 0002:00005b7c       ??_C@_1BC@BGLIFPF@?$AAN?$AAo?$AAv?$AAe?$AAm?$AAb?$AAe?$AAr?$AA?$AA@ 10046b7c     libucrt:nlsdata.obj
 0002:00005b90       ??_C@_1BC@FEMKIFH@?$AAD?$AAe?$AAc?$AAe?$AAm?$AAb?$AAe?$AAr?$AA?$AA@ 10046b90     libucrt:nlsdata.obj
 0002:00005ba4       ??_C@_15ODEHAHHF@?$AAA?$AAM?$AA?$AA@ 10046ba4     libucrt:nlsdata.obj
 0002:00005bac       ??_C@_15CLMNNGEL@?$AAP?$AAM?$AA?$AA@ 10046bac     libucrt:nlsdata.obj
 0002:00005bb4       ??_C@_1BC@IEBCMHCM@?$AAM?$AAM?$AA?1?$AAd?$AAd?$AA?1?$AAy?$AAy?$AA?$AA@ 10046bb4     libucrt:nlsdata.obj
 0002:00005bc8       ??_C@_1CI@KNAKOEBC@?$AAd?$AAd?$AAd?$AAd?$AA?0?$AA?5?$AAM?$AAM?$AAM?$AAM?$AA?5?$AAd?$AAd?$AA?0?$AA?5?$AAy?$AAy?$AAy?$AAy?$AA?$AA@ 10046bc8     libucrt:nlsdata.obj
 0002:00005bf0       ??_C@_1BC@GDGBMEMK@?$AAH?$AAH?$AA?3?$AAm?$AAm?$AA?3?$AAs?$AAs?$AA?$AA@ 10046bf0     libucrt:nlsdata.obj
 0002:00005c08       ___lc_time_c               10046c08     libucrt:nlsdata.obj
 0002:00005d6c       ??_C@_03OEIAHPBN@INF?$AA@  10046d6c     libucrt:cvt.obj
 0002:00005d70       ??_C@_03OJHLLCGB@inf?$AA@  10046d70     libucrt:cvt.obj
 0002:00005d74       ??_C@_03LKNCIKJB@NAN?$AA@  10046d74     libucrt:cvt.obj
 0002:00005d78       ??_C@_03LHCJEHON@nan?$AA@  10046d78     libucrt:cvt.obj
 0002:00005d7c       ??_C@_09OFJJIMPC@NAN?$CISNAN?$CJ?$AA@ 10046d7c     libucrt:cvt.obj
 0002:00005d88       ??_C@_09IPFBKMDL@nan?$CIsnan?$CJ?$AA@ 10046d88     libucrt:cvt.obj
 0002:00005d94       ??_C@_08IKHNHAJ@NAN?$CIIND?$CJ?$AA@ 10046d94     libucrt:cvt.obj
 0002:00005da0       ??_C@_08OFCDMILK@nan?$CIind?$CJ?$AA@ 10046da0     libucrt:cvt.obj
 0002:00005dac       ??_C@_05KLBDPFGC@e?$CL000?$AA@ 10046dac     libucrt:cvt.obj
 0002:00005e08       ??_C@_1EG@CNNIPFIM@?$AAa?$AAp?$AAi?$AA?9?$AAm?$AAs?$AA?9?$AAw?$AAi?$AAn?$AA?9?$AAa?$AAp?$AAp?$AAm?$AAo?$AAd?$AAe?$AAl?$AA?9?$AAr?$AAu?$AAn?$AAt?$AAi?$AAm?$AAe?$AA?9?$AAl?$AA1?$AA?9?$AA1@ 10046e08     libucrt:winapi_thunks.obj
 0002:00005e50       ??_C@_1EA@JGEFHKEI@?$AAa?$AAp?$AAi?$AA?9?$AAm?$AAs?$AA?9?$AAw?$AAi?$AAn?$AA?9?$AAc?$AAo?$AAr?$AAe?$AA?9?$AAd?$AAa?$AAt?$AAe?$AAt?$AAi?$AAm?$AAe?$AA?9?$AAl?$AA1?$AA?9?$AA1?$AA?9?$AA1?$AA?$AA@ 10046e50     libucrt:winapi_thunks.obj
 0002:00005e90       ??_C@_1DI@GCIAAENM@?$AAa?$AAp?$AAi?$AA?9?$AAm?$AAs?$AA?9?$AAw?$AAi?$AAn?$AA?9?$AAc?$AAo?$AAr?$AAe?$AA?9?$AAf?$AAi?$AAl?$AAe?$AA?9?$AAl?$AA2?$AA?9?$AA1?$AA?9?$AA1?$AA?$AA@ 10046e90     libucrt:winapi_thunks.obj
 0002:00005ec8       ??_C@_1EI@MPIAOHOC@?$AAa?$AAp?$AAi?$AA?9?$AAm?$AAs?$AA?9?$AAw?$AAi?$AAn?$AA?9?$AAc?$AAo?$AAr?$AAe?$AA?9?$AAl?$AAo?$AAc?$AAa?$AAl?$AAi?$AAz?$AAa?$AAt?$AAi?$AAo?$AAn?$AA?9?$AAl?$AA1?$AA?9@ 10046ec8     libucrt:winapi_thunks.obj
 0002:00005f10       ??_C@_1FK@FPHCKFIE@?$AAa?$AAp?$AAi?$AA?9?$AAm?$AAs?$AA?9?$AAw?$AAi?$AAn?$AA?9?$AAc?$AAo?$AAr?$AAe?$AA?9?$AAl?$AAo?$AAc?$AAa?$AAl?$AAi?$AAz?$AAa?$AAt?$AAi?$AAo?$AAn?$AA?9?$AAo?$AAb?$AAs@ 10046f10     libucrt:winapi_thunks.obj
 0002:00005f70       ??_C@_1EM@DILCGIIO@?$AAa?$AAp?$AAi?$AA?9?$AAm?$AAs?$AA?9?$AAw?$AAi?$AAn?$AA?9?$AAc?$AAo?$AAr?$AAe?$AA?9?$AAp?$AAr?$AAo?$AAc?$AAe?$AAs?$AAs?$AAt?$AAh?$AAr?$AAe?$AAa?$AAd?$AAs?$AA?9?$AAl@ 10046f70     libucrt:winapi_thunks.obj
 0002:00005fbc       ??_C@_1DM@LNCGDDPN@?$AAa?$AAp?$AAi?$AA?9?$AAm?$AAs?$AA?9?$AAw?$AAi?$AAn?$AA?9?$AAc?$AAo?$AAr?$AAe?$AA?9?$AAs?$AAt?$AAr?$AAi?$AAn?$AAg?$AA?9?$AAl?$AA1?$AA?9?$AA1?$AA?9?$AA0?$AA?$AA@ 10046fbc     libucrt:winapi_thunks.obj
 0002:00005ff8       ??_C@_1DO@FPAPJEMD@?$AAa?$AAp?$AAi?$AA?9?$AAm?$AAs?$AA?9?$AAw?$AAi?$AAn?$AA?9?$AAc?$AAo?$AAr?$AAe?$AA?9?$AAs?$AAy?$AAs?$AAi?$AAn?$AAf?$AAo?$AA?9?$AAl?$AA1?$AA?9?$AA2?$AA?9?$AA1?$AA?$AA@ 10046ff8     libucrt:winapi_thunks.obj
 0002:00006038       ??_C@_1DK@NDHNAHIO@?$AAa?$AAp?$AAi?$AA?9?$AAm?$AAs?$AA?9?$AAw?$AAi?$AAn?$AA?9?$AAc?$AAo?$AAr?$AAe?$AA?9?$AAw?$AAi?$AAn?$AAr?$AAt?$AA?9?$AAl?$AA1?$AA?9?$AA1?$AA?9?$AA0?$AA?$AA@ 10047038     libucrt:winapi_thunks.obj
 0002:00006074       ??_C@_1DM@KGHDGBCM@?$AAa?$AAp?$AAi?$AA?9?$AAm?$AAs?$AA?9?$AAw?$AAi?$AAn?$AA?9?$AAc?$AAo?$AAr?$AAe?$AA?9?$AAx?$AAs?$AAt?$AAa?$AAt?$AAe?$AA?9?$AAl?$AA2?$AA?9?$AA1?$AA?9?$AA0?$AA?$AA@ 10047074     libucrt:winapi_thunks.obj
 0002:000060b0       ??_C@_1EO@IJIOEFOH@?$AAa?$AAp?$AAi?$AA?9?$AAm?$AAs?$AA?9?$AAw?$AAi?$AAn?$AA?9?$AAr?$AAt?$AAc?$AAo?$AAr?$AAe?$AA?9?$AAn?$AAt?$AAu?$AAs?$AAe?$AAr?$AA?9?$AAw?$AAi?$AAn?$AAd?$AAo?$AAw?$AA?9@ 100470b0     libucrt:winapi_thunks.obj
 0002:00006100       ??_C@_1FG@HHGEKANL@?$AAa?$AAp?$AAi?$AA?9?$AAm?$AAs?$AA?9?$AAw?$AAi?$AAn?$AA?9?$AAs?$AAe?$AAc?$AAu?$AAr?$AAi?$AAt?$AAy?$AA?9?$AAs?$AAy?$AAs?$AAt?$AAe?$AAm?$AAf?$AAu?$AAn?$AAc?$AAt?$AAi@ 10047100     libucrt:winapi_thunks.obj
 0002:00006158       ??_C@_1FG@NCKKOLKO@?$AAe?$AAx?$AAt?$AA?9?$AAm?$AAs?$AA?9?$AAw?$AAi?$AAn?$AA?9?$AAk?$AAe?$AAr?$AAn?$AAe?$AAl?$AA3?$AA2?$AA?9?$AAp?$AAa?$AAc?$AAk?$AAa?$AAg?$AAe?$AA?9?$AAc?$AAu?$AAr?$AAr@ 10047158     libucrt:winapi_thunks.obj
 0002:000061b0       ??_C@_1EG@DBIOJECG@?$AAe?$AAx?$AAt?$AA?9?$AAm?$AAs?$AA?9?$AAw?$AAi?$AAn?$AA?9?$AAn?$AAt?$AAu?$AAs?$AAe?$AAr?$AA?9?$AAd?$AAi?$AAa?$AAl?$AAo?$AAg?$AAb?$AAo?$AAx?$AA?9?$AAl?$AA1?$AA?9?$AA1@ 100471b0     libucrt:winapi_thunks.obj
 0002:000061f8       ??_C@_1EO@FIHMJCLF@?$AAe?$AAx?$AAt?$AA?9?$AAm?$AAs?$AA?9?$AAw?$AAi?$AAn?$AA?9?$AAn?$AAt?$AAu?$AAs?$AAe?$AAr?$AA?9?$AAw?$AAi?$AAn?$AAd?$AAo?$AAw?$AAs?$AAt?$AAa?$AAt?$AAi?$AAo?$AAn?$AA?9@ 100471f8     libucrt:winapi_thunks.obj
 0002:00006248       ??_C@_1O@BCCLBEOE@?$AAu?$AAs?$AAe?$AAr?$AA3?$AA2?$AA?$AA@ 10047248     libucrt:winapi_thunks.obj
 0002:0000625c       ??_C@_0BA@FHFNEAED@AreFileApisANSI?$AA@ 1004725c     libucrt:winapi_thunks.obj
 0002:0000627c       ??_C@_0BE@LJANKFHF@EnumSystemLocalesEx?$AA@ 1004727c     libucrt:winapi_thunks.obj
 0002:000062b8       ??_C@_0BA@HNOPNCHB@GetActiveWindow?$AA@ 100472b8     libucrt:winapi_thunks.obj
 0002:000062d8       ??_C@_0BA@EPCJIIPD@GetDateFormatEx?$AA@ 100472d8     libucrt:winapi_thunks.obj
 0002:000062f0       ??_C@_0BD@HHGDFDBJ@GetLastActivePopup?$AA@ 100472f0     libucrt:winapi_thunks.obj
 0002:00006314       ??_C@_0BI@DFKBFLJE@GetProcessWindowStation?$AA@ 10047314     libucrt:winapi_thunks.obj
 0002:00006338       ??_C@_0BA@CIJJKCJJ@GetTimeFormatEx?$AA@ 10047338     libucrt:winapi_thunks.obj
 0002:00006350       ??_C@_0BJ@PBCCBIPI@GetUserDefaultLocaleName?$AA@ 10047350     libucrt:winapi_thunks.obj
 0002:00006374       ??_C@_0BK@DEKFELLI@GetUserObjectInformationW?$AA@ 10047374     libucrt:winapi_thunks.obj
 0002:000063a0       ??_C@_0BC@CELBKLLA@IsValidLocaleName?$AA@ 100473a0     libucrt:winapi_thunks.obj
 0002:000063c4       ??_C@_0BB@CDHDDLLP@LCIDToLocaleName?$AA@ 100473c4     libucrt:winapi_thunks.obj
 0002:000063e0       ??_C@_0BB@HBDEELFH@LocaleNameToLCID?$AA@ 100473e0     libucrt:winapi_thunks.obj
 0002:000063fc       ??_C@_0M@CHKKJDAI@MessageBoxA?$AA@ 100473fc     libucrt:winapi_thunks.obj
 0002:00006410       ??_C@_0M@DLDCCGNP@MessageBoxW?$AA@ 10047410     libucrt:winapi_thunks.obj
 0002:0000641c       ??_C@_02CLFPBFFP@TZ?$AA@   1004741c     libucrt:tzset.obj
 0002:00006420       ??_C@_04FJHINJAO@tanh?$AA@ 10047420     libucrt:fpexcept.obj
 0002:00006428       ??_C@_04FIHNOPOL@asin?$AA@ 10047428     libucrt:fpexcept.obj
 0002:00006430       ??_C@_04PDIFKINK@acos?$AA@ 10047430     libucrt:fpexcept.obj
 0002:00006438       ??_C@_04MLLJIGOK@atan?$AA@ 10047438     libucrt:fpexcept.obj
 0002:00006440       ??_C@_05KNGEOGJB@atan2?$AA@ 10047440     libucrt:fpexcept.obj
 0002:00006448       ??_C@_04EIAKFFMI@sqrt?$AA@ 10047448     libucrt:fpexcept.obj
 0002:00006450       ??_C@_03BLEJJJBH@sin?$AA@  10047450     libucrt:fpexcept.obj
 0002:00006454       ??_C@_03LALBNOCG@cos?$AA@  10047454     libucrt:fpexcept.obj
 0002:00006458       ??_C@_03IIINPABG@tan?$AA@  10047458     libucrt:fpexcept.obj
 0002:0000645c       ??_C@_04GFPJNGEK@ceil?$AA@ 1004745c     libucrt:fpexcept.obj
 0002:00006464       ??_C@_05PBJFFIGL@floor?$AA@ 10047464     libucrt:fpexcept.obj
 0002:0000646c       ??_C@_04ODHECPBC@fabs?$AA@ 1004746c     libucrt:fpexcept.obj
 0002:00006474       ??_C@_04EHEDPDJG@modf?$AA@ 10047474     libucrt:fpexcept.obj
 0002:0000647c       ??_C@_05CEJMAHNP@ldexp?$AA@ 1004747c     libucrt:fpexcept.obj
 0002:00006484       ??_C@_05KBKMEMPO@_cabs?$AA@ 10047484     libucrt:fpexcept.obj
 0002:0000648c       ??_C@_06MEIMCGCF@_hypot?$AA@ 1004748c     libucrt:fpexcept.obj
 0002:00006494       ??_C@_04KEPJIHGP@fmod?$AA@ 10047494     libucrt:fpexcept.obj
 0002:0000649c       ??_C@_05GKKHEGJL@frexp?$AA@ 1004749c     libucrt:fpexcept.obj
 0002:000064a4       ??_C@_03MJLDFKDL@_y0?$AA@  100474a4     libucrt:fpexcept.obj
 0002:000064a8       ??_C@_03NAKIGLHK@_y1?$AA@  100474a8     libucrt:fpexcept.obj
 0002:000064ac       ??_C@_03ONILCKOB@_yn?$AA@  100474ac     libucrt:fpexcept.obj
 0002:000064b0       ??_C@_05JGDBENOH@_logb?$AA@ 100474b0     libucrt:fpexcept.obj
 0002:000064b8       ??_C@_0L@KDOEJCKC@_nextafter?$AA@ 100474b8     libucrt:fpexcept.obj
 0002:000065b0       ??_C@_03KHJOGHMM@exp?$AA@  100475b0     libucrt:fpexcept.obj
 0002:000065b4       ??_C@_03JGHBODFD@pow?$AA@  100475b4     libucrt:fpexcept.obj
 0002:000065b8       ??_C@_03MGHMBJCF@log?$AA@  100475b8     libucrt:fpexcept.obj
 0002:000065bc       ??_C@_05HGHHAHAP@log10?$AA@ 100475bc     libucrt:fpexcept.obj
 0002:000065c4       ??_C@_04COOMCNPB@sinh?$AA@ 100475c4     libucrt:fpexcept.obj
 0002:000065cc       ??_C@_04HPJJNFIM@cosh?$AA@ 100475cc     libucrt:fpexcept.obj
 0002:000065d8       __d_inf                    100475d8     libucrt:util.obj
 0002:000065e0       __d_max                    100475e0     libucrt:util.obj
 0002:000065e8       __d_mzero                  100475e8     libucrt:util.obj
 0002:00006608       ?ccs@?BL@???$__acrt_stdio_parse_mode@D@@YA?AU__acrt_stdio_stream_mode@@QBD@Z@4QBDB 10047608     libucrt:openfile.obj
 0002:0000660c       ?utf8_encoding@?BL@???$__acrt_stdio_parse_mode@D@@YA?AU__acrt_stdio_stream_mode@@QBD@Z@4QBDB 1004760c     libucrt:openfile.obj
 0002:00006614       ?utf16_encoding@?BL@???$__acrt_stdio_parse_mode@D@@YA?AU__acrt_stdio_stream_mode@@QBD@Z@4QBDB 10047614     libucrt:openfile.obj
 0002:0000661c       ?unicode_encoding@?BL@???$__acrt_stdio_parse_mode@D@@YA?AU__acrt_stdio_stream_mode@@QBD@Z@4QBDB 1004761c     libucrt:openfile.obj
 0002:000066f0       __infinity                 100476f0     libucrt:87tran.obj
 0002:000066fa       __minfinity                100476fa     libucrt:87tran.obj
 0002:00006704       __logemax                  10047704     libucrt:87tran.obj
 0002:0000672a       __OP_EXPjmptab             1004772a     libucrt:87tran.obj
 0002:00006750       __indefinite               10047750     libucrt:87disp.obj
 0002:0000675a       __piby2                    1004775a     libucrt:87disp.obj
 0002:00006764       __piby4                    10047764     libucrt:87disp.obj
 0002:00006798       __DEFAULT_CW_in_mem        10047798     libucrt:common.obj
 0002:0000679a       __pi_by_2_to_61            1004779a     libucrt:common.obj
 0002:000067d8       __real@3fe0000000000000    100477d8     libucrt:powhlp.obj
 0002:000067f0       ??_C@_1BC@LLOKLNP@?$AAa?$AAm?$AAe?$AAr?$AAi?$AAc?$AAa?$AAn?$AA?$AA@ 100477f0     libucrt:get_qualified_locale.obj
 0002:00006804       ??_C@_1CC@HEIGCDGG@?$AAa?$AAm?$AAe?$AAr?$AAi?$AAc?$AAa?$AAn?$AA?5?$AAe?$AAn?$AAg?$AAl?$AAi?$AAs?$AAh?$AA?$AA@ 10047804     libucrt:get_qualified_locale.obj
 0002:00006828       ??_C@_1CC@IHCNOMIN@?$AAa?$AAm?$AAe?$AAr?$AAi?$AAc?$AAa?$AAn?$AA?9?$AAe?$AAn?$AAg?$AAl?$AAi?$AAs?$AAh?$AA?$AA@ 10047828     libucrt:get_qualified_locale.obj
 0002:0000684c       ??_C@_1BG@GKAGPCGG@?$AAa?$AAu?$AAs?$AAt?$AAr?$AAa?$AAl?$AAi?$AAa?$AAn?$AA?$AA@ 1004784c     libucrt:get_qualified_locale.obj
 0002:00006864       ??_C@_1BA@GMENCENF@?$AAb?$AAe?$AAl?$AAg?$AAi?$AAa?$AAn?$AA?$AA@ 10047864     libucrt:get_qualified_locale.obj
 0002:00006874       ??_C@_1BC@PJMIIAAN@?$AAc?$AAa?$AAn?$AAa?$AAd?$AAi?$AAa?$AAn?$AA?$AA@ 10047874     libucrt:get_qualified_locale.obj
 0002:00006888       ??_C@_17NOIMNFBF@?$AAc?$AAh?$AAh?$AA?$AA@ 10047888     libucrt:get_qualified_locale.obj
 0002:00006890       ??_C@_17GGDALCHA@?$AAc?$AAh?$AAi?$AA?$AA@ 10047890     libucrt:get_qualified_locale.obj
 0002:00006898       ??_C@_1BA@NPNJKIBL@?$AAc?$AAh?$AAi?$AAn?$AAe?$AAs?$AAe?$AA?$AA@ 10047898     libucrt:get_qualified_locale.obj
 0002:000068a8       ??_C@_1CC@DINBAMMJ@?$AAc?$AAh?$AAi?$AAn?$AAe?$AAs?$AAe?$AA?9?$AAh?$AAo?$AAn?$AAg?$AAk?$AAo?$AAn?$AAg?$AA?$AA@ 100478a8     libucrt:get_qualified_locale.obj
 0002:000068cc       ??_C@_1CG@IOBJPACO@?$AAc?$AAh?$AAi?$AAn?$AAe?$AAs?$AAe?$AA?9?$AAs?$AAi?$AAm?$AAp?$AAl?$AAi?$AAf?$AAi?$AAe?$AAd?$AA?$AA@ 100478cc     libucrt:get_qualified_locale.obj
 0002:000068f4       ??_C@_1CE@GAJNDCKG@?$AAc?$AAh?$AAi?$AAn?$AAe?$AAs?$AAe?$AA?9?$AAs?$AAi?$AAn?$AAg?$AAa?$AAp?$AAo?$AAr?$AAe?$AA?$AA@ 100478f4     libucrt:get_qualified_locale.obj
 0002:00006918       ??_C@_1CI@PAJPIOOD@?$AAc?$AAh?$AAi?$AAn?$AAe?$AAs?$AAe?$AA?9?$AAt?$AAr?$AAa?$AAd?$AAi?$AAt?$AAi?$AAo?$AAn?$AAa?$AAl?$AA?$AA@ 10047918     libucrt:get_qualified_locale.obj
 0002:00006940       ??_C@_1BM@NILJBMMD@?$AAd?$AAu?$AAt?$AAc?$AAh?$AA?9?$AAb?$AAe?$AAl?$AAg?$AAi?$AAa?$AAn?$AA?$AA@ 10047940     libucrt:get_qualified_locale.obj
 0002:0000695c       ??_C@_1CC@OOJPJNEJ@?$AAe?$AAn?$AAg?$AAl?$AAi?$AAs?$AAh?$AA?9?$AAa?$AAm?$AAe?$AAr?$AAi?$AAc?$AAa?$AAn?$AA?$AA@ 1004795c     libucrt:get_qualified_locale.obj
 0002:00006980       ??_C@_1BI@IOLFEEM@?$AAe?$AAn?$AAg?$AAl?$AAi?$AAs?$AAh?$AA?9?$AAa?$AAu?$AAs?$AA?$AA@ 10047980     libucrt:get_qualified_locale.obj
 0002:00006998       ??_C@_1BO@HFFNLENJ@?$AAe?$AAn?$AAg?$AAl?$AAi?$AAs?$AAh?$AA?9?$AAb?$AAe?$AAl?$AAi?$AAz?$AAe?$AA?$AA@ 10047998     libucrt:get_qualified_locale.obj
 0002:000069b8       ??_C@_1BI@HAPKJMPO@?$AAe?$AAn?$AAg?$AAl?$AAi?$AAs?$AAh?$AA?9?$AAc?$AAa?$AAn?$AA?$AA@ 100479b8     libucrt:get_qualified_locale.obj
 0002:000069d0       ??_C@_1CE@HLNDMIOJ@?$AAe?$AAn?$AAg?$AAl?$AAi?$AAs?$AAh?$AA?9?$AAc?$AAa?$AAr?$AAi?$AAb?$AAb?$AAe?$AAa?$AAn?$AA?$AA@ 100479d0     libucrt:get_qualified_locale.obj
 0002:000069f4       ??_C@_1BI@LDHJHHAC@?$AAe?$AAn?$AAg?$AAl?$AAi?$AAs?$AAh?$AA?9?$AAi?$AAr?$AAe?$AA?$AA@ 100479f4     libucrt:get_qualified_locale.obj
 0002:00006a0c       ??_C@_1CA@NJMMCFOC@?$AAe?$AAn?$AAg?$AAl?$AAi?$AAs?$AAh?$AA?9?$AAj?$AAa?$AAm?$AAa?$AAi?$AAc?$AAa?$AA?$AA@ 10047a0c     libucrt:get_qualified_locale.obj
 0002:00006a2c       ??_C@_1BG@BHJEBBGG@?$AAe?$AAn?$AAg?$AAl?$AAi?$AAs?$AAh?$AA?9?$AAn?$AAz?$AA?$AA@ 10047a2c     libucrt:get_qualified_locale.obj
 0002:00006a44       ??_C@_1CK@FGOEJJCO@?$AAe?$AAn?$AAg?$AAl?$AAi?$AAs?$AAh?$AA?9?$AAs?$AAo?$AAu?$AAt?$AAh?$AA?5?$AAa?$AAf?$AAr?$AAi?$AAc?$AAa?$AA?$AA@ 10047a44     libucrt:get_qualified_locale.obj
 0002:00006a70       ??_C@_1DE@PDBJPCJ@?$AAe?$AAn?$AAg?$AAl?$AAi?$AAs?$AAh?$AA?9?$AAt?$AAr?$AAi?$AAn?$AAi?$AAd?$AAa?$AAd?$AA?5?$AAy?$AA?5?$AAt?$AAo?$AAb?$AAa?$AAg?$AAo?$AA?$AA@ 10047a70     libucrt:get_qualified_locale.obj
 0002:00006aa4       ??_C@_1BG@JGCANDME@?$AAe?$AAn?$AAg?$AAl?$AAi?$AAs?$AAh?$AA?9?$AAu?$AAk?$AA?$AA@ 10047aa4     libucrt:get_qualified_locale.obj
 0002:00006abc       ??_C@_1BG@DINKMLE@?$AAe?$AAn?$AAg?$AAl?$AAi?$AAs?$AAh?$AA?9?$AAu?$AAs?$AA?$AA@ 10047abc     libucrt:get_qualified_locale.obj
 0002:00006ad4       ??_C@_1BI@NMFDBHJE@?$AAe?$AAn?$AAg?$AAl?$AAi?$AAs?$AAh?$AA?9?$AAu?$AAs?$AAa?$AA?$AA@ 10047ad4     libucrt:get_qualified_locale.obj
 0002:00006aec       ??_C@_1BO@OIHKJKII@?$AAf?$AAr?$AAe?$AAn?$AAc?$AAh?$AA?9?$AAb?$AAe?$AAl?$AAg?$AAi?$AAa?$AAn?$AA?$AA@ 10047aec     libucrt:get_qualified_locale.obj
 0002:00006b0c       ??_C@_1CA@NKAELJKI@?$AAf?$AAr?$AAe?$AAn?$AAc?$AAh?$AA?9?$AAc?$AAa?$AAn?$AAa?$AAd?$AAi?$AAa?$AAn?$AA?$AA@ 10047b0c     libucrt:get_qualified_locale.obj
 0002:00006b2c       ??_C@_1CE@MGKCNLGN@?$AAf?$AAr?$AAe?$AAn?$AAc?$AAh?$AA?9?$AAl?$AAu?$AAx?$AAe?$AAm?$AAb?$AAo?$AAu?$AAr?$AAg?$AA?$AA@ 10047b2c     libucrt:get_qualified_locale.obj
 0002:00006b50       ??_C@_1BK@CEGEAILM@?$AAf?$AAr?$AAe?$AAn?$AAc?$AAh?$AA?9?$AAs?$AAw?$AAi?$AAs?$AAs?$AA?$AA@ 10047b50     libucrt:get_qualified_locale.obj
 0002:00006b6c       ??_C@_1CA@PAFKEOCC@?$AAg?$AAe?$AAr?$AAm?$AAa?$AAn?$AA?9?$AAa?$AAu?$AAs?$AAt?$AAr?$AAi?$AAa?$AAn?$AA?$AA@ 10047b6c     libucrt:get_qualified_locale.obj
 0002:00006b8c       ??_C@_1CI@HCFHGOFD@?$AAg?$AAe?$AAr?$AAm?$AAa?$AAn?$AA?9?$AAl?$AAi?$AAc?$AAh?$AAt?$AAe?$AAn?$AAs?$AAt?$AAe?$AAi?$AAn?$AA?$AA@ 10047b8c     libucrt:get_qualified_locale.obj
 0002:00006bb4       ??_C@_1CE@FEDDNPDG@?$AAg?$AAe?$AAr?$AAm?$AAa?$AAn?$AA?9?$AAl?$AAu?$AAx?$AAe?$AAm?$AAb?$AAo?$AAu?$AAr?$AAg?$AA?$AA@ 10047bb4     libucrt:get_qualified_locale.obj
 0002:00006bd8       ??_C@_1BK@LIMINNMN@?$AAg?$AAe?$AAr?$AAm?$AAa?$AAn?$AA?9?$AAs?$AAw?$AAi?$AAs?$AAs?$AA?$AA@ 10047bd8     libucrt:get_qualified_locale.obj
 0002:00006bf4       ??_C@_1BM@LGMDBEPD@?$AAi?$AAr?$AAi?$AAs?$AAh?$AA?9?$AAe?$AAn?$AAg?$AAl?$AAi?$AAs?$AAh?$AA?$AA@ 10047bf4     libucrt:get_qualified_locale.obj
 0002:00006c10       ??_C@_1BM@NNCFBAEE@?$AAi?$AAt?$AAa?$AAl?$AAi?$AAa?$AAn?$AA?9?$AAs?$AAw?$AAi?$AAs?$AAs?$AA?$AA@ 10047c10     libucrt:get_qualified_locale.obj
 0002:00006c2c       ??_C@_1BE@FEDJNPIB@?$AAn?$AAo?$AAr?$AAw?$AAe?$AAg?$AAi?$AAa?$AAn?$AA?$AA@ 10047c2c     libucrt:get_qualified_locale.obj
 0002:00006c40       ??_C@_1CC@CILKDEIE@?$AAn?$AAo?$AAr?$AAw?$AAe?$AAg?$AAi?$AAa?$AAn?$AA?9?$AAb?$AAo?$AAk?$AAm?$AAa?$AAl?$AA?$AA@ 10047c40     libucrt:get_qualified_locale.obj
 0002:00006c64       ??_C@_1CE@DHMMHEPL@?$AAn?$AAo?$AAr?$AAw?$AAe?$AAg?$AAi?$AAa?$AAn?$AA?9?$AAn?$AAy?$AAn?$AAo?$AAr?$AAs?$AAk?$AA?$AA@ 10047c64     libucrt:get_qualified_locale.obj
 0002:00006c88       ??_C@_1CK@OPNMHECD@?$AAp?$AAo?$AAr?$AAt?$AAu?$AAg?$AAu?$AAe?$AAs?$AAe?$AA?9?$AAb?$AAr?$AAa?$AAz?$AAi?$AAl?$AAi?$AAa?$AAn?$AA?$AA@ 10047c88     libucrt:get_qualified_locale.obj
 0002:00006cb4       ??_C@_1CE@KEEHCDB@?$AAs?$AAp?$AAa?$AAn?$AAi?$AAs?$AAh?$AA?9?$AAa?$AAr?$AAg?$AAe?$AAn?$AAt?$AAi?$AAn?$AAa?$AA?$AA@ 10047cb4     libucrt:get_qualified_locale.obj
 0002:00006cd8       ??_C@_1CA@GIAOLHJD@?$AAs?$AAp?$AAa?$AAn?$AAi?$AAs?$AAh?$AA?9?$AAb?$AAo?$AAl?$AAi?$AAv?$AAi?$AAa?$AA?$AA@ 10047cd8     libucrt:get_qualified_locale.obj
 0002:00006cf8       ??_C@_1BM@OJNDFNPD@?$AAs?$AAp?$AAa?$AAn?$AAi?$AAs?$AAh?$AA?9?$AAc?$AAh?$AAi?$AAl?$AAe?$AA?$AA@ 10047cf8     libucrt:get_qualified_locale.obj
 0002:00006d14       ??_C@_1CC@OCOLPALL@?$AAs?$AAp?$AAa?$AAn?$AAi?$AAs?$AAh?$AA?9?$AAc?$AAo?$AAl?$AAo?$AAm?$AAb?$AAi?$AAa?$AA?$AA@ 10047d14     libucrt:get_qualified_locale.obj
 0002:00006d38       ??_C@_1CG@BPOFMKBB@?$AAs?$AAp?$AAa?$AAn?$AAi?$AAs?$AAh?$AA?9?$AAc?$AAo?$AAs?$AAt?$AAa?$AA?5?$AAr?$AAi?$AAc?$AAa?$AA?$AA@ 10047d38     libucrt:get_qualified_locale.obj
 0002:00006d60       ??_C@_1DG@IGOBAPBB@?$AAs?$AAp?$AAa?$AAn?$AAi?$AAs?$AAh?$AA?9?$AAd?$AAo?$AAm?$AAi?$AAn?$AAi?$AAc?$AAa?$AAn?$AA?5?$AAr?$AAe?$AAp?$AAu?$AAb?$AAl?$AAi?$AAc?$AA?$AA@ 10047d60     libucrt:get_qualified_locale.obj
 0002:00006d98       ??_C@_1CA@JHAPGEGI@?$AAs?$AAp?$AAa?$AAn?$AAi?$AAs?$AAh?$AA?9?$AAe?$AAc?$AAu?$AAa?$AAd?$AAo?$AAr?$AA?$AA@ 10047d98     libucrt:get_qualified_locale.obj
 0002:00006db8       ??_C@_1CI@LAPALJPP@?$AAs?$AAp?$AAa?$AAn?$AAi?$AAs?$AAh?$AA?9?$AAe?$AAl?$AA?5?$AAs?$AAa?$AAl?$AAv?$AAa?$AAd?$AAo?$AAr?$AA?$AA@ 10047db8     libucrt:get_qualified_locale.obj
 0002:00006de0       ??_C@_1CE@PDGBOFOM@?$AAs?$AAp?$AAa?$AAn?$AAi?$AAs?$AAh?$AA?9?$AAg?$AAu?$AAa?$AAt?$AAe?$AAm?$AAa?$AAl?$AAa?$AA?$AA@ 10047de0     libucrt:get_qualified_locale.obj
 0002:00006e04       ??_C@_1CC@NBEBAODI@?$AAs?$AAp?$AAa?$AAn?$AAi?$AAs?$AAh?$AA?9?$AAh?$AAo?$AAn?$AAd?$AAu?$AAr?$AAa?$AAs?$AA?$AA@ 10047e04     libucrt:get_qualified_locale.obj
 0002:00006e28       ??_C@_1CA@LLKGHBMF@?$AAs?$AAp?$AAa?$AAn?$AAi?$AAs?$AAh?$AA?9?$AAm?$AAe?$AAx?$AAi?$AAc?$AAa?$AAn?$AA?$AA@ 10047e28     libucrt:get_qualified_locale.obj
 0002:00006e48       ??_C@_1BO@LKNDOIGD@?$AAs?$AAp?$AAa?$AAn?$AAi?$AAs?$AAh?$AA?9?$AAm?$AAo?$AAd?$AAe?$AAr?$AAn?$AA?$AA@ 10047e48     libucrt:get_qualified_locale.obj
 0002:00006e68       ??_C@_1CE@NMDMOEEB@?$AAs?$AAp?$AAa?$AAn?$AAi?$AAs?$AAh?$AA?9?$AAn?$AAi?$AAc?$AAa?$AAr?$AAa?$AAg?$AAu?$AAa?$AA?$AA@ 10047e68     libucrt:get_qualified_locale.obj
 0002:00006e8c       ??_C@_1BO@LLCBEJGB@?$AAs?$AAp?$AAa?$AAn?$AAi?$AAs?$AAh?$AA?9?$AAp?$AAa?$AAn?$AAa?$AAm?$AAa?$AA?$AA@ 10047e8c     libucrt:get_qualified_locale.obj
 0002:00006eac       ??_C@_1CC@FKPGGIHO@?$AAs?$AAp?$AAa?$AAn?$AAi?$AAs?$AAh?$AA?9?$AAp?$AAa?$AAr?$AAa?$AAg?$AAu?$AAa?$AAy?$AA?$AA@ 10047eac     libucrt:get_qualified_locale.obj
 0002:00006ed0       ??_C@_1BK@CDEIHOOP@?$AAs?$AAp?$AAa?$AAn?$AAi?$AAs?$AAh?$AA?9?$AAp?$AAe?$AAr?$AAu?$AA?$AA@ 10047ed0     libucrt:get_qualified_locale.obj
 0002:00006eec       ??_C@_1CI@GAHAKKGP@?$AAs?$AAp?$AAa?$AAn?$AAi?$AAs?$AAh?$AA?9?$AAp?$AAu?$AAe?$AAr?$AAt?$AAo?$AA?5?$AAr?$AAi?$AAc?$AAo?$AA?$AA@ 10047eec     libucrt:get_qualified_locale.obj
 0002:00006f14       ??_C@_1CA@NKJBCAGP@?$AAs?$AAp?$AAa?$AAn?$AAi?$AAs?$AAh?$AA?9?$AAu?$AAr?$AAu?$AAg?$AAu?$AAa?$AAy?$AA?$AA@ 10047f14     libucrt:get_qualified_locale.obj
 0002:00006f34       ??_C@_1CE@ODILCONM@?$AAs?$AAp?$AAa?$AAn?$AAi?$AAs?$AAh?$AA?9?$AAv?$AAe?$AAn?$AAe?$AAz?$AAu?$AAe?$AAl?$AAa?$AA?$AA@ 10047f34     libucrt:get_qualified_locale.obj
 0002:00006f58       ??_C@_1CA@OBNMCGFO@?$AAs?$AAw?$AAe?$AAd?$AAi?$AAs?$AAh?$AA?9?$AAf?$AAi?$AAn?$AAl?$AAa?$AAn?$AAd?$AA?$AA@ 10047f58     libucrt:get_qualified_locale.obj
 0002:00006f78       ??_C@_1M@PIPDDPPI@?$AAs?$AAw?$AAi?$AAs?$AAs?$AA?$AA@ 10047f78     libucrt:get_qualified_locale.obj
 0002:00006f84       ??_C@_15GMFIMNFM@?$AAu?$AAs?$AA?$AA@ 10047f84     libucrt:get_qualified_locale.obj
 0002:00006f8c       ??_C@_17HAEBFAGL@?$AAu?$AAs?$AAa?$AA?$AA@ 10047f8c     libucrt:get_qualified_locale.obj
 0002:00006f94       ??_C@_1BA@DPFJEPHB@?$AAa?$AAm?$AAe?$AAr?$AAi?$AAc?$AAa?$AA?$AA@ 10047f94     libucrt:get_qualified_locale.obj
 0002:00006fa4       ??_C@_1BA@ELOGGFK@?$AAb?$AAr?$AAi?$AAt?$AAa?$AAi?$AAn?$AA?$AA@ 10047fa4     libucrt:get_qualified_locale.obj
 0002:00006fb4       ??_C@_1M@GHBGIGDA@?$AAc?$AAh?$AAi?$AAn?$AAa?$AA?$AA@ 10047fb4     libucrt:get_qualified_locale.obj
 0002:00006fc0       ??_C@_1M@NCHEJOPO@?$AAc?$AAz?$AAe?$AAc?$AAh?$AA?$AA@ 10047fc0     libucrt:get_qualified_locale.obj
 0002:00006fcc       ??_C@_1BA@BKPAPBLA@?$AAe?$AAn?$AAg?$AAl?$AAa?$AAn?$AAd?$AA?$AA@ 10047fcc     libucrt:get_qualified_locale.obj
 0002:00006fdc       ??_C@_1BM@HKBCKIPC@?$AAg?$AAr?$AAe?$AAa?$AAt?$AA?5?$AAb?$AAr?$AAi?$AAt?$AAa?$AAi?$AAn?$AA?$AA@ 10047fdc     libucrt:get_qualified_locale.obj
 0002:00006ff8       ??_C@_1BA@PPCHPGJB@?$AAh?$AAo?$AAl?$AAl?$AAa?$AAn?$AAd?$AA?$AA@ 10047ff8     libucrt:get_qualified_locale.obj
 0002:00007008       ??_C@_1BE@JBMPEGDG@?$AAh?$AAo?$AAn?$AAg?$AA?9?$AAk?$AAo?$AAn?$AAg?$AA?$AA@ 10048008     libucrt:get_qualified_locale.obj
 0002:0000701c       ??_C@_1BI@KOELBBPJ@?$AAn?$AAe?$AAw?$AA?9?$AAz?$AAe?$AAa?$AAl?$AAa?$AAn?$AAd?$AA?$AA@ 1004801c     libucrt:get_qualified_locale.obj
 0002:00007034       ??_C@_15HIEBHAIO@?$AAn?$AAz?$AA?$AA@ 10048034     libucrt:get_qualified_locale.obj
 0002:0000703c       ??_C@_1BC@CHBCPFPI@?$AAp?$AAr?$AA?5?$AAc?$AAh?$AAi?$AAn?$AAa?$AA?$AA@ 1004803c     libucrt:get_qualified_locale.obj
 0002:00007050       ??_C@_1BC@JAOIIFKD@?$AAp?$AAr?$AA?9?$AAc?$AAh?$AAi?$AAn?$AAa?$AA?$AA@ 10048050     libucrt:get_qualified_locale.obj
 0002:00007064       ??_C@_1BI@BEHPPHKC@?$AAp?$AAu?$AAe?$AAr?$AAt?$AAo?$AA?9?$AAr?$AAi?$AAc?$AAo?$AA?$AA@ 10048064     libucrt:get_qualified_locale.obj
 0002:0000707c       ??_C@_1O@PAEOFKDI@?$AAs?$AAl?$AAo?$AAv?$AAa?$AAk?$AA?$AA@ 1004807c     libucrt:get_qualified_locale.obj
 0002:0000708c       ??_C@_1BK@FIHMCKAM@?$AAs?$AAo?$AAu?$AAt?$AAh?$AA?5?$AAa?$AAf?$AAr?$AAi?$AAc?$AAa?$AA?$AA@ 1004808c     libucrt:get_qualified_locale.obj
 0002:000070a8       ??_C@_1BI@NAEOODKB@?$AAs?$AAo?$AAu?$AAt?$AAh?$AA?5?$AAk?$AAo?$AAr?$AAe?$AAa?$AA?$AA@ 100480a8     libucrt:get_qualified_locale.obj
 0002:000070c0       ??_C@_1BK@FBDGGIFF@?$AAs?$AAo?$AAu?$AAt?$AAh?$AA?9?$AAa?$AAf?$AAr?$AAi?$AAc?$AAa?$AA?$AA@ 100480c0     libucrt:get_qualified_locale.obj
 0002:000070dc       ??_C@_1BI@GHLEJDPK@?$AAs?$AAo?$AAu?$AAt?$AAh?$AA?9?$AAk?$AAo?$AAr?$AAe?$AAa?$AA?$AA@ 100480dc     libucrt:get_qualified_locale.obj
 0002:000070f4       ??_C@_1CE@PLHLOMJF@?$AAt?$AAr?$AAi?$AAn?$AAi?$AAd?$AAa?$AAd?$AA?5?$AA?$CG?$AA?5?$AAt?$AAo?$AAb?$AAa?$AAg?$AAo?$AA?$AA@ 100480f4     libucrt:get_qualified_locale.obj
 0002:00007118       ??_C@_1BO@MODIMHHI@?$AAu?$AAn?$AAi?$AAt?$AAe?$AAd?$AA?9?$AAk?$AAi?$AAn?$AAg?$AAd?$AAo?$AAm?$AA?$AA@ 10048118     libucrt:get_qualified_locale.obj
 0002:00007138       ??_C@_1BM@FFHJONBJ@?$AAu?$AAn?$AAi?$AAt?$AAe?$AAd?$AA?9?$AAs?$AAt?$AAa?$AAt?$AAe?$AAs?$AA?$AA@ 10048138     libucrt:get_qualified_locale.obj
 0002:00007158       ___acrt_rg_language        10048158     libucrt:get_qualified_locale.obj
 0002:00007464       ___acrt_rg_language_count  10048464     libucrt:get_qualified_locale.obj
 0002:00007468       ___acrt_rg_country         10048468     libucrt:get_qualified_locale.obj
 0002:0000757c       ___acrt_rg_country_count   1004857c     libucrt:get_qualified_locale.obj
 0002:00007580       ??_C@_17DNCLJFIF@?$AAA?$AAC?$AAP?$AA?$AA@ 10048580     libucrt:get_qualified_locale.obj
 0002:00007588       ??_C@_17CIKBIHLH@?$AAO?$AAC?$AAP?$AA?$AA@ 10048588     libucrt:get_qualified_locale.obj
 0002:00007590       ___rglangidNotDefault      10048590     libucrt:getqloc_downlevel.obj
 0002:000075a4       ??_C@_01GBGANLPD@0?$AA@    100485a4     libucrt:cfout.obj
 0002:000075a8       ??_C@_05DNEBIAHO@1?$CDINF?$AA@ 100485a8     libucrt:cfout.obj
 0002:000075b0       ??_C@_06IMKFLFPG@1?$CDQNAN?$AA@ 100485b0     libucrt:cfout.obj
 0002:000075b8       ??_C@_06PGGFOGJG@1?$CDSNAN?$AA@ 100485b8     libucrt:cfout.obj
 0002:000075c0       ??_C@_05PHHOCPM@1?$CDIND?$AA@ 100485c0     libucrt:cfout.obj
 0002:00008408       __days                     10049408     libucrt:days.obj
 0002:0000843c       __lpdays                   1004943c     libucrt:days.obj
 0002:00008470       ___acrt_pow_rcp_t1         10049470     libucrt:pow_tables.obj
 0002:00008880       ___acrt_pow_log2_t1        10049880     libucrt:pow_tables.obj
 0002:00009090       ___acrt_pow_rcp_t2         1004a090     libucrt:pow_tables.obj
 0002:000094a0       ___acrt_pow_log2_t2        1004a4a0     libucrt:pow_tables.obj
 0002:00009cb0       ___acrt_pow_rcp_t3         1004acb0     libucrt:pow_tables.obj
 0002:0000a4c0       ___acrt_pow_log2_t3        1004b4c0     libucrt:pow_tables.obj
 0002:0000b4d0       ___acrt_pow_clv            1004c4d0     libucrt:pow_tables.obj
 0002:0000b4f0       ___acrt_pow_exp2_tbl       1004c4f0     libucrt:pow_tables.obj
 0002:0000bcf0       ??_C@_1BA@BALFACEM@?$AAC?$AAO?$AAN?$AAO?$AAU?$AAT?$AA$?$AA?$AA@ 1004ccf0     libucrt:initcon.obj
 0002:0000be60       ___acrt_log10_table_t      1004ce60     libucrt:log10_tables.obj
 0002:0000c270       ___acrt_log10_table_cb     1004d270     libucrt:log10_tables.obj
 0002:0000c680       ??_C@_1BK@DBDEIDLH@?$AAK?$AAE?$AAR?$AAN?$AAE?$AAL?$AA3?$AA2?$AA?4?$AAD?$AAL?$AAL?$AA?$AA@ 1004d680     DelayImp:delayhlp.obj
 0002:0000c69c       ___pfnDliFailureHook2      1004d69c     DelayImp:delayhk1.obj
 0002:0000c6a0       __load_config_used         1004d6a0     LIBCMT:loadcfg.obj
 0002:0000c6fc       ??_C@_03FJEPELFP@tag?$AA@  1004d6fc     index.obj
 0002:0000c700       ??_C@_04EONOHKEP@load?$AA@ 1004d700     index.obj
 0002:0000c708       ??_C@_03OOEBGOEH@cut?$AA@  1004d708     index.obj
 0002:0000c70c       ??_C@_06CEFNIFDD@cutAll?$AA@ 1004d70c     index.obj
 0002:0000c714       ??_C@_06OMEFPDIN@cutHMM?$AA@ 1004d714     index.obj
 0002:0000c71c       ??_C@_0N@IHHOLIPI@cutForSearch?$AA@ 1004d71c     index.obj
 0002:0000c72c       ??_C@_08GACIHCNA@cutSmall?$AA@ 1004d72c     index.obj
 0002:0000c738       ??_C@_07EMKILFJA@extract?$AA@ 1004d738     index.obj
 0002:0000c740       ??_C@_0L@HFDMOLGE@insertWord?$AA@ 1004d740     index.obj
 0002:0000c74c       ??_C@_0BB@MDGEJIOF@?4?4?2lib?2index?4cpp?$AA@ 1004d74c     index.obj
 0002:0000c760       ??_C@_09NLKOFLKF@nodejieba?$AA@ 1004d760     index.obj
 0002:0000c76c       ??_C@_0BC@BDKFLDHL@unknown?5exception?$AA@ 1004d76c     nodejieba.obj
 0002:0000c780       ??_C@_0BA@ELKIONDK@bad?5locale?5name?$AA@ 1004d780     nodejieba.obj
 0002:0000c790       ??_C@_05LAPONLG@false?$AA@ 1004d790     nodejieba.obj
 0002:0000c798       ??_C@_04LOAJBDKD@true?$AA@ 1004d798     nodejieba.obj
 0002:0000c79d       ??_C@_00CNPNBAHC@?$AA@     1004d79d     nodejieba.obj
 0002:0000c7a0       ??_C@_02LMMGGCAJ@?3?5?$AA@ 1004d7a0     nodejieba.obj
 0002:0000c7a4       ??_C@_08LLGCOLLL@iostream?$AA@ 1004d7a4     nodejieba.obj
 0002:0000c7b0       ??_C@_0BG@PADBLCHM@iostream?5stream?5error?$AA@ 1004d7b0     nodejieba.obj
 0002:0000c7c8       ??_C@_0BF@PHHKMMFD@ios_base?3?3badbit?5set?$AA@ 1004d7c8     nodejieba.obj
 0002:0000c7e0       ??_C@_0BG@FMKFHCIL@ios_base?3?3failbit?5set?$AA@ 1004d7e0     nodejieba.obj
 0002:0000c7f8       ??_C@_0BF@OOHOMBOF@ios_base?3?3eofbit?5set?$AA@ 1004d7f8     nodejieba.obj
 0002:0000c810       ??_C@_0BA@JFNIOLAK@string?5too?5long?$AA@ 1004d810     nodejieba.obj
 0002:0000c820       ??_C@_1JI@JHMOKKPM@?$AAc?$AA?3?$AA?2?$AAu?$AAs?$AAe?$AAr?$AAs?$AA?2?$AAa?$AAd?$AAm?$AAi?$AAn?$AAi?$AAs?$AAt?$AAr?$AAa?$AAt?$AAo?$AAr?$AA?2?$AAd?$AAe?$AAs?$AAk?$AAt?$AAo?$AAp?$AA?2?$AAn@ 1004d820     nodejieba.obj
 0002:0000c8b8       ??_C@_1FK@CBGIJHDF@?$AAv?$AAa?$AAl?$AAu?$AAe?$AA?4?$AAs?$AAi?$AAz?$AAe?$AA?$CI?$AA?$CJ?$AA?5?$AA?$DM?$AA?$DN?$AA?5?$AAI?$AAN?$AAT?$AA_?$AAM?$AAA?$AAX?$AA?5?$AA?$CG?$AA?$CG?$AA?5?$AA?$CC?$AAs?$AAt?$AAr?$AAi@ 1004d8b8     nodejieba.obj
 0002:0000c914       ??_C@_04EHIOMBPF@word?$AA@ 1004d914     nodejieba.obj
 0002:0000c91c       ??_C@_06CMCBKMCB@weight?$AA@ 1004d91c     nodejieba.obj
 0002:0000c924       ??_C@_05KOLFGEDA@DEBUG?$AA@ 1004d924     nodejieba.obj
 0002:0000c92c       ??_C@_04BEADLPGM@INFO?$AA@ 1004d92c     nodejieba.obj
 0002:0000c934       ??_C@_04JBIELMDE@WARN?$AA@ 1004d934     nodejieba.obj
 0002:0000c93c       ??_C@_05MBDEGLCK@ERROR?$AA@ 1004d93c     nodejieba.obj
 0002:0000c944       ??_C@_05JLFELJNP@FATAL?$AA@ 1004d944     nodejieba.obj
 0002:0000c94c       ??_C@_0BC@LGPAMIPH@?$CFY?9?$CFm?9?$CFd?5?$CFH?3?$CFM?3?$CFS?$AA@ 1004d94c     nodejieba.obj
 0002:0000c960       ??_C@_1JM@IFEHIJOO@?$AAC?$AA?3?$AA?2?$AAU?$AAs?$AAe?$AAr?$AAs?$AA?2?$AAA?$AAd?$AAm?$AAi?$AAn?$AAi?$AAs?$AAt?$AAr?$AAa?$AAt?$AAo?$AAr?$AA?2?$AAD?$AAe?$AAs?$AAk?$AAt?$AAo?$AAp?$AA?2?$AAn@ 1004d960     nodejieba.obj
 0002:0000ca00       ??_C@_1HG@HHLCFMPM@?$AAl?$AAe?$AAv?$AAe?$AAl?$AA_?$AA?5?$AA?$DM?$AA?$DN?$AA?5?$AAs?$AAi?$AAz?$AAe?$AAo?$AAf?$AA?$CI?$AAL?$AAO?$AAG?$AA_?$AAL?$AAE?$AAV?$AAE?$AAL?$AA_?$AAA?$AAR?$AAR?$AAA?$AAY@ 1004da00     nodejieba.obj
 0002:0000ca78       ??_C@_01CLKCMJKC@?5?$AA@   1004da78     nodejieba.obj
 0002:0000ca7c       ??_C@_01JLIPDDHJ@?3?$AA@   1004da7c     nodejieba.obj
 0002:0000ca80       ??_C@_1KA@IOMAGIHM@?$AAc?$AA?3?$AA?2?$AAu?$AAs?$AAe?$AAr?$AAs?$AA?2?$AAa?$AAd?$AAm?$AAi?$AAn?$AAi?$AAs?$AAt?$AAr?$AAa?$AAt?$AAo?$AAr?$AA?2?$AAd?$AAe?$AAs?$AAk?$AAt?$AAo?$AAp?$AA?2?$AAn@ 1004da80     nodejieba.obj
 0002:0000cb20       ??_C@_1DM@CKOKLGCG@?$AAr?$AAi?$AAg?$AAh?$AAt?$AA?9?$AA?$DO?$AAo?$AAf?$AAf?$AAs?$AAe?$AAt?$AA?5?$AA?$DO?$AA?$DN?$AA?5?$AAl?$AAe?$AAf?$AAt?$AA?9?$AA?$DO?$AAo?$AAf?$AAf?$AAs?$AAe?$AAt?$AA?$AA@ 1004db20     nodejieba.obj
 0002:0000cb60       ??_C@_1JK@HOLJEFKA@?$AAc?$AA?3?$AA?2?$AAu?$AAs?$AAe?$AAr?$AAs?$AA?2?$AAa?$AAd?$AAm?$AAi?$AAn?$AAi?$AAs?$AAt?$AAr?$AAa?$AAt?$AAo?$AAr?$AA?2?$AAd?$AAe?$AAs?$AAk?$AAt?$AAo?$AAp?$AA?2?$AAn@ 1004db60     nodejieba.obj
 0002:0000cbfc       ??_C@_1BM@LEGIAKN@?$AAr?$AAo?$AAo?$AAt?$AA_?$AA?5?$AA?$CB?$AA?$DN?$AA?5?$AAN?$AAU?$AAL?$AAL?$AA?$AA@ 1004dbfc     nodejieba.obj
 0002:0000cc18       ??_C@_1BO@GLGLHCIH@?$AAp?$AAt?$AAN?$AAo?$AAd?$AAe?$AA?5?$AA?$CB?$AA?$DN?$AA?5?$AAN?$AAU?$AAL?$AAL?$AA?$AA@ 1004dc18     nodejieba.obj
 0002:0000cc38       ??_C@_1EI@CMHJFEKK@?$AAk?$AAe?$AAy?$AAs?$AA?4?$AAs?$AAi?$AAz?$AAe?$AA?$CI?$AA?$CJ?$AA?5?$AA?$DN?$AA?$DN?$AA?5?$AAv?$AAa?$AAl?$AAu?$AAe?$AAP?$AAo?$AAi?$AAn?$AAt?$AAe?$AAr?$AAs?$AA?4?$AAs?$AAi?$AAz@ 1004dc38     nodejieba.obj
 0002:0000cc80       ??_C@_1KC@CNGAMGPE@?$AAc?$AA?3?$AA?2?$AAu?$AAs?$AAe?$AAr?$AAs?$AA?2?$AAa?$AAd?$AAm?$AAi?$AAn?$AAi?$AAs?$AAt?$AAr?$AAa?$AAt?$AAo?$AAr?$AA?2?$AAd?$AAe?$AAs?$AAk?$AAt?$AAo?$AAp?$AA?2?$AAn@ 1004dc80     nodejieba.obj
 0002:0000cd24       ??_C@_1CC@FLHHECFC@?$AAd?$AAi?$AAc?$AAt?$AAU?$AAn?$AAi?$AAt?$AAs?$AA?4?$AAs?$AAi?$AAz?$AAe?$AA?$CI?$AA?$CJ?$AA?$AA@ 1004dd24     nodejieba.obj
 0002:0000cd48       ??_C@_02GBOHFIOB@?$HM?$DL?$AA@ 1004dd48     nodejieba.obj
 0002:0000cd4c       ??_C@_07OCDKBNAP@?5failed?$AA@ 1004dd4c     nodejieba.obj
 0002:0000cd54       ??_C@_05JFHIMGKF@open?5?$AA@ 1004dd54     nodejieba.obj
 0002:0000cd5c       ??_C@_09IDMAOLPI@?$FN?5false?4?5?$AA@ 1004dd5c     nodejieba.obj
 0002:0000cd68       ??_C@_0BE@ONLJFDGI@exp?3?5?$FLifs?4is_open?$CI?$CJ?$AA@ 1004dd68     nodejieba.obj
 0002:0000cd80       ??_C@_0FB@EMFCLHHL@c?3?2users?2administrator?2desktop?2n@ 1004dd80     nodejieba.obj
 0002:0000cdd4       ??_C@_1CA@KCLNMCLO@?$AAf?$AAr?$AAe?$AAq?$AA_?$AAs?$AAu?$AAm?$AA_?$AA?5?$AA?$DO?$AA?5?$AA0?$AA?4?$AA0?$AA?$AA@ 1004ddd4     nodejieba.obj
 0002:0000cdf4       ??_C@_08JLFKCOKA@?5failed?4?$AA@ 1004ddf4     nodejieba.obj
 0002:0000ce00       ??_C@_07BEFKFPJG@Decode?5?$AA@ 1004de00     nodejieba.obj
 0002:0000ce08       ??_C@_0BM@IANMBCPE@split?5result?5illegal?0?5line?3?$AA@ 1004de08     nodejieba.obj
 0002:0000ce24       ??_C@_0CE@BICEOEBJ@exp?3?5?$FLbuf?4size?$CI?$CJ?5?$DN?$DN?5DICT_COLUMN_@ 1004de24     nodejieba.obj
 0002:0000ce48       ??_C@_0CC@KJOCALGI@exp?3?5?$FL?$CBstatic_node_infos_?4empty?$CI@ 1004de48     nodejieba.obj
 0002:0000ce6c       ??_C@_1BE@LKLJBJHJ@?$AAs?$AAu?$AAm?$AA?5?$AA?$DO?$AA?5?$AA0?$AA?4?$AA0?$AA?$AA@ 1004de6c     nodejieba.obj
 0002:0000ce80       ??_C@_1CO@LEEMAAHG@?$AAn?$AAo?$AAd?$AAe?$AA_?$AAi?$AAn?$AAf?$AAo?$AA?4?$AAw?$AAe?$AAi?$AAg?$AAh?$AAt?$AA?5?$AA?$DO?$AA?5?$AA0?$AA?4?$AA0?$AA?$AA@ 1004de80     nodejieba.obj
 0002:0000ceb0       ??_C@_0BA@DNJAMLL@decode?5failed?4?5?$AA@ 1004deb0     nodejieba.obj
 0002:0000cec0       ??_C@_0FC@HMKMNAEC@c?3?2users?2administrator?2desktop?2n@ 1004dec0     nodejieba.obj
 0002:0000cf14       ??_C@_09KOPHGJDG@?5?7?6?o?$LM?$IM?c?$IA?$IC?$AA@ 1004df14     nodejieba.obj
 0002:0000cf20       ??_C@_0CK@IPOPEFIE@exp?3?5?$FLResetSeparators?$CISPECIAL_SE@ 1004df20     nodejieba.obj
 0002:0000cf50       ??_C@_0FE@NJPADOJE@c?3?2users?2administrator?2desktop?2n@ 1004df50     nodejieba.obj
 0002:0000cfa4       ??_C@_07ONCMDNMA@decode?5?$AA@ 1004dfa4     nodejieba.obj
 0002:0000cfac       ??_C@_0BA@FLFCHLDM@?5already?5exists?$AA@ 1004dfac     nodejieba.obj
 0002:0000cfc0       ??_C@_1KI@CMNEABLG@?$AAc?$AA?3?$AA?2?$AAu?$AAs?$AAe?$AAr?$AAs?$AA?2?$AAa?$AAd?$AAm?$AAi?$AAn?$AAi?$AAs?$AAt?$AAr?$AAa?$AAt?$AAo?$AAr?$AA?2?$AAd?$AAe?$AAs?$AAk?$AAt?$AAo?$AAp?$AA?2?$AAn@ 1004dfc0     nodejieba.obj
 0002:0000d068       ??_C@_1BE@KEHDKEPL@?$AAd?$AAi?$AAc?$AAt?$AAT?$AAr?$AAi?$AAe?$AA_?$AA?$AA@ 1004e068     nodejieba.obj
 0002:0000d07c       ??_C@_1DC@FBABHNBN@?$AAn?$AAe?$AAx?$AAt?$AAo?$AAf?$AAf?$AAs?$AAe?$AAt?$AA?5?$AA?$DM?$AA?5?$AAd?$AAa?$AAg?$AAs?$AA?4?$AAs?$AAi?$AAz?$AAe?$AA?$CI?$AA?$CJ?$AA?$AA@ 1004e07c     nodejieba.obj
 0002:0000d0b0       ??_C@_01GOHFPIOK@m?$AA@    1004e0b0     nodejieba.obj
 0002:0000d0b4       ??_C@_03LKLGDMJI@eng?$AA@  1004e0b4     nodejieba.obj
 0002:0000d0b8       ??_C@_01FJMABOPO@x?$AA@    1004e0b8     nodejieba.obj
 0002:0000d0c0       ??_C@_1KE@ICKKHBLK@?$AAc?$AA?3?$AA?2?$AAu?$AAs?$AAe?$AAr?$AAs?$AA?2?$AAa?$AAd?$AAm?$AAi?$AAn?$AAi?$AAs?$AAt?$AAr?$AAa?$AAt?$AAo?$AAr?$AA?2?$AAd?$AAe?$AAs?$AAk?$AAt?$AAo?$AAp?$AA?2?$AAn@ 1004e0c0     nodejieba.obj
 0002:0000d164       ??_C@_1BK@JEMNKLBK@?$AAd?$AAi?$AAc?$AAt?$AA?5?$AA?$CB?$AA?$DN?$AA?5?$AAN?$AAU?$AAL?$AAL?$AA?$AA@ 1004e164     nodejieba.obj
 0002:0000d180       ??_C@_0P@NMEFKJNE@Decode?5failed?4?$AA@ 1004e180     nodejieba.obj
 0002:0000d190       ??_C@_0FC@PJIOMLBB@c?3?2users?2administrator?2desktop?2n@ 1004e190     nodejieba.obj
 0002:0000d1e8       ??_C@_1KE@ECMAFNLE@?$AAc?$AA?3?$AA?2?$AAu?$AAs?$AAe?$AAr?$AAs?$AA?2?$AAa?$AAd?$AAm?$AAi?$AAn?$AAi?$AAs?$AAt?$AAr?$AAa?$AAt?$AAo?$AAr?$AA?2?$AAd?$AAe?$AAs?$AAk?$AAt?$AAo?$AAp?$AA?2?$AAn@ 1004e1e8     nodejieba.obj
 0002:0000d28c       ??_C@_1CI@DMPMCEPO@?$AA?$CB?$AAr?$AAi?$AAt?$AA?9?$AA?$DO?$AAn?$AAe?$AAx?$AAt?$AAs?$AA?4?$AAe?$AAm?$AAp?$AAt?$AAy?$AA?$CI?$AA?$CJ?$AA?$AA@ 1004e28c     nodejieba.obj
 0002:0000d2b4       ??_C@_1CI@MPLFAFKH@?$AAp?$AA?9?$AA?$DO?$AAw?$AAo?$AAr?$AAd?$AA?4?$AAs?$AAi?$AAz?$AAe?$AA?$CI?$AA?$CJ?$AA?5?$AA?$DO?$AA?$DN?$AA?5?$AA1?$AA?$AA@ 1004e2b4     nodejieba.obj
 0002:0000d2dc       ??_C@_0BG@MGGJGIGH@exp?3?5?$FLifile?4is_open?$CI?$CJ?$AA@ 1004e2dc     nodejieba.obj
 0002:0000d2f8       ??_C@_0FB@HLMMLODL@c?3?2users?2administrator?2desktop?2n@ 1004e2f8     nodejieba.obj
 0002:0000d34c       ??_C@_0BL@LBKMIEFA@exp?3?5?$FLGetLine?$CIifile?0?5line?$CJ?$AA@ 1004e34c     nodejieba.obj
 0002:0000d368       ??_C@_0BP@NHLHLPOB@exp?3?5?$FLtmp?4size?$CI?$CJ?5?$DN?$DN?5STATUS_SUM?$AA@ 1004e368     nodejieba.obj
 0002:0000d388       ??_C@_0CE@NGMDNELO@exp?3?5?$FLLoadEmitProb?$CIline?0?5emitPro@ 1004e388     nodejieba.obj
 0002:0000d3ac       ??_C@_0CE@NDIMMCDL@exp?3?5?$FLLoadEmitProb?$CIline?0?5emitPro@ 1004e3ac     nodejieba.obj
 0002:0000d3d0       ??_C@_0CE@NNJPJDID@exp?3?5?$FLLoadEmitProb?$CIline?0?5emitPro@ 1004e3d0     nodejieba.obj
 0002:0000d3f4       ??_C@_0CE@MLCHBNPJ@exp?3?5?$FLLoadEmitProb?$CIline?0?5emitPro@ 1004e3f4     nodejieba.obj
 0002:0000d418       ??_C@_01IPJKGB@?$CD?$AA@   1004e418     nodejieba.obj
 0002:0000d41c       ??_C@_01IHBHIGKO@?0?$AA@   1004e41c     nodejieba.obj
 0002:0000d420       ??_C@_0BC@PDPNLGKN@emitProb?5illegal?4?$AA@ 1004e420     nodejieba.obj
 0002:0000d434       ??_C@_0BC@BGGOKDAF@TransCode?5failed?4?$AA@ 1004e434     nodejieba.obj
 0002:0000d448       ??_C@_1KG@KMGBIFCC@?$AAc?$AA?3?$AA?2?$AAu?$AAs?$AAe?$AAr?$AAs?$AA?2?$AAa?$AAd?$AAm?$AAi?$AAn?$AAi?$AAs?$AAt?$AAr?$AAa?$AAt?$AAo?$AAr?$AA?2?$AAd?$AAe?$AAs?$AAk?$AAt?$AAo?$AAp?$AA?2?$AAn@ 1004e448     nodejieba.obj
 0002:0000d4f0       ??_C@_1BK@OKFGHNFI@?$AAe?$AAn?$AAd?$AA?5?$AA?$DO?$AA?$DN?$AA?5?$AAb?$AAe?$AAg?$AAi?$AAn?$AA?$AA@ 1004e4f0     nodejieba.obj
 0002:0000d50c       ??_C@_1BG@CGKCHLJE@?$AAj?$AA?5?$AA?9?$AA?5?$AA1?$AA?5?$AA?$DO?$AA?$DN?$AA?5?$AAi?$AA?$AA@ 1004e50c     nodejieba.obj
 0002:0000d524       ??_C@_0O@LEGMDGCE@words?5illegal?$AA@ 1004e524     nodejieba.obj
 0002:0000d538       ??_C@_0FJ@LDMDKOLA@C?3?2Users?2Administrator?2Desktop?2n@ 1004e538     nodejieba.obj
 0002:0000d594       ??_C@_0BB@LHLNCINB@?5empty?4?5skipped?4?$AA@ 1004e594     nodejieba.obj
 0002:0000d5a8       ??_C@_08BGIKOBLN@lineno?3?5?$AA@ 1004e5a8     nodejieba.obj
 0002:0000d5b4       ??_C@_0L@FINPFKDP@?0?5lineno?3?5?$AA@ 1004e5b4     nodejieba.obj
 0002:0000d5c0       ??_C@_06JHPMNCHL@line?3?5?$AA@ 1004e5c0     nodejieba.obj
 0002:0000d5c8       ??_C@_1LC@IFOOFPAI@?$AAC?$AA?3?$AA?2?$AAU?$AAs?$AAe?$AAr?$AAs?$AA?2?$AAA?$AAd?$AAm?$AAi?$AAn?$AAi?$AAs?$AAt?$AAr?$AAa?$AAt?$AAo?$AAr?$AA?2?$AAD?$AAe?$AAs?$AAk?$AAt?$AAo?$AAp?$AA?2?$AAn@ 1004e5c8     nodejieba.obj
 0002:0000d67c       ??_C@_1O@DLAJNNMG@?$AAl?$AAi?$AAn?$AAe?$AAn?$AAo?$AA?$AA@ 1004e67c     nodejieba.obj
 0002:0000d68c       ??_C@_1CE@GDKMKFPD@?$AAi?$AAd?$AAf?$AAA?$AAv?$AAe?$AAr?$AAa?$AAg?$AAe?$AA_?$AA?5?$AA?$DO?$AA?5?$AA0?$AA?4?$AA0?$AA?$AA@ 1004e68c     nodejieba.obj
 0002:0000d6b0       ??_C@_1CE@EAGFJHKK@?$AAs?$AAt?$AAo?$AAp?$AAW?$AAo?$AAr?$AAd?$AAs?$AA_?$AA?4?$AAs?$AAi?$AAz?$AAe?$AA?$CI?$AA?$CJ?$AA?$AA@ 1004e6b0     nodejieba.obj
 0002:0000d6d4       ??_C@_1CK@LBOPDODK@?$AA?4?$AA?4?$AA?2?$AAl?$AAi?$AAb?$AA?2?$AAn?$AAo?$AAd?$AAe?$AAj?$AAi?$AAe?$AAb?$AAa?$AA?4?$AAc?$AAp?$AAp?$AA?$AA@ 1004e6d4     nodejieba.obj
 0002:0000d700       ??_C@_1CI@PJGFNNNJ@?$AAg?$AAl?$AAo?$AAb?$AAa?$AAl?$AA_?$AAj?$AAi?$AAe?$AAb?$AAa?$AA_?$AAh?$AAa?$AAn?$AAd?$AAl?$AAe?$AA?$AA@ 1004e700     nodejieba.obj
 0002:0000d728       ??_C@_1KE@IFPJKGBP@?$AAC?$AA?3?$AA?2?$AAU?$AAs?$AAe?$AAr?$AAs?$AA?2?$AAA?$AAd?$AAm?$AAi?$AAn?$AAi?$AAs?$AAt?$AAr?$AAa?$AAt?$AAo?$AAr?$AA?2?$AAD?$AAe?$AAs?$AAk?$AAt?$AAo?$AAp?$AA?2?$AAn@ 1004e728     nodejieba.obj
 0002:0000d7cc       ??_C@_1BE@FDMNDHIH@?$AAc?$AAa?$AAp?$AAa?$AAc?$AAi?$AAt?$AAy?$AA_?$AA?$AA@ 1004e7cc     nodejieba.obj
 0002:0000d7e0       ??_C@_19EIHMLFPC@?$AAn?$AAe?$AAx?$AAt?$AA?$AA@ 1004e7e0     nodejieba.obj
 0002:0000d7ec       ??_C@_0BD@OLBABOEK@vector?$DMT?$DO?5too?5long?$AA@ 1004e7ec     nodejieba.obj
 0002:0000d800       ??_C@_19BHKCDOEF@?$AAp?$AAt?$AAr?$AA_?$AA?$AA@ 1004e800     nodejieba.obj
 0002:0000d80c       ??_C@_02BBAHNLBA@?$CFp?$AA@ 1004e80c     nodejieba.obj
 0002:0000d810       ??_C@_02CLHGNPPK@Lu?$AA@   1004e810     nodejieba.obj
 0002:0000d814       ??_C@_02HIKPPMOK@Ld?$AA@   1004e814     nodejieba.obj
 0002:0000d818       ??_C@_02BDDLJJBK@lu?$AA@   1004e818     nodejieba.obj
 0002:0000d81c       ??_C@_02EAOCLKAK@ld?$AA@   1004e81c     nodejieba.obj
 0002:0000d820       ??_C@_0BC@KBDMBKEH@deque?$DMT?$DO?5too?5long?$AA@ 1004e820     nodejieba.obj
 0002:0000d834       ??_C@_02MDKMJEGG@eE?$AA@   1004e834     nodejieba.obj
 0002:0000d838       ??_C@_02OOPEBDOJ@pP?$AA@   1004e838     nodejieba.obj
 0002:0000d83c       ??_C@_0BI@CFPLBAOH@invalid?5string?5position?$AA@ 1004e83c     nodejieba.obj
 0002:0000d854       ??_C@_0BB@MOGOBHAF@list?$DMT?$DO?5too?5long?$AA@ 1004e854     nodejieba.obj
 0002:0000d868       ??_C@_0BE@JONHPENG@map?1set?$DMT?$DO?5too?5long?$AA@ 1004e868     nodejieba.obj
 0002:0000d87c       ??_7?$basic_ostringstream@DU?$char_traits@D@std@@V?$allocator@D@2@@std@@6B@ 1004e87c     nodejieba.obj
 0002:0000d8b0       ___pfnDliNotifyHook2       1004e8b0     win_delay_load_hook.obj
 0002:0000d8b4       ??_7FullSegment@cppjieba@@6B@ 1004e8b4     nodejieba.obj
 0002:0000d8bc       ??_7QuerySegment@cppjieba@@6B@ 1004e8bc     nodejieba.obj
 0002:0000d8c4       ??_7MixSegment@cppjieba@@6B@ 1004e8c4     nodejieba.obj
 0002:0000d8d4       ??_7exception@stdext@@6B@  1004e8d4     nodejieba.obj
 0002:0000d8e0       ??_7?$basic_stringbuf@DU?$char_traits@D@std@@V?$allocator@D@2@@std@@6B@ 1004e8e0     nodejieba.obj
 0002:0000d91c       ??_8?$basic_ifstream@DU?$char_traits@D@std@@@std@@7B@ 1004e91c     nodejieba.obj
 0002:0000d924       ??_7?$basic_istream@DU?$char_traits@D@std@@@std@@6B@ 1004e924     nodejieba.obj
 0002:0000d928       ??_7HMMSegment@cppjieba@@6B@ 1004e928     nodejieba.obj
 0002:0000d930       ??_8?$basic_ostream@DU?$char_traits@D@std@@@std@@7B@ 1004e930     nodejieba.obj
 0002:0000d938       ??_8?$basic_ostringstream@DU?$char_traits@D@std@@V?$allocator@D@2@@std@@7B@ 1004e938     nodejieba.obj
 0002:0000d940       ??_7MPSegment@cppjieba@@6B@ 1004e940     nodejieba.obj
 0002:0000d950       ??_7?$basic_ifstream@DU?$char_traits@D@std@@@std@@6B@ 1004e950     nodejieba.obj
 0002:0000d954       ??_7SegmentBase@cppjieba@@6B@ 1004e954     nodejieba.obj
 0002:0000d95c       ??_C@_08HCOMDCCD@iojs?4exe?$AA@ 1004e95c     win_delay_load_hook.obj
 0002:0000d968       ??_C@_08JDDNMFDB@node?4exe?$AA@ 1004e968     win_delay_load_hook.obj
 0002:0000d978       __real@0000000000000000    1004e978     nodejieba.obj
 0002:0000d980       __real@3ff0000000000000    1004e980     nodejieba.obj
 0002:0000d988       __real@4202a05f20000000    1004e988     nodejieba.obj
 0002:0000d990       __real@d4ccb63b5c484765    1004e990     nodejieba.obj
 0002:0000d9a0       __xmm@41f00000000000000000000000000000 1004e9a0     nodejieba.obj
 0002:0000d9b0       __xmm@7fffffffffffffff7fffffffffffffff 1004e9b0     nodejieba.obj
 0002:0000dab0       ___acrt_log_table_b        1004eab0     libucrt:log_tables.obj
 0002:0000dec0       ___acrt_log_table_t        1004eec0     libucrt:log_tables.obj
 0002:0000e404       __tls_used                 1004f404     LIBCMT:tlssup.obj
 0002:0000e41c       ??_R4_Facet_base@std@@6B@  1004f41c     libcpmt:locale0.obj
 0002:0000e430       ??_R3_Facet_base@std@@8    1004f430     libcpmt:locale0.obj
 0002:0000e440       ??_R2_Facet_base@std@@8    1004f440     libcpmt:locale0.obj
 0002:0000e448       ??_R1A@?0A@EA@_Facet_base@std@@8 1004f448     libcpmt:locale0.obj
 0002:0000e464       ??_R4_Locimp@locale@std@@6B@ 1004f464     libcpmt:locale0.obj
 0002:0000e478       ??_R3_Locimp@locale@std@@8 1004f478     libcpmt:locale0.obj
 0002:0000e488       ??_R2_Locimp@locale@std@@8 1004f488     libcpmt:locale0.obj
 0002:0000e49c       ??_R1A@?0A@EA@_Locimp@locale@std@@8 1004f49c     libcpmt:locale0.obj
 0002:0000e4b8       ??_R1A@?0A@EA@facet@locale@std@@8 1004f4b8     libcpmt:locale0.obj
 0002:0000e4d4       ??_R3facet@locale@std@@8   1004f4d4     libcpmt:locale0.obj
 0002:0000e4e4       ??_R2facet@locale@std@@8   1004f4e4     libcpmt:locale0.obj
 0002:0000e4f4       ??_R13?0A@EA@_Crt_new_delete@std@@8 1004f4f4     libcpmt:locale0.obj
 0002:0000e510       ??_R3_Crt_new_delete@std@@8 1004f510     libcpmt:locale0.obj
 0002:0000e520       ??_R2_Crt_new_delete@std@@8 1004f520     libcpmt:locale0.obj
 0002:0000e528       ??_R1A@?0A@EA@_Crt_new_delete@std@@8 1004f528     libcpmt:locale0.obj
 0002:0000e544       ??_R4exception@std@@6B@    1004f544     libcpmt:xthrow.obj
 0002:0000e558       ??_R3exception@std@@8      1004f558     libcpmt:xthrow.obj
 0002:0000e568       ??_R2exception@std@@8      1004f568     libcpmt:xthrow.obj
 0002:0000e570       ??_R1A@?0A@EA@exception@std@@8 1004f570     libcpmt:xthrow.obj
 0002:0000e58c       ??_R4bad_alloc@std@@6B@    1004f58c     libcpmt:xthrow.obj
 0002:0000e5a0       ??_R3bad_alloc@std@@8      1004f5a0     libcpmt:xthrow.obj
 0002:0000e5b0       ??_R2bad_alloc@std@@8      1004f5b0     libcpmt:xthrow.obj
 0002:0000e5bc       ??_R1A@?0A@EA@bad_alloc@std@@8 1004f5bc     libcpmt:xthrow.obj
 0002:0000e5d8       ??_R4logic_error@std@@6B@  1004f5d8     libcpmt:xthrow.obj
 0002:0000e5ec       ??_R3logic_error@std@@8    1004f5ec     libcpmt:xthrow.obj
 0002:0000e5fc       ??_R2logic_error@std@@8    1004f5fc     libcpmt:xthrow.obj
 0002:0000e608       ??_R1A@?0A@EA@logic_error@std@@8 1004f608     libcpmt:xthrow.obj
 0002:0000e624       ??_R4length_error@std@@6B@ 1004f624     libcpmt:xthrow.obj
 0002:0000e638       ??_R3length_error@std@@8   1004f638     libcpmt:xthrow.obj
 0002:0000e648       ??_R2length_error@std@@8   1004f648     libcpmt:xthrow.obj
 0002:0000e658       ??_R1A@?0A@EA@length_error@std@@8 1004f658     libcpmt:xthrow.obj
 0002:0000e674       ??_R4out_of_range@std@@6B@ 1004f674     libcpmt:xthrow.obj
 0002:0000e688       ??_R3out_of_range@std@@8   1004f688     libcpmt:xthrow.obj
 0002:0000e698       ??_R2out_of_range@std@@8   1004f698     libcpmt:xthrow.obj
 0002:0000e6a8       ??_R1A@?0A@EA@out_of_range@std@@8 1004f6a8     libcpmt:xthrow.obj
 0002:0000e6c4       ??_R4runtime_error@std@@6B@ 1004f6c4     libcpmt:xthrow.obj
 0002:0000e6d8       ??_R3runtime_error@std@@8  1004f6d8     libcpmt:xthrow.obj
 0002:0000e6e8       ??_R2runtime_error@std@@8  1004f6e8     libcpmt:xthrow.obj
 0002:0000e6f4       ??_R1A@?0A@EA@runtime_error@std@@8 1004f6f4     libcpmt:xthrow.obj
 0002:0000e710       ??_R4ios_base@std@@6B@     1004f710     libcpmt:cerr.obj
 0002:0000e724       ??_R3ios_base@std@@8       1004f724     libcpmt:cerr.obj
 0002:0000e734       ??_R2ios_base@std@@8       1004f734     libcpmt:cerr.obj
 0002:0000e740       ??_R1A@?0A@EA@ios_base@std@@8 1004f740     libcpmt:cerr.obj
 0002:0000e75c       ??_R17?0A@EA@?$_Iosb@H@std@@8 1004f75c     libcpmt:cerr.obj
 0002:0000e778       ??_R3?$_Iosb@H@std@@8      1004f778     libcpmt:cerr.obj
 0002:0000e788       ??_R2?$_Iosb@H@std@@8      1004f788     libcpmt:cerr.obj
 0002:0000e790       ??_R1A@?0A@EA@?$_Iosb@H@std@@8 1004f790     libcpmt:cerr.obj
 0002:0000e7ac       ??_R4?$basic_ios@DU?$char_traits@D@std@@@std@@6B@ 1004f7ac     libcpmt:cerr.obj
 0002:0000e7c0       ??_R3?$basic_ios@DU?$char_traits@D@std@@@std@@8 1004f7c0     libcpmt:cerr.obj
 0002:0000e7d0       ??_R2?$basic_ios@DU?$char_traits@D@std@@@std@@8 1004f7d0     libcpmt:cerr.obj
 0002:0000e7e0       ??_R1A@?0A@EA@?$basic_ios@DU?$char_traits@D@std@@@std@@8 1004f7e0     libcpmt:cerr.obj
 0002:0000e7fc       ??_R4?$basic_streambuf@DU?$char_traits@D@std@@@std@@6B@ 1004f7fc     libcpmt:cerr.obj
 0002:0000e810       ??_R3?$basic_streambuf@DU?$char_traits@D@std@@@std@@8 1004f810     libcpmt:cerr.obj
 0002:0000e820       ??_R2?$basic_streambuf@DU?$char_traits@D@std@@@std@@8 1004f820     libcpmt:cerr.obj
 0002:0000e828       ??_R1A@?0A@EA@?$basic_streambuf@DU?$char_traits@D@std@@@std@@8 1004f828     libcpmt:cerr.obj
 0002:0000e844       ??_R4?$basic_ostream@DU?$char_traits@D@std@@@std@@6B@ 1004f844     libcpmt:cerr.obj
 0002:0000e858       ??_R3?$basic_ostream@DU?$char_traits@D@std@@@std@@8 1004f858     libcpmt:cerr.obj
 0002:0000e868       ??_R2?$basic_ostream@DU?$char_traits@D@std@@@std@@8 1004f868     libcpmt:cerr.obj
 0002:0000e87c       ??_R1A@?0A@EA@?$basic_ostream@DU?$char_traits@D@std@@@std@@8 1004f87c     libcpmt:cerr.obj
 0002:0000e898       ??_R1A@A@3FA@?$basic_ios@DU?$char_traits@D@std@@@std@@8 1004f898     libcpmt:cerr.obj
 0002:0000e8b4       ??_R1A@A@3EA@ios_base@std@@8 1004f8b4     libcpmt:cerr.obj
 0002:0000e8d0       ??_R17A@3EA@?$_Iosb@H@std@@8 1004f8d0     libcpmt:cerr.obj
 0002:0000e8ec       ??_R4?$basic_filebuf@DU?$char_traits@D@std@@@std@@6B@ 1004f8ec     libcpmt:cerr.obj
 0002:0000e900       ??_R3?$basic_filebuf@DU?$char_traits@D@std@@@std@@8 1004f900     libcpmt:cerr.obj
 0002:0000e910       ??_R2?$basic_filebuf@DU?$char_traits@D@std@@@std@@8 1004f910     libcpmt:cerr.obj
 0002:0000e91c       ??_R1A@?0A@EA@?$basic_filebuf@DU?$char_traits@D@std@@@std@@8 1004f91c     libcpmt:cerr.obj
 0002:0000e938       ??_R3codecvt_base@std@@8   1004f938     libcpmt:cerr.obj
 0002:0000e948       ??_R2codecvt_base@std@@8   1004f948     libcpmt:cerr.obj
 0002:0000e95c       ??_R1A@?0A@EA@codecvt_base@std@@8 1004f95c     libcpmt:cerr.obj
 0002:0000e978       ??_R3ctype_base@std@@8     1004f978     libcpmt:cerr.obj
 0002:0000e988       ??_R2ctype_base@std@@8     1004f988     libcpmt:cerr.obj
 0002:0000e99c       ??_R1A@?0A@EA@ctype_base@std@@8 1004f99c     libcpmt:cerr.obj
 0002:0000e9b8       ??_R4?$ctype@D@std@@6B@    1004f9b8     libcpmt:cerr.obj
 0002:0000e9cc       ??_R3?$ctype@D@std@@8      1004f9cc     libcpmt:cerr.obj
 0002:0000e9dc       ??_R2?$ctype@D@std@@8      1004f9dc     libcpmt:cerr.obj
 0002:0000e9f4       ??_R1A@?0A@EA@?$ctype@D@std@@8 1004f9f4     libcpmt:cerr.obj
 0002:0000ea10       ??_R4error_category@std@@6B@ 1004fa10     libcpmt:cerr.obj
 0002:0000ea24       ??_R3error_category@std@@8 1004fa24     libcpmt:cerr.obj
 0002:0000ea34       ??_R2error_category@std@@8 1004fa34     libcpmt:cerr.obj
 0002:0000ea3c       ??_R1A@?0A@EA@error_category@std@@8 1004fa3c     libcpmt:cerr.obj
 0002:0000ea58       ??_R4_System_error@std@@6B@ 1004fa58     libcpmt:cerr.obj
 0002:0000ea6c       ??_R3_System_error@std@@8  1004fa6c     libcpmt:cerr.obj
 0002:0000ea7c       ??_R2_System_error@std@@8  1004fa7c     libcpmt:cerr.obj
 0002:0000ea8c       ??_R1A@?0A@EA@_System_error@std@@8 1004fa8c     libcpmt:cerr.obj
 0002:0000eaa8       ??_R4system_error@std@@6B@ 1004faa8     libcpmt:cerr.obj
 0002:0000eabc       ??_R3system_error@std@@8   1004fabc     libcpmt:cerr.obj
 0002:0000eacc       ??_R2system_error@std@@8   1004facc     libcpmt:cerr.obj
 0002:0000eae0       ??_R1A@?0A@EA@system_error@std@@8 1004fae0     libcpmt:cerr.obj
 0002:0000eafc       ??_R3_Generic_error_category@std@@8 1004fafc     libcpmt:cerr.obj
 0002:0000eb0c       ??_R2_Generic_error_category@std@@8 1004fb0c     libcpmt:cerr.obj
 0002:0000eb18       ??_R1A@?0A@EA@_Generic_error_category@std@@8 1004fb18     libcpmt:cerr.obj
 0002:0000eb34       ??_R4_Iostream_error_category@std@@6B@ 1004fb34     libcpmt:cerr.obj
 0002:0000eb48       ??_R3_Iostream_error_category@std@@8 1004fb48     libcpmt:cerr.obj
 0002:0000eb58       ??_R2_Iostream_error_category@std@@8 1004fb58     libcpmt:cerr.obj
 0002:0000eb68       ??_R1A@?0A@EA@_Iostream_error_category@std@@8 1004fb68     libcpmt:cerr.obj
 0002:0000eb84       ??_R4failure@ios_base@std@@6B@ 1004fb84     libcpmt:cerr.obj
 0002:0000eb98       ??_R3failure@ios_base@std@@8 1004fb98     libcpmt:cerr.obj
 0002:0000eba8       ??_R2failure@ios_base@std@@8 1004fba8     libcpmt:cerr.obj
 0002:0000ebc0       ??_R1A@?0A@EA@failure@ios_base@std@@8 1004fbc0     libcpmt:cerr.obj
 0002:0000ebdc       ??_R4?$codecvt@DDU_Mbstatet@@@std@@6B@ 1004fbdc     libcpmt:cerr.obj
 0002:0000ebf0       ??_R3?$codecvt@DDU_Mbstatet@@@std@@8 1004fbf0     libcpmt:cerr.obj
 0002:0000ec00       ??_R2?$codecvt@DDU_Mbstatet@@@std@@8 1004fc00     libcpmt:cerr.obj
 0002:0000ec18       ??_R1A@?0A@EA@?$codecvt@DDU_Mbstatet@@@std@@8 1004fc18     libcpmt:cerr.obj
 0002:0000ec34       ??_R4?$num_put@DV?$ostreambuf_iterator@DU?$char_traits@D@std@@@std@@@std@@6B@ 1004fc34     libcpmt:locale.obj
 0002:0000ec48       ??_R3?$num_put@DV?$ostreambuf_iterator@DU?$char_traits@D@std@@@std@@@std@@8 1004fc48     libcpmt:locale.obj
 0002:0000ec58       ??_R2?$num_put@DV?$ostreambuf_iterator@DU?$char_traits@D@std@@@std@@@std@@8 1004fc58     libcpmt:locale.obj
 0002:0000ec6c       ??_R1A@?0A@EA@?$num_put@DV?$ostreambuf_iterator@DU?$char_traits@D@std@@@std@@@std@@8 1004fc6c     libcpmt:locale.obj
 0002:0000ec88       ??_R4?$numpunct@D@std@@6B@ 1004fc88     libcpmt:locale.obj
 0002:0000ec9c       ??_R3?$numpunct@D@std@@8   1004fc9c     libcpmt:locale.obj
 0002:0000ecac       ??_R2?$numpunct@D@std@@8   1004fcac     libcpmt:locale.obj
 0002:0000ecc0       ??_R1A@?0A@EA@?$numpunct@D@std@@8 1004fcc0     libcpmt:locale.obj
 0002:0000ecdc       ??_R4type_info@@6B@        1004fcdc     LIBCMT:std_type_info_static.obj
 0002:0000ecf0       ??_R3type_info@@8          1004fcf0     LIBCMT:std_type_info_static.obj
 0002:0000ed00       ??_R2type_info@@8          1004fd00     LIBCMT:std_type_info_static.obj
 0002:0000ed08       ??_R1A@?0A@EA@type_info@@8 1004fd08     LIBCMT:std_type_info_static.obj
 0002:0000ed24       ??_R4bad_array_new_length@std@@6B@ 1004fd24     LIBCMT:throw_bad_alloc.obj
 0002:0000ed38       ??_R3bad_array_new_length@std@@8 1004fd38     LIBCMT:throw_bad_alloc.obj
 0002:0000ed48       ??_R2bad_array_new_length@std@@8 1004fd48     LIBCMT:throw_bad_alloc.obj
 0002:0000ed58       ??_R1A@?0A@EA@bad_array_new_length@std@@8 1004fd58     LIBCMT:throw_bad_alloc.obj
 0002:0000ed74       ??_R4bad_exception@std@@6B@ 1004fd74     libvcruntime:frame.obj
 0002:0000ed88       ??_R3bad_exception@std@@8  1004fd88     libvcruntime:frame.obj
 0002:0000ed98       ??_R2bad_exception@std@@8  1004fd98     libvcruntime:frame.obj
 0002:0000eda4       ??_R1A@?0A@EA@bad_exception@std@@8 1004fda4     libvcruntime:frame.obj
 0002:0000edc0       ___safe_se_handler_table   1004fdc0     <linker-defined>
 0002:0000f3e4       ___rtc_iaa                 100503e4     LIBCMT:_initsect_.obj
 0002:0000f3e8       ___rtc_izz                 100503e8     LIBCMT:_initsect_.obj
 0002:0000f3ec       ___rtc_taa                 100503ec     LIBCMT:_initsect_.obj
 0002:0000f3f0       ___rtc_tzz                 100503f0     LIBCMT:_initsect_.obj
 0002:0001098c       __TI2?AVbad_alloc@std@@    1005198c     libcpmt:xthrow.obj
 0002:0001099c       __CTA2?AVbad_alloc@std@@   1005199c     libcpmt:xthrow.obj
 0002:000109a8       __CT??_R0?AVbad_alloc@std@@@8??0bad_alloc@std@@QAE@ABV01@@Z12 100519a8     libcpmt:xthrow.obj
 0002:000109c4       __CT??_R0?AVexception@std@@@8??0exception@std@@QAE@ABV01@@Z12 100519c4     libcpmt:xthrow.obj
 0002:000109e0       __CT??_R0?AVlogic_error@std@@@8??0logic_error@std@@QAE@ABV01@@Z12 100519e0     libcpmt:xthrow.obj
 0002:000109fc       __TI3?AVlength_error@std@@ 100519fc     libcpmt:xthrow.obj
 0002:00010a0c       __CTA3?AVlength_error@std@@ 10051a0c     libcpmt:xthrow.obj
 0002:00010a1c       __CT??_R0?AVlength_error@std@@@8??0length_error@std@@QAE@ABV01@@Z12 10051a1c     libcpmt:xthrow.obj
 0002:00010a38       __TI3?AVout_of_range@std@@ 10051a38     libcpmt:xthrow.obj
 0002:00010a48       __CTA3?AVout_of_range@std@@ 10051a48     libcpmt:xthrow.obj
 0002:00010a58       __CT??_R0?AVout_of_range@std@@@8??0out_of_range@std@@QAE@ABV01@@Z12 10051a58     libcpmt:xthrow.obj
 0002:00010af4       __TI3?AVbad_array_new_length@std@@ 10051af4     LIBCMT:throw_bad_alloc.obj
 0002:00010b04       __CTA3?AVbad_array_new_length@std@@ 10051b04     LIBCMT:throw_bad_alloc.obj
 0002:00010b14       __CT??_R0?AVbad_array_new_length@std@@@8??0bad_array_new_length@std@@QAE@ABV01@@Z12 10051b14     LIBCMT:throw_bad_alloc.obj
 0002:00010c34       __TI2?AVbad_exception@std@@ 10051c34     libvcruntime:frame.obj
 0002:00010c44       __CTA2?AVbad_exception@std@@ 10051c44     libvcruntime:frame.obj
 0002:00010c50       __CT??_R0?AVbad_exception@std@@@8??0bad_exception@std@@QAE@ABV01@@Z12 10051c50     libvcruntime:frame.obj
 0002:0001123c       __DELAY_IMPORT_DESCRIPTOR_node_exe 1005223c     node:node.exe
 0002:0001125c       __NULL_DELAY_IMPORT_DESCRIPTOR 1005225c     node:node.exe
 0002:000112f8       \177node_NULL_THUNK_DATA_DLN 100522f8     node:node.exe
 0002:00011a74       \177node_NULL_THUNK_DATA_DLB 10052a74     node:node.exe
 0002:00011b48       __IMPORT_DESCRIPTOR_KERNEL32 10052b48     kernel32:KERNEL32.dll
 0002:00011b5c       __NULL_IMPORT_DESCRIPTOR   10052b5c     kernel32:KERNEL32.dll
 0003:00000004       ?_Sync@ios_base@std@@0_NA  10054004     libcpmt:ios.obj
 0003:00000010       ?_PJP_CPP_Copyright@@3PADA 10054010     libcpmt:iosptrs.obj
 0003:00000064       __Init_global_epoch        10054064     LIBCMT:thread_safe_statics.obj
 0003:00000068       ___scrt_native_dllmain_reason 10054068     LIBCMT:utility.obj
 0003:0000006c       ___security_cookie_complement 1005406c     LIBCMT:gs_cookie.obj
 0003:00000070       ___security_cookie         10054070     LIBCMT:gs_cookie.obj
 0003:00000074       __fltused                  10054074     LIBCMT:fltused.obj
 0003:00000080       ___isa_enabled             10054080     LIBCMT:_cpu_disp_.obj
 0003:000000a0       __NLG_Destination          100540a0     libvcruntime:_exsup_.obj
 0003:000000b0       ___abort_behavior          100540b0     libucrt:abort.obj
 0003:000000c0       __iob                      100540c0     libucrt:_file.obj
 0003:00000168       ___acrt_lconv_static_decimal 10054168     libucrt:localeconv.obj
 0003:0000016c       ___acrt_lconv_static_W_decimal 1005416c     libucrt:localeconv.obj
 0003:00000170       ___acrt_lconv_c            10054170     libucrt:localeconv.obj
 0003:000001c0       ___acrt_lconv              100541c0     libucrt:localeconv.obj
 0003:000001cc       __pctype                   100541cc     libucrt:ctype.obj
 0003:000001d0       __pwctype                  100541d0     libucrt:ctype.obj
 0003:000001e0       ___badioinfo               100541e0     libucrt:ioinit.obj
 0003:00000218       ___mb_cur_max              10054218     libucrt:nlsdata.obj
 0003:00000220       ___acrt_initial_locale_data 10054220     libucrt:nlsdata.obj
 0003:000002d8       ___acrt_initial_locale_pointers 100542d8     libucrt:nlsdata.obj
 0003:000002e0       ___acrt_wide_c_locale_string 100542e0     libucrt:nlsdata.obj
 0003:00000388       ___globallocalestatus      10054388     libucrt:glstatus.obj
 0003:00000488       __mbctype                  10054488     libucrt:mbctype.obj
 0003:00000590       __mbcasemap                10054590     libucrt:mbctype.obj
 0003:00000690       ___acrt_initial_multibyte_data 10054690     libucrt:mbctype.obj
 0003:000008b0       ___acrt_current_multibyte_data 100548b0     libucrt:mbctype.obj
 0003:000008b8       __lookuptrailbytes         100548b8     libucrt:read.obj
 0003:000009c0       ___dcrt_lowio_console_output_handle 100549c0     libucrt:initcon.obj
 0003:00000a00       ??_R0?AV_Facet_base@std@@@8 10054a00     libcpmt:locale0.obj
 0003:00000a20       ??_R0?AV_Locimp@locale@std@@@8 10054a20     libcpmt:locale0.obj
 0003:00000a44       ??_R0?AVfacet@locale@std@@@8 10054a44     libcpmt:locale0.obj
 0003:00000a64       ??_R0?AU_Crt_new_delete@std@@@8 10054a64     libcpmt:locale0.obj
 0003:00000a88       ??_R0?AVbad_alloc@std@@@8  10054a88     libcpmt:xthrow.obj
 0003:00000aa4       ??_R0?AVexception@std@@@8  10054aa4     libcpmt:xthrow.obj
 0003:00000ac0       ??_R0?AVlogic_error@std@@@8 10054ac0     libcpmt:xthrow.obj
 0003:00000ae0       ??_R0?AVlength_error@std@@@8 10054ae0     libcpmt:xthrow.obj
 0003:00000b00       ??_R0?AVout_of_range@std@@@8 10054b00     libcpmt:xthrow.obj
 0003:00000b20       ??_R0?AVruntime_error@std@@@8 10054b20     libcpmt:xthrow.obj
 0003:00000b40       ??_R0?AVfailure@ios_base@std@@@8 10054b40     libcpmt:cerr.obj
 0003:00000b64       ??_R0?AVsystem_error@std@@@8 10054b64     libcpmt:cerr.obj
 0003:00000b84       ??_R0?AV_System_error@std@@@8 10054b84     libcpmt:cerr.obj
 0003:00000ba4       ??_R0?AVios_base@std@@@8   10054ba4     libcpmt:cerr.obj
 0003:00000bc0       ??_R0?AV?$_Iosb@H@std@@@8  10054bc0     libcpmt:cerr.obj
 0003:00000bdc       ??_R0?AV?$basic_ios@DU?$char_traits@D@std@@@std@@@8 10054bdc     libcpmt:cerr.obj
 0003:00000c14       ??_R0?AV?$basic_streambuf@DU?$char_traits@D@std@@@std@@@8 10054c14     libcpmt:cerr.obj
 0003:00000c50       ??_R0?AV?$basic_ostream@DU?$char_traits@D@std@@@std@@@8 10054c50     libcpmt:cerr.obj
 0003:00000c8c       ??_R0?AV?$basic_filebuf@DU?$char_traits@D@std@@@std@@@8 10054c8c     libcpmt:cerr.obj
 0003:00000cc8       ??_R0?AVcodecvt_base@std@@@8 10054cc8     libcpmt:cerr.obj
 0003:00000ce8       ??_R0?AUctype_base@std@@@8 10054ce8     libcpmt:cerr.obj
 0003:00000d08       ??_R0?AV?$ctype@D@std@@@8  10054d08     libcpmt:cerr.obj
 0003:00000d24       ??_R0?AVerror_category@std@@@8 10054d24     libcpmt:cerr.obj
 0003:00000d48       ??_R0?AV_Generic_error_category@std@@@8 10054d48     libcpmt:cerr.obj
 0003:00000d74       ??_R0?AV_Iostream_error_category@std@@@8 10054d74     libcpmt:cerr.obj
 0003:00000da0       ??_R0?AV?$codecvt@DDU_Mbstatet@@@std@@@8 10054da0     libcpmt:cerr.obj
 0003:00000dd0       ??_R0?AV?$num_put@DV?$ostreambuf_iterator@DU?$char_traits@D@std@@@std@@@std@@@8 10054dd0     libcpmt:locale.obj
 0003:00000e24       ??_R0?AV?$numpunct@D@std@@@8 10054e24     libcpmt:locale.obj
 0003:00000e44       ??_R0?AVtype_info@@@8      10054e44     LIBCMT:std_type_info_static.obj
 0003:00000e5c       ??_R0?AVbad_array_new_length@std@@@8 10054e5c     LIBCMT:throw_bad_alloc.obj
 0003:00000e84       ??_R0?AVbad_exception@std@@@8 10054e84     libvcruntime:frame.obj
 0003:00000ea4       __imp_?Value@External@v8@@QBEPAXXZ 10054ea4     node:node.exe
 0003:00000ea8       __imp_?New@External@v8@@SA?AV?$Local@VExternal@v8@@@2@PAVIsolate@2@PAX@Z 10054ea8     node:node.exe
 0003:00000eac       __imp_?GetCurrentContext@Isolate@v8@@QAE?AV?$Local@VContext@v8@@@2@XZ 10054eac     node:node.exe
 0003:00000eb0       __imp_?GetCurrent@Isolate@v8@@SAPAV12@XZ 10054eb0     node:node.exe
 0003:00000eb4       __imp_?CreateHandle@HandleScope@v8@@KAPAPAVObject@internal@2@PAVIsolate@42@PAV342@@Z 10054eb4     node:node.exe
 0003:00000eb8       __imp_?CreateHandle@HandleScope@v8@@CAPAPAVObject@internal@2@PAVHeapObject@42@PAV342@@Z 10054eb8     node:node.exe
 0003:00000ebc       __imp_??1HandleScope@v8@@QAE@XZ 10054ebc     node:node.exe
 0003:00000ec0       __imp_?GetFunction@FunctionTemplate@v8@@QAE?AV?$Local@VFunction@v8@@@2@XZ 10054ec0     node:node.exe
 0003:00000ec4       __imp_?New@FunctionTemplate@v8@@SA?AV?$Local@VFunctionTemplate@v8@@@2@PAVIsolate@2@P6AXABV?$FunctionCallbackInfo@VValue@v8@@@2@@ZV?$Local@VValue@v8@@@2@V?$Local@VSignature@v8@@@2@H@Z 10054ec4     node:node.exe
 0003:00000ec8       __imp_?ToLocalEmpty@V8@v8@@CAXXZ 10054ec8     node:node.exe
 0003:00000ecc       __imp_?Escape@EscapableHandleScope@v8@@AAEPAPAVObject@internal@2@PAPAV342@@Z 10054ecc     node:node.exe
 0003:00000ed0       __imp_??0EscapableHandleScope@v8@@QAE@PAVIsolate@1@@Z 10054ed0     node:node.exe
 0003:00000ed4       __imp_?NewFromUtf8@String@v8@@SA?AV?$MaybeLocal@VString@v8@@@2@PAVIsolate@2@PBDW4NewStringType@2@H@Z 10054ed4     node:node.exe
 0003:00000ed8       __imp_?SlowGetInternalField@Object@v8@@AAE?AV?$Local@VValue@v8@@@2@H@Z 10054ed8     node:node.exe
 0003:00000edc       __imp_?SetInternalField@Object@v8@@QAEXHV?$Local@VValue@v8@@@2@@Z 10054edc     node:node.exe
 0003:00000ee0       __imp_?Set@Object@v8@@QAE_NV?$Local@VValue@v8@@@2@0@Z 10054ee0     node:node.exe
 0003:00000ee4       __imp_?SetInternalFieldCount@ObjectTemplate@v8@@QAEXH@Z 10054ee4     node:node.exe
 0003:00000ee8       __imp_?NewInstance@ObjectTemplate@v8@@QAE?AV?$MaybeLocal@VObject@v8@@@2@V?$Local@VContext@v8@@@2@@Z 10054ee8     node:node.exe
 0003:00000eec       __imp_?New@ObjectTemplate@v8@@SA?AV?$Local@VObjectTemplate@v8@@@2@PAVIsolate@2@V?$Local@VFunctionTemplate@v8@@@2@@Z 10054eec     node:node.exe
 0003:00000ef0       __imp__node_module_register 10054ef0     node:node.exe
 0003:00000ef4       __imp_??1EscapableHandleScope@v8@@QAE@XZ 10054ef4     node:node.exe
 0003:00000ef8       __imp_?New@Array@v8@@SA?AV?$Local@VArray@v8@@@2@PAVIsolate@2@H@Z 10054ef8     node:node.exe
 0003:00000efc       __imp_?Int32Value@Value@v8@@QBEHXZ 10054efc     node:node.exe
 0003:00000f00       __imp_?IntegerValue@Value@v8@@QBE_JXZ 10054f00     node:node.exe
 0003:00000f04       __imp_??1Utf8Value@String@v8@@QAE@XZ 10054f04     node:node.exe
 0003:00000f08       __imp_??0Utf8Value@String@v8@@QAE@V?$Local@VValue@v8@@@2@@Z 10054f08     node:node.exe
 0003:00000f0c       __imp_?New@Number@v8@@SA?AV?$Local@VNumber@v8@@@2@PAVIsolate@2@N@Z 10054f0c     node:node.exe
 0003:00000f10       __imp_?New@Object@v8@@SA?AV?$Local@VObject@v8@@@2@PAVIsolate@2@@Z 10054f10     node:node.exe
 0003:00000f14       __imp_?Set@Object@v8@@QAE_NIV?$Local@VValue@v8@@@2@@Z 10054f14     node:node.exe
 0003:00000f18       __imp_?ToString@Value@v8@@QBE?AV?$Local@VString@v8@@@2@XZ 10054f18     node:node.exe
 0003:00000f1c       __imp_?ToBoolean@Value@v8@@QBE?AV?$Local@VBoolean@v8@@@2@XZ 10054f1c     node:node.exe
 0003:00000f20       \177node_NULL_THUNK_DATA_DLA 10054f20     node:node.exe
 0003:00000f28       __hmod__node_exe           10054f28     node:node.exe
 0003:00000ff8       ?_Id_cnt@id@locale@std@@0HA 10054ff8     libcpmt:locale0.obj
 0003:00000ffc       ?_Clocptr@_Locimp@locale@std@@0PAV123@A 10054ffc     libcpmt:locale0.obj
 0003:00001008       ?id@?$ctype@G@std@@2V0locale@2@A 10055008     libcpmt:locale0.obj
 0003:0000100c       ?id@?$codecvt@_WDU_Mbstatet@@@std@@2V0locale@2@A 1005500c     libcpmt:locale0.obj
 0003:00001010       ?id@?$codecvt@GDU_Mbstatet@@@std@@2V0locale@2@A 10055010     libcpmt:locale0.obj
 0003:00001014       ?id@?$ctype@_W@std@@2V0locale@2@A 10055014     libcpmt:locale0.obj
 0003:00001018       ?id@?$ctype@D@std@@2V0locale@2@A 10055018     libcpmt:locale0.obj
 0003:00001028       ?_Index@ios_base@std@@0HA  10055028     libcpmt:ios.obj
 0003:00001068       ?cerr@std@@3V?$basic_ostream@DU?$char_traits@D@std@@@1@A 10055068     libcpmt:cerr.obj
 0003:00001110       ?_Raise_handler@std@@3P6AXABVexception@stdext@@@ZA 10055110     libcpmt:raisehan.obj
 0003:00001114       ?_Ptr_cin@std@@3PAV?$basic_istream@DU?$char_traits@D@std@@@1@A 10055114     libcpmt:iosptrs.obj
 0003:00001118       ?_Ptr_cout@std@@3PAV?$basic_ostream@DU?$char_traits@D@std@@@1@A 10055118     libcpmt:iosptrs.obj
 0003:0000111c       ?_Ptr_cerr@std@@3PAV?$basic_ostream@DU?$char_traits@D@std@@@1@A 1005511c     libcpmt:iosptrs.obj
 0003:00001120       ?_Ptr_clog@std@@3PAV?$basic_ostream@DU?$char_traits@D@std@@@1@A 10055120     libcpmt:iosptrs.obj
 0003:00001124       ?_Ptr_wcin@std@@3PAV?$basic_istream@_WU?$char_traits@_W@std@@@1@A 10055124     libcpmt:iosptrs.obj
 0003:00001128       ?_Ptr_wcout@std@@3PAV?$basic_ostream@_WU?$char_traits@_W@std@@@1@A 10055128     libcpmt:iosptrs.obj
 0003:0000112c       ?_Ptr_wcerr@std@@3PAV?$basic_ostream@_WU?$char_traits@_W@std@@@1@A 1005512c     libcpmt:iosptrs.obj
 0003:00001130       ?_Ptr_wclog@std@@3PAV?$basic_ostream@_WU?$char_traits@_W@std@@@1@A 10055130     libcpmt:iosptrs.obj
 0003:00001160       ?id@?$num_get@DV?$istreambuf_iterator@DU?$char_traits@D@std@@@std@@@std@@2V0locale@2@A 10055160     libcpmt:locale.obj
 0003:00001168       ___encodedKERNEL32Functions 10055168     libcpmt:winapisupp.obj
 0003:00001208       ?id@?$time_put@_WV?$ostreambuf_iterator@_WU?$char_traits@_W@std@@@std@@@std@@2V0locale@2@A 10055208     libcpmt:wlocale.obj
 0003:0000120c       ?id@?$num_get@_WV?$istreambuf_iterator@_WU?$char_traits@_W@std@@@std@@@std@@2V0locale@2@A 1005520c     libcpmt:wlocale.obj
 0003:00001210       ?id@?$num_put@_WV?$ostreambuf_iterator@_WU?$char_traits@_W@std@@@std@@@std@@2V0locale@2@A 10055210     libcpmt:wlocale.obj
 0003:00001214       ?id@?$numpunct@_W@std@@2V0locale@2@A 10055214     libcpmt:wlocale.obj
 0003:00001218       ?id@?$collate@_W@std@@2V0locale@2@A 10055218     libcpmt:wlocale.obj
 0003:0000121c       ?id@?$messages@_W@std@@2V0locale@2@A 1005521c     libcpmt:wlocale.obj
 0003:00001220       ?id@?$money_get@_WV?$istreambuf_iterator@_WU?$char_traits@_W@std@@@std@@@std@@2V0locale@2@A 10055220     libcpmt:wlocale.obj
 0003:00001224       ?id@?$money_put@_WV?$ostreambuf_iterator@_WU?$char_traits@_W@std@@@std@@@std@@2V0locale@2@A 10055224     libcpmt:wlocale.obj
 0003:00001228       ?id@?$moneypunct@_W$0A@@std@@2V0locale@2@A 10055228     libcpmt:wlocale.obj
 0003:0000122c       ?id@?$moneypunct@_W$00@std@@2V0locale@2@A 1005522c     libcpmt:wlocale.obj
 0003:00001230       ?id@?$time_get@_WV?$istreambuf_iterator@_WU?$char_traits@_W@std@@@std@@@std@@2V0locale@2@A 10055230     libcpmt:wlocale.obj
 0003:00001234       ?id@?$num_get@GV?$istreambuf_iterator@GU?$char_traits@G@std@@@std@@@std@@2V0locale@2@A 10055234     libcpmt:wlocale.obj
 0003:00001238       ?id@?$num_put@GV?$ostreambuf_iterator@GU?$char_traits@G@std@@@std@@@std@@2V0locale@2@A 10055238     libcpmt:wlocale.obj
 0003:0000123c       ?id@?$numpunct@G@std@@2V0locale@2@A 1005523c     libcpmt:wlocale.obj
 0003:00001240       ?id@?$collate@G@std@@2V0locale@2@A 10055240     libcpmt:wlocale.obj
 0003:00001244       ?id@?$messages@G@std@@2V0locale@2@A 10055244     libcpmt:wlocale.obj
 0003:00001248       ?id@?$money_get@GV?$istreambuf_iterator@GU?$char_traits@G@std@@@std@@@std@@2V0locale@2@A 10055248     libcpmt:wlocale.obj
 0003:0000124c       ?id@?$money_put@GV?$ostreambuf_iterator@GU?$char_traits@G@std@@@std@@@std@@2V0locale@2@A 1005524c     libcpmt:wlocale.obj
 0003:00001250       ?id@?$moneypunct@G$0A@@std@@2V0locale@2@A 10055250     libcpmt:wlocale.obj
 0003:00001254       ?id@?$moneypunct@G$00@std@@2V0locale@2@A 10055254     libcpmt:wlocale.obj
 0003:00001258       ?id@?$time_get@GV?$istreambuf_iterator@GU?$char_traits@G@std@@@std@@@std@@2V0locale@2@A 10055258     libcpmt:wlocale.obj
 0003:0000125c       ?id@?$time_put@GV?$ostreambuf_iterator@GU?$char_traits@G@std@@@std@@@std@@2V0locale@2@A 1005525c     libcpmt:wlocale.obj
 0003:00001260       ?id@?$collate@D@std@@2V0locale@2@A 10055260     libcpmt:xlocale.obj
 0003:00001264       ?id@?$messages@D@std@@2V0locale@2@A 10055264     libcpmt:xlocale.obj
 0003:00001268       ?id@?$money_get@DV?$istreambuf_iterator@DU?$char_traits@D@std@@@std@@@std@@2V0locale@2@A 10055268     libcpmt:xlocale.obj
 0003:0000126c       ?id@?$money_put@DV?$ostreambuf_iterator@DU?$char_traits@D@std@@@std@@@std@@2V0locale@2@A 1005526c     libcpmt:xlocale.obj
 0003:00001270       ?id@?$moneypunct@D$0A@@std@@2V0locale@2@A 10055270     libcpmt:xlocale.obj
 0003:00001274       ?id@?$moneypunct@D$00@std@@2V0locale@2@A 10055274     libcpmt:xlocale.obj
 0003:00001278       ?id@?$time_get@DV?$istreambuf_iterator@DU?$char_traits@D@std@@@std@@@std@@2V0locale@2@A 10055278     libcpmt:xlocale.obj
 0003:0000127c       ?id@?$time_put@DV?$ostreambuf_iterator@DU?$char_traits@D@std@@@std@@@std@@2V0locale@2@A 1005527c     libcpmt:xlocale.obj
 0003:000012a8       ___scrt_current_native_startup_state 100552a8     LIBCMT:utility.obj
 0003:000012ac       ___scrt_native_startup_lock 100552ac     LIBCMT:utility.obj
 0003:000015ec       ___scrt_debugger_hook_flag 100555ec     LIBCMT:utility_desktop.obj
 0003:000015f0       __tls_index                100555f0     LIBCMT:tlssup.obj
 0003:000015f4       ___isa_available           100555f4     LIBCMT:_cpu_disp_.obj
 0003:000015f8       ___favor                   100555f8     LIBCMT:_cpu_disp_.obj
 0003:00001600       ?__type_info_root_node@@3U__type_info_node@@A 10055600     LIBCMT:tncleanup.obj
 0003:00001608       ?_OptionsStorage@?1??__local_stdio_scanf_options@@9@4_KA 10055608     LIBCMT:default_local_stdio_options.obj
 0003:00001610       ?g_OutOfMemoryExceptionCallback@@3P6GPAXXZA 10055610     libvcruntime:frame.obj
 0003:00001670       ___pPurecall               10055670     libvcruntime:purevirt_data.obj
 0003:00001690       ?pArgList@UnDecorator@@0PAVReplicator@@A 10055690     libvcruntime:undname.obj
 0003:00001694       ?pZNameList@UnDecorator@@0PAVReplicator@@A 10055694     libvcruntime:undname.obj
 0003:00001698       ?pTemplateArgList@UnDecorator@@0PAVReplicator@@A 10055698     libvcruntime:undname.obj
 0003:0000169c       ?gName@UnDecorator@@0PBDB  1005569c     libvcruntime:undname.obj
 0003:000016a0       ?name@UnDecorator@@0PBDB   100556a0     libvcruntime:undname.obj
 0003:000016a4       ?outputString@UnDecorator@@0PADA 100556a4     libvcruntime:undname.obj
 0003:000016a8       ?maxStringLength@UnDecorator@@0HA 100556a8     libvcruntime:undname.obj
 0003:000016ac       ?disableFlags@UnDecorator@@0KA 100556ac     libvcruntime:undname.obj
 0003:000016b0       ?fExplicitTemplateParams@UnDecorator@@0_NA 100556b0     libvcruntime:undname.obj
 0003:000016b1       ?fGetTemplateArgumentList@UnDecorator@@0_NA 100556b1     libvcruntime:undname.obj
 0003:000016b4       ?m_pGetParameter@UnDecorator@@0P6APADJ@ZA 100556b4     libvcruntime:undname.obj
 0003:000016d0       __nstream                  100556d0     libucrt:_file.obj
 0003:000016d4       ___piob                    100556d4     libucrt:_file.obj
 0003:000016d8       __cflush                   100556d8     libucrt:_file.obj
 0003:000016dc       ___acrt_lconv_static_null  100556dc     libucrt:localeconv.obj
 0003:000016e0       ___acrt_lconv_static_W_null 100556e0     libucrt:localeconv.obj
 0003:00001940       __environ_table            10055940     libucrt:environment_initialization.obj
 0003:00001944       __wenviron_table           10055944     libucrt:environment_initialization.obj
 0003:00001948       ___dcrt_initial_wide_environment 10055948     libucrt:environment_initialization.obj
 0003:0000194c       ___dcrt_initial_narrow_environment 1005594c     libucrt:environment_initialization.obj
 0003:00001950       ___acrt_atexit_table       10055950     libucrt:onexit.obj
 0003:0000195c       ___acrt_at_quick_exit_table 1005595c     libucrt:onexit.obj
 0003:00001978       ___pioinfo                 10055978     libucrt:ioinit.obj
 0003:00001b78       __nhandle                  10055b78     libucrt:ioinit.obj
 0003:00001b7c       ___acrt_locale_changed_data 10055b7c     libucrt:wsetlocale.obj
 0003:00001b80       ___acrt_current_locale_data 10055b80     libucrt:nlsdata.obj
 0003:00001b88       ___acrt_stdout_buffer      10055b88     libucrt:_sftbuf.obj
 0003:00001b8c       ___acrt_stderr_buffer      10055b8c     libucrt:_sftbuf.obj
 0003:00001c68       ?_timezone@@3V?$dual_state_global@J@__crt_state_management@@A 10055c68     libucrt:timeset.obj
 0003:00001c6c       ?_daylight@@3V?$dual_state_global@H@__crt_state_management@@A 10055c6c     libucrt:timeset.obj
 0003:00001c70       ?_dstbias@@3V?$dual_state_global@J@__crt_state_management@@A 10055c70     libucrt:timeset.obj
 0003:00001d44       ___acrt_heap               10055d44     libucrt:heap_handle.obj
 0003:00001d48       ___fastflag                10055d48     libucrt:fp_flags.obj
 0003:00001d4c       ___mblocalename            10055d4c     libucrt:mbctype.obj
 0003:00001d50       ___mbcodepage              10055d50     libucrt:mbctype.obj
 0003:00001d54       ___ismbcodepage            10055d54     libucrt:mbctype.obj
 0003:00001d58       ___mbulinfo                10055d58     libucrt:mbctype.obj
 0003:00001d6c       ___argc                    10055d6c     libucrt:argv_data.obj
 0003:00001d70       ___argv                    10055d70     libucrt:argv_data.obj
 0003:00001d74       ___wargv                   10055d74     libucrt:argv_data.obj
 0003:00001d78       __acmdln                   10055d78     libucrt:argv_data.obj
 0003:00001d7c       __wcmdln                   10055d7c     libucrt:argv_data.obj
 0003:00001d80       __pgmptr                   10055d80     libucrt:argv_data.obj
 0003:00001d88       __commode                  10055d88     libucrt:ncommode.obj
 0003:00001d90       __umaskval                 10055d90     libucrt:umask.obj
 0003:00001d94       __fmode                    10055d94     libucrt:txtmode.obj
 0003:00001d98       ?DloadKernel32@@3PAUHINSTANCE__@@A 10055d98     DelayImp:delayhlp.obj
 0003:00001d9c       ?DloadAcquireSRWLockExclusive@@3P6GXPAK@ZA 10055d9c     DelayImp:delayhlp.obj
 0003:00001da0       ?DloadReleaseSRWLockExclusive@@3P6GXPAK@ZA 10055da0     DelayImp:delayhlp.obj
 0003:00001da4       ?DloadSrwLock@@3KA         10055da4     DelayImp:delayhlp.obj
 0003:00001da8       ?DloadSectionLockCount@@3KA 10055da8     DelayImp:delayhlp.obj
 0003:00001dac       ?DloadSectionOldProtection@@3KA 10055dac     DelayImp:delayhlp.obj
 0003:00001db0       ?DloadSectionCommitPermanent@@3KA 10055db0     DelayImp:delayhlp.obj
 0003:00001db4       ?global_extractor_handle@@3PAVKeywordExtractor@cppjieba@@A 10055db4     nodejieba.obj
 0003:00001db8       ?global_jieba_handle@@3PAVJieba@cppjieba@@A 10055db8     nodejieba.obj
 0003:00001dbc       ?_Psave@?$_Facetptr@V?$numpunct@D@std@@@std@@2PBVfacet@locale@2@B 10055dbc     nodejieba.obj
 0003:00001dc0       ?_Psave@?$_Facetptr@V?$num_put@DV?$ostreambuf_iterator@DU?$char_traits@D@std@@@std@@@std@@@std@@2PBVfacet@locale@2@B 10055dc0     nodejieba.obj
 0003:00001dc4       ?_Psave@?$_Facetptr@V?$ctype@D@std@@@std@@2PBVfacet@locale@2@B 10055dc4     nodejieba.obj
 0003:00001dc8       ?_Psave@?$_Facetptr@V?$codecvt@DDU_Mbstatet@@@std@@@std@@2PBVfacet@locale@2@B 10055dc8     nodejieba.obj
 0003:00001dcc       ?_Stinit@?1??_Init@?$basic_filebuf@DU?$char_traits@D@std@@@std@@IAEXPAU_iobuf@@W4_Initfl@23@@Z@4U_Mbstatet@@A 10055dcc     nodejieba.obj
 0003:00001dd4       ?id@?$num_put@DV?$ostreambuf_iterator@DU?$char_traits@D@std@@@std@@@std@@2V0locale@2@A 10055dd4     nodejieba.obj
 0003:00001dd8       ?id@?$codecvt@DDU_Mbstatet@@@std@@2V0locale@2@A 10055dd8     nodejieba.obj
 0003:00001ddc       ?_Static@?1???$_Immortalize@V_Iostream_error_category@std@@@std@@YAAAV_Iostream_error_category@1@XZ@4U?$_Immortalizer@V_Iostream_error_category@std@@@1@A 10055ddc     nodejieba.obj
 0003:00001de8       ?_OptionsStorage@?1??__local_stdio_printf_options@@9@4_KA 10055de8     nodejieba.obj
 0003:00001df0       ?$TSS0@?1???$_Immortalize@V_Iostream_error_category@std@@@std@@YAAAV_Iostream_error_category@1@XZ@4HA 10055df0     nodejieba.obj
 0003:00001df4       ?id@?$numpunct@D@std@@2V0locale@2@A 10055df4     nodejieba.obj
 0003:00001df8       ___dyn_tls_init_callback   10055df8     <common>
 0003:00001dfc       ___scrt_ucrt_dll_is_in_use 10055dfc     <common>
 0003:00001e00       __pmatherr                 10055e00     <common>
 0003:00001e04       ___use_sse2_mathfcns       10055e04     <common>
 0005:00000000       __tls_start                10057000     LIBCMT:tlssup.obj
 0005:00000004       __Init_thread_epoch        10057004     LIBCMT:thread_safe_statics.obj
 0005:00000008       __tls_end                  10057008     LIBCMT:tlssup.obj

 entry point at        0001:0001a3e2

 Static symbols

 0000:fffa3000       .debug$S                   10000000     kernel32:KERNEL32.dll
 0000:fffa3000       .debug$S                   10000000     nodejieba.exp
 0000:fffa3000       .debug$S                   10000000     kernel32:KERNEL32.dll
 0000:fffa3000       .debug$S                   10000000     kernel32:KERNEL32.dll
 0000:fffa3000       .debug$S                   10000000     kernel32:KERNEL32.dll
 0000:fffa3000       .debug$S                   10000000     kernel32:KERNEL32.dll
 0000:fffa3000       .debug$S                   10000000     kernel32:KERNEL32.dll
 0000:fffa3000       .debug$S                   10000000     kernel32:KERNEL32.dll
 0000:fffa3000       .debug$S                   10000000     kernel32:KERNEL32.dll
 0000:fffa3000       .debug$S                   10000000     kernel32:KERNEL32.dll
 0000:fffa3000       .debug$S                   10000000     kernel32:KERNEL32.dll
 0000:fffa3000       .debug$S                   10000000     kernel32:KERNEL32.dll
 0000:fffa3000       .debug$S                   10000000     kernel32:KERNEL32.dll
 0000:fffa3000       .debug$S                   10000000     kernel32:KERNEL32.dll
 0000:fffa3000       .debug$S                   10000000     kernel32:KERNEL32.dll
 0000:fffa3000       .debug$S                   10000000     kernel32:KERNEL32.dll
 0000:fffa3000       .debug$S                   10000000     kernel32:KERNEL32.dll
 0000:fffa3000       .debug$S                   10000000     kernel32:KERNEL32.dll
 0000:fffa3000       .debug$S                   10000000     kernel32:KERNEL32.dll
 0000:fffa3000       .debug$S                   10000000     kernel32:KERNEL32.dll
 0000:fffa3000       .debug$S                   10000000     kernel32:KERNEL32.dll
 0000:fffa3000       .debug$S                   10000000     kernel32:KERNEL32.dll
 0000:fffa3000       .debug$S                   10000000     kernel32:KERNEL32.dll
 0000:fffa3000       .debug$S                   10000000     kernel32:KERNEL32.dll
 0000:fffa3000       .debug$S                   10000000     kernel32:KERNEL32.dll
 0000:fffa3000       .debug$S                   10000000     kernel32:KERNEL32.dll
 0000:fffa3000       .debug$S                   10000000     kernel32:KERNEL32.dll
 0000:fffa3000       .debug$S                   10000000     kernel32:KERNEL32.dll
 0000:fffa3000       .debug$S                   10000000     kernel32:KERNEL32.dll
 0000:fffa3000       .debug$S                   10000000     kernel32:KERNEL32.dll
 0000:fffa3000       .debug$S                   10000000     kernel32:KERNEL32.dll
 0000:fffa3000       .debug$S                   10000000     kernel32:KERNEL32.dll
 0000:fffa3000       .debug$S                   10000000     kernel32:KERNEL32.dll
 0000:fffa3000       .debug$S                   10000000     kernel32:KERNEL32.dll
 0000:fffa3000       .debug$S                   10000000     kernel32:KERNEL32.dll
 0000:fffa3000       .debug$S                   10000000     kernel32:KERNEL32.dll
 0000:fffa3000       .debug$S                   10000000     kernel32:KERNEL32.dll
 0000:fffa3000       .debug$S                   10000000     kernel32:KERNEL32.dll
 0000:fffa3000       .debug$S                   10000000     kernel32:KERNEL32.dll
 0000:fffa3000       .debug$S                   10000000     kernel32:KERNEL32.dll
 0000:fffa3000       .debug$S                   10000000     kernel32:KERNEL32.dll
 0000:fffa3000       .debug$S                   10000000     kernel32:KERNEL32.dll
 0000:fffa3000       .debug$S                   10000000     kernel32:KERNEL32.dll
 0000:fffa3000       .debug$S                   10000000     kernel32:KERNEL32.dll
 0000:fffa3000       .debug$S                   10000000     kernel32:KERNEL32.dll
 0000:fffa3000       .debug$S                   10000000     kernel32:KERNEL32.dll
 0000:fffa3000       .debug$S                   10000000     kernel32:KERNEL32.dll
 0000:fffa3000       .debug$S                   10000000     kernel32:KERNEL32.dll
 0000:fffa3000       .debug$S                   10000000     kernel32:KERNEL32.dll
 0000:fffa3000       .debug$S                   10000000     kernel32:KERNEL32.dll
 0000:fffa3000       .debug$S                   10000000     kernel32:KERNEL32.dll
 0000:fffa3000       .debug$S                   10000000     kernel32:KERNEL32.dll
 0000:fffa3000       .debug$S                   10000000     kernel32:KERNEL32.dll
 0000:fffa3000       .debug$S                   10000000     kernel32:KERNEL32.dll
 0000:fffa3000       .debug$S                   10000000     kernel32:KERNEL32.dll
 0000:fffa3000       .debug$S                   10000000     kernel32:KERNEL32.dll
 0000:fffa3000       .debug$S                   10000000     kernel32:KERNEL32.dll
 0000:fffa3000       .debug$S                   10000000     kernel32:KERNEL32.dll
 0000:fffa3000       .debug$S                   10000000     kernel32:KERNEL32.dll
 0000:fffa3000       .debug$S                   10000000     kernel32:KERNEL32.dll
 0000:fffa3000       .debug$S                   10000000     kernel32:KERNEL32.dll
 0000:fffa3000       .debug$S                   10000000     kernel32:KERNEL32.dll
 0000:fffa3000       .debug$S                   10000000     kernel32:KERNEL32.dll
 0000:fffa3000       .debug$S                   10000000     kernel32:KERNEL32.dll
 0000:fffa3000       .debug$S                   10000000     kernel32:KERNEL32.dll
 0000:fffa3000       .debug$S                   10000000     kernel32:KERNEL32.dll
 0000:fffa3000       .debug$S                   10000000     kernel32:KERNEL32.dll
 0000:fffa3000       .debug$S                   10000000     kernel32:KERNEL32.dll
 0000:fffa3000       .debug$S                   10000000     kernel32:KERNEL32.dll
 0000:fffa3000       .debug$S                   10000000     kernel32:KERNEL32.dll
 0000:fffa3000       .debug$S                   10000000     kernel32:KERNEL32.dll
 0000:fffa3000       .debug$S                   10000000     kernel32:KERNEL32.dll
 0000:fffa3000       .debug$S                   10000000     kernel32:KERNEL32.dll
 0000:fffa3000       .debug$S                   10000000     kernel32:KERNEL32.dll
 0000:fffa3000       .debug$S                   10000000     kernel32:KERNEL32.dll
 0000:fffa3000       .debug$S                   10000000     kernel32:KERNEL32.dll
 0000:fffa3000       .debug$S                   10000000     node:node.exe
 0000:fffa3000       .debug$S                   10000000     node:node.exe
 0000:fffa3000       .debug$S                   10000000     node:node.exe
 0000:fffa3000       .debug$S                   10000000     node:node.exe
 0000:fffa3000       .debug$S                   10000000     node:node.exe
 0000:fffa3000       .debug$S                   10000000     node:node.exe
 0000:fffa3000       .debug$S                   10000000     node:node.exe
 0000:fffa3000       .debug$S                   10000000     node:node.exe
 0000:fffa3000       .debug$S                   10000000     node:node.exe
 0000:fffa3000       .debug$S                   10000000     node:node.exe
 0000:fffa3000       .debug$S                   10000000     node:node.exe
 0000:fffa3000       .debug$S                   10000000     node:node.exe
 0000:fffa3000       .debug$S                   10000000     node:node.exe
 0000:fffa3000       .debug$S                   10000000     node:node.exe
 0000:fffa3000       .debug$S                   10000000     node:node.exe
 0000:fffa3000       .debug$S                   10000000     node:node.exe
 0000:fffa3000       .debug$S                   10000000     node:node.exe
 0000:fffa3000       .debug$S                   10000000     node:node.exe
 0000:fffa3000       .debug$S                   10000000     node:node.exe
 0000:fffa3000       .debug$S                   10000000     node:node.exe
 0000:fffa3000       .debug$S                   10000000     node:node.exe
 0000:fffa3000       .debug$S                   10000000     node:node.exe
 0000:fffa3000       .debug$S                   10000000     node:node.exe
 0000:fffa3000       .debug$S                   10000000     node:node.exe
 0000:fffa3000       .debug$S                   10000000     node:node.exe
 0000:fffa3000       .debug$S                   10000000     node:node.exe
 0000:fffa3000       .debug$S                   10000000     node:node.exe
 0000:fffa3000       .debug$S                   10000000     node:node.exe
 0000:fffa3000       .debug$S                   10000000     node:node.exe
 0000:fffa3000       .debug$S                   10000000     node:node.exe
 0000:fffa3000       .debug$S                   10000000     node:node.exe
 0000:fffa3000       .debug$S                   10000000     node:node.exe
 0000:fffa3000       .debug$S                   10000000     node:node.exe
 0000:fffa3000       .debug$S                   10000000     node:node.exe
 0000:fffa3000       .debug$S                   10000000     node:node.exe
 0000:fffa3000       .debug$S                   10000000     node:node.exe
 0000:fffa3000       .debug$S                   10000000     kernel32:KERNEL32.dll
 0000:fffa3000       .debug$S                   10000000     kernel32:KERNEL32.dll
 0000:fffa3000       .debug$S                   10000000     kernel32:KERNEL32.dll
 0000:fffa3000       .debug$S                   10000000     kernel32:KERNEL32.dll
 0000:fffa3000       .debug$S                   10000000     kernel32:KERNEL32.dll
 0000:fffa3000       .debug$S                   10000000     kernel32:KERNEL32.dll
 0000:fffa3000       .debug$S                   10000000     kernel32:KERNEL32.dll
 0000:fffa3000       .debug$S                   10000000     kernel32:KERNEL32.dll
 0000:fffa3000       .debug$S                   10000000     kernel32:KERNEL32.dll
 0000:fffa3000       .debug$S                   10000000     kernel32:KERNEL32.dll
 0000:fffa3000       .debug$S                   10000000     kernel32:KERNEL32.dll
 0000:fffa3000       .debug$S                   10000000     kernel32:KERNEL32.dll
 0000:fffa3000       .debug$S                   10000000     kernel32:KERNEL32.dll
 0000:fffa3000       .debug$S                   10000000     kernel32:KERNEL32.dll
 0000:fffa3000       .debug$S                   10000000     kernel32:KERNEL32.dll
 0000:fffa3000       .debug$S                   10000000     kernel32:KERNEL32.dll
 0000:fffa3000       .debug$S                   10000000     kernel32:KERNEL32.dll
 0000:fffa3000       .debug$S                   10000000     kernel32:KERNEL32.dll
 0000:fffa3000       .debug$S                   10000000     kernel32:KERNEL32.dll
 0000:fffa3000       .debug$S                   10000000     kernel32:KERNEL32.dll
 0000:fffa3000       .debug$S                   10000000     kernel32:KERNEL32.dll
 0000:fffa3000       .debug$S                   10000000     kernel32:KERNEL32.dll
 0000:fffa3000       .debug$S                   10000000     kernel32:KERNEL32.dll
 0000:fffa3000       .debug$S                   10000000     kernel32:KERNEL32.dll
 0001:00000000       ??__Einitlocks@std@@YAXXZ  10001000 f   libcpmt:xlock.obj
 0001:00000016       ??__E_Fac_tidy_reg@std@@YAXXZ 10001016 f   libcpmt:locale0.obj
 0001:00000022       ??__Eclassic_locale@std@@YAXXZ 10001022 f   libcpmt:locale0.obj
 0001:0000002e       ??__Ecerr@std@@YAXXZ       1000102e f   libcpmt:cerr.obj
 0001:0000004d       ??__Eferr@std@@YAXXZ       1000104d f   libcpmt:cerr.obj
 0001:00000087       ??__Einit_cerr@std@@YAXXZ  10001087 f   libcpmt:cerr.obj
 0001:00000091       ??__Einitlocks@@YAXXZ      10001091 f   libcpmt:cerr.obj
 0001:000000a7       ??__Einit_atexit@@YAXXZ    100010a7 f   libcpmt:iosptrs.obj
 0001:000000b3       ??__Einitlocks@std@@YAXXZ  100010b3 f   libcpmt:iosptrs.obj
 0001:000000d0       ?FunctionCallbackWrapper@imp@Nan@@YAXABV?$FunctionCallbackInfo@VValue@v8@@@v8@@@Z 100010d0 f   index.obj
 0001:00000630       __register_nodejieba       10001630 f   index.obj
 0001:000006b0       _memcpy_s                  100016b0 f   nodejieba.obj
 0001:0000d760       _no_op_initialize          1000e760 f i libucrt:wsetlocale.obj
 0001:0000e490       _uninitialize_c            1000f490 f i libucrt:initialization.obj
 0001:0000e490       _uninitialize_global_state_isolation 1000f490 f i libucrt:initialization.obj
 0001:0000e490       _initialize_environment    1000f490 f i libucrt:initialization.obj
 0001:0000e490       _initialize_global_state_isolation 1000f490 f i libucrt:initialization.obj
 0001:0000e490       _report_memory_leaks       1000f490 f i libucrt:initialization.obj
 0001:00018610       ?load_exe_hook@@YGP6GHXZIPAUDelayLoadInfo@@@Z 10019610 f   win_delay_load_hook.obj
 0001:00018c0a       _tidy_global               10019c0a f   libcpmt:locale0.obj
 0001:000195ef       ?initialize_pointers@@YAHXZ 1001a5ef f   libcpmt:winapisupp.obj
 0001:00019b28       ?__scrt_initialize_thread_safe_statics@@YAHXZ 1001ab28 f   LIBCMT:thread_safe_statics.obj
 0001:00019be8       ?__scrt_uninitialize_thread_safe_statics@@YAXXZ 1001abe8 f   LIBCMT:thread_safe_statics.obj
 0001:00019d97       ?find_pe_section@@YAPAU_IMAGE_SECTION_HEADER@@QAEI@Z 1001ad97 f   LIBCMT:utility.obj
 0001:0001a0da       ?dllmain_crt_dispatch@@YGHQAUHINSTANCE__@@KQAX@Z 1001b0da f   LIBCMT:dll_dllmain.obj
 0001:0001a12d       ?dllmain_crt_process_attach@@YAHQAUHINSTANCE__@@QAX@Z 1001b12d f   LIBCMT:dll_dllmain.obj
 0001:0001a23f       ?dllmain_crt_process_detach@@YAH_N@Z 1001b23f f   LIBCMT:dll_dllmain.obj
 0001:0001a2bc       ?dllmain_dispatch@@YAHQAUHINSTANCE__@@KQAX@Z 1001b2bc f   LIBCMT:dll_dllmain.obj
 0001:0001a3b8       ?dllmain_raw@@YGHQAUHINSTANCE__@@KQAX@Z 1001b3b8 f   LIBCMT:dll_dllmain.obj
 0001:0001a4b0       $$000000                   1001b4b0     LIBCMT:alloca16.obj
 0001:0001a4e0       $$000000                   1001b4e0     LIBCMT:llmul.obj
 0001:0001a520       $$000000                   1001b520     LIBCMT:ulldiv.obj
 0001:0001aab0       $$000000                   1001bab0     LIBCMT:_sehprolg4_.obj
 0001:0001ac50       $$000000                   1001bc50     LIBCMT:chkstk.obj
 0001:0001ad44       ?CallCatchBlock@@YAPAXPAUEHExceptionRecord@@PAUEHRegistrationNode@@PAU_CONTEXT@@PBU_s_FuncInfo@@PAXHK@Z 1001bd44 f   libvcruntime:frame.obj
 0001:0001af00       ?CallUnexpected@@YAXPBU_s_ESTypeList@@@Z 1001bf00 f   libvcruntime:frame.obj
 0001:0001af20       __catch$?CallUnexpected@@YAXPBU_s_ESTypeList@@@Z$0 1001bf20 f   libvcruntime:frame.obj
 0001:0001af3a       ?CatchIt@@YAXPAUEHExceptionRecord@@PAUEHRegistrationNode@@PAU_CONTEXT@@PAXPBU_s_FuncInfo@@PBU_s_HandlerType@@PBU_s_CatchableType@@PBU_s_TryBlockMapEntry@@H1E@Z 1001bf3a f   libvcruntime:frame.obj
 0001:0001afb5       ?ExFilterRethrow@@YAHPAU_EXCEPTION_POINTERS@@@Z 1001bfb5 f   libvcruntime:frame.obj
 0001:0001afff       ?FindHandler@@YAXPAUEHExceptionRecord@@PAUEHRegistrationNode@@PAU_CONTEXT@@PAXPBU_s_FuncInfo@@EH1@Z 1001bfff f   libvcruntime:frame.obj
 0001:0001b367       ?FindHandlerForForeignException@@YAXPAUEHExceptionRecord@@PAUEHRegistrationNode@@PAU_CONTEXT@@PAXPBU_s_FuncInfo@@HH1@Z 1001c367 f   libvcruntime:frame.obj
 0001:0001b482       ?IsInExceptionSpec@@YAEPAUEHExceptionRecord@@PBU_s_ESTypeList@@@Z 1001c482 f   libvcruntime:frame.obj
 0001:0001b51e       ?Is_bad_exception_allowed@@YAEPBU_s_ESTypeList@@@Z 1001c51e f   libvcruntime:frame.obj
 0001:0001b9f0       $$000000                   1001c9f0     libvcruntime:memmove.obj
 0001:0001bc54       TrailingUpVec              1001cc54     libvcruntime:memmove.obj
 0001:0001bd00       TrailingDownVec            1001cd00     libvcruntime:memmove.obj
 0001:0001bfa0       $$000000                   1001cfa0     libvcruntime:memchr.obj
 0001:0001c430       $$000000                   1001d430     libvcruntime:memcpy.obj
 0001:0001c694       TrailingUpVec              1001d694     libvcruntime:memcpy.obj
 0001:0001c740       TrailingDownVec            1001d740     libvcruntime:memcpy.obj
 0001:0001caa0       $$000000                   1001daa0     libvcruntime:memset.obj
 0001:0001e2fa       $LN1281                    1001f2fa     libvcruntime:_memcmp_.obj
 0001:0001e37a       ?try_get_function@@YAPAXW4function_id@?A0x89697e75@@QBDQBW4module_id@2@2@Z 1001f37a f   libvcruntime:winapi_downlevel.obj
 0001:0001e41a       ?try_get_module@@YAPAUHINSTANCE__@@W4module_id@?A0x89697e75@@@Z 1001f41a f   libvcruntime:winapi_downlevel.obj
 0001:0001e6a0       _ValidateLocalCookies      1001f6a0 f   libvcruntime:_chandler4_.obj
 0001:0001ea10       $$000000                   1001fa10     libvcruntime:lowhelpr.obj
 0001:0001eaf0       $$000000                   1001faf0     libvcruntime:_exsup4_.obj
 0001:0001eb80       __unwind_handler4          1001fb80 f   libvcruntime:_exsup4_.obj
 0001:0001ec50       $$000000                   1001fc50     libvcruntime:_exsup_.obj
 0001:0001ec70       __unwind_handler           1001fc70 f   libvcruntime:_exsup_.obj
 0001:0001f1e2       _common_flush_all          100201e2 f   libucrt:fflush.obj
 0001:0001f5e0       $$000000                   100205e0     libucrt:strcspn.obj
 0001:0001f69f       ??$common_vsprintf@Vformat_validation_base@__crt_stdio_output@@D@@YAH_KQADIQBDQAU__crt_locale_pointers@@1@Z 1002069f f   libucrt:output.obj
 0001:0001f81b       ??$common_vsprintf@Vstandard_base@__crt_stdio_output@@_W@@YAH_KQA_WIQB_WQAU__crt_locale_pointers@@QAD@Z 1002081b f   libucrt:output.obj
 0001:0001f9a0       ??$common_vsprintf_s@D@@YAH_KQADIQBDQAU__crt_locale_pointers@@1@Z 100209a0 f   libucrt:output.obj
 0001:0001fea1       ??R<lambda_481dd5778c961fbcd3b60b650e9b9dc4>@@QBEHXZ 10020ea1 f   libucrt:output.obj
 0001:0002023c       $LN52                      1002123c     libucrt:output.obj
 0001:0002035c       $LN54                      1002135c     libucrt:output.obj
 0001:0002047c       $LN54                      1002147c     libucrt:output.obj
 0001:00021252       $LN19                      10022252     libucrt:output.obj
 0001:000222ea       ??R<lambda_b51c0495177f500e782686251704ae76>@@QBEIXZ 100232ea f   libucrt:fwrite.obj
 0001:00022661       ??R<lambda_b721fa326cdb32351d23dfa67958c160>@@QBEHXZ 10023661 f   libucrt:setvbuf.obj
 0001:000226fb       ?set_buffer@@YAHV__crt_stdio_stream@@QADIH@Z 100236fb f   libucrt:setvbuf.obj
 0001:000227a4       ??$common_timespec_get@U_timespec64@@@@YAHQAU_timespec64@@H@Z 100237a4 f   libucrt:time.obj
 0001:00022865       ??$common_localtime_s@_J@@YAHQAUtm@@QB_J@Z 10023865 f   libucrt:localtime.obj
 0001:00023995       ??$common_atof_l@D@@YANQBDQAU__crt_locale_pointers@@@Z 10024995 f   libucrt:atof.obj
 0001:000241ca       $LN21                      100251ca     libucrt:atof.obj
 0001:000241f2       ??R<lambda_af0d5e41dc07595f2c52435db9a0efad>@@QBE_NXZ 100251f2 f   libucrt:atof.obj
 0001:000241f2       ??R<lambda_3a2f1c4b88a94fdfdc7bccff06592946>@@QBE_NXZ 100251f2 f   libucrt:atof.obj
 0001:000241f2       ??R<lambda_952f81e62542d0a726c252b8c2136a43>@@QBE_NXZ 100251f2 f   libucrt:atof.obj
 0001:00026d58       ?common_fseek@@YAHV__crt_stdio_stream@@_JH@Z 10027d58 f   libucrt:fseek.obj
 0001:00026ddf       ?common_fseek_binary_mode_read_only_fast_track_nolock@@YA_NV__crt_stdio_stream@@_JH@Z 10027ddf f   libucrt:fseek.obj
 0001:00026eb8       ?common_fseek_nolock@@YAHV__crt_stdio_stream@@_JH@Z 10027eb8 f   libucrt:fseek.obj
 0001:00026fc7       ??$common_assert_to_message_box@_W@@YAXQB_W0IQAX@Z 10027fc7 f   libucrt:assert.obj
 0001:00027063       ??$common_assert_to_message_box_build_string@_W@@YAXQA_WIQB_W1IQAX@Z 10028063 f   libucrt:assert.obj
 0001:000275a8       ??$common_assert_to_stderr@_W@@YAXQB_W0I@Z 100285a8 f   libucrt:assert.obj
 0001:00027653       ?common_assert_to_stderr_direct@@YAXQB_W0I@Z 10028653 f   libucrt:assert.obj
 0001:00027704       ?get_assert_format@@YAPB_W_W@Z 10028704 f   libucrt:assert.obj
 0001:000277c1       _memcpy_s                  100287c1 f   libucrt:atof.obj
 0001:000277c1       _memcpy_s                  100287c1 f   libucrt:cfout.obj
 0001:000277c1       _memcpy_s                  100287c1 f   libucrt:mbctype.obj
 0001:000277c1       _memcpy_s                  100287c1 f   libucrt:assert.obj
 0001:00027a3a       _call_wsetlocale           10028a3a f   libucrt:setlocale.obj
 0001:00027c34       ??$common_fsopen@D@@YAPAU_iobuf@@QBD0H@Z 10028c34 f   libucrt:fopen.obj
 0001:000281f9       ?x_ismbbtype_l@@YAHPAU__crt_locale_pointers@@IHH@Z 100291f9 f   libucrt:ismbbyte.obj
 0001:00028340       $$000000                   10029340     libucrt:pow.obj
 0001:00028660       ?compute_iso_week@@YAHHHH@Z 10029660 f   libucrt:wcsftime.obj
 0001:000286ae       ?compute_iso_week_internal@@YAHHHH@Z 100296ae f   libucrt:wcsftime.obj
 0001:00028743       ?compute_iso_year@@YAHHHH@Z 10029743 f   libucrt:wcsftime.obj
 0001:0002876e       ?expand_time@@YA_NPAU__crt_locale_pointers@@_WPBUtm@@PAPA_WPAIPBU__crt_lc_time_data@@_N@Z 1002976e f   libucrt:wcsftime.obj
 0001:0002924a       $LN193                     1002a24a     libucrt:wcsftime.obj
 0001:0002926a       ?store_number@@YAXHHQAPA_WQAI_W@Z 1002a26a f   libucrt:wcsftime.obj
 0001:0002930c       ?store_number_without_lead_zeroes@@YAXHQAPA_WQAI@Z 1002a30c f   libucrt:wcsftime.obj
 0001:00029373       ?store_string@@YAXPB_WQAPA_WQAI@Z 1002a373 f   libucrt:wcsftime.obj
 0001:000293a4       ?store_winword@@YA_NQAU__crt_locale_pointers@@HQBUtm@@QAPA_WQAIQBU__crt_lc_time_data@@@Z 1002a3a4 f   libucrt:wcsftime.obj
 0001:00029994       ??$common_tox_l@$1?internal_isupper_l@@YA_NHQAU__crt_locale_pointers@@@Z$1?internal_map_lower@@YAHH0@Z@@YAHHKQAU__crt_locale_pointers@@@Z 1002a994 f   libucrt:tolower_toupper.obj
 0001:00029ade       ?internal_isupper_l@@YA_NHQAU__crt_locale_pointers@@@Z 1002aade f   libucrt:tolower_toupper.obj
 0001:0002a0c4       ?atexit_exception_filter@@YAHK@Z 1002b0c4 f   libucrt:exit.obj
 0001:0002a0d7       ?common_exit@@YAXHW4_crt_exit_cleanup_mode@@W4_crt_exit_return_mode@@@Z 1002b0d7 f   libucrt:exit.obj
 0001:0002a1f0       ?exit_or_terminate_process@@YAXI@Z 1002b1f0 f   libucrt:exit.obj
 0001:0002a231       ?is_managed_app@@YA_NXZ    1002b231 f   libucrt:exit.obj
 0001:0002a275       ?try_cor_exit_process@@YAXI@Z 1002b275 f   libucrt:exit.obj
 0001:0002a319       ??$common_configure_argv@D@@YAHW4_crt_argv_mode@@@Z 1002b319 f   libucrt:argv_parsing.obj
 0001:0002a43d       ??$parse_command_line@D@@YAXPADPAPAD0PAI2@Z 1002b43d f   libucrt:argv_parsing.obj
 0001:0002a612       ??$common_get_or_create_environment_nolock@D@@YAPAPADXZ 1002b612 f   libucrt:environment_initialization.obj
 0001:0002a641       ??$common_initialize_environment_nolock@D@@YAHXZ 1002b641 f   libucrt:environment_initialization.obj
 0001:0002a69a       ??$create_environment@D@@YAQAPADQAD@Z 1002b69a f   libucrt:environment_initialization.obj
 0001:0002a76b       ??$free_environment@_W@@YAXQAPA_W@Z 1002b76b f   libucrt:environment_initialization.obj
 0001:0002a76b       ??$free_environment@D@@YAXQAPAD@Z 1002b76b f   libucrt:environment_initialization.obj
 0001:0002a79a       ??$initialize_environment_by_cloning_nolock@D@@YAHXZ 1002b79a f   libucrt:environment_initialization.obj
 0001:0002a859       ??$uninitialize_environment_internal@D@@YAXAAPAPAD@Z 1002b859 f   libucrt:environment_initialization.obj
 0001:0002a874       ??$uninitialize_environment_internal@_W@@YAXAAPAPA_W@Z 1002b874 f   libucrt:environment_initialization.obj
 0001:0002a9e1       ??R<lambda_275893d493268fdec8709772e3fcec0e>@@QBEHXZ 1002b9e1 f   libucrt:onexit.obj
 0001:0002ab01       ??R<lambda_4e60a939b0d047cfe11ddc22648dfba9>@@QBEHXZ 1002bb01 f   libucrt:onexit.obj
 0001:0002acd6       _initialize_global_variables 1002bcd6 f   libucrt:initialization.obj
 0001:0002ace8       _initialize_c              1002bce8 f   libucrt:initialization.obj
 0001:0002ad02       _uninitialize_environment  1002bd02 f   libucrt:initialization.obj
 0001:0002ad0a       _initialize_pointers       1002bd0a f   libucrt:initialization.obj
 0001:0002ad47       _uninitialize_vcruntime    1002bd47 f   libucrt:initialization.obj
 0001:0002ad50       _uninitialize_allocated_memory 1002bd50 f   libucrt:initialization.obj
 0001:0002afcb       ?get_global_action_nolock@@YAPAP6AXH@ZH@Z 1002bfcb f   libucrt:signal.obj
 0001:0002b00d       ?siglookup@@YAPAU__crt_signal_action_t@@HQAU1@@Z 1002c00d f   libucrt:signal.obj
 0001:0002b2be       ??$common_flush_and_write_nolock@D@@YAHHV__crt_stdio_stream@@@Z 1002c2be f   libucrt:_flsbuf.obj
 0001:0002b3cf       ??$common_flush_and_write_nolock@_W@@YAHHV__crt_stdio_stream@@@Z 1002c3cf f   libucrt:_flsbuf.obj
 0001:0002b4e4       ??$write_buffer_nolock@D@@YA_NDV__crt_stdio_stream@@@Z 1002c4e4 f   libucrt:_flsbuf.obj
 0001:0002b5b0       ??$write_buffer_nolock@_W@@YA_N_WV__crt_stdio_stream@@@Z 1002c5b0 f   libucrt:_flsbuf.obj
 0001:0002b69a       ?initialize_inherited_file_handles_nolock@@YAXXZ 1002c69a f   libucrt:ioinit.obj
 0001:0002b750       ?initialize_stdio_handles_nolock@@YAXXZ 1002c750 f   libucrt:ioinit.obj
 0001:0002ba6c       ?construct_ptd@@YAXQAU__acrt_ptd@@QAPAU__crt_locale_data@@@Z 1002ca6c f   libucrt:per_thread_data.obj
 0001:0002bae5       ?destroy_fls@@YGXPAX@Z     1002cae5 f   libucrt:per_thread_data.obj
 0001:0002bb06       ?destroy_ptd@@YAXQAU__acrt_ptd@@@Z 1002cb06 f   libucrt:per_thread_data.obj
 0001:0002bbaf       ?replace_current_thread_locale_nolock@@YAXQAU__acrt_ptd@@QAU__crt_locale_data@@@Z 1002cbaf f   libucrt:per_thread_data.obj
 0001:0002bea4       ?write_double_translated_ansi_nolock@@YA?AUwrite_result@?A0x47fa6670@@HQBDI@Z 1002cea4 f   libucrt:write.obj
 0001:0002c057       ?write_double_translated_unicode_nolock@@YA?AUwrite_result@?A0x47fa6670@@QBDI@Z 1002d057 f   libucrt:write.obj
 0001:0002c0c4       ?write_requires_double_translation_nolock@@YA_NH@Z 1002d0c4 f   libucrt:write.obj
 0001:0002c13a       ?write_text_ansi_nolock@@YA?AUwrite_result@?A0x47fa6670@@HQBDI@Z 1002d13a f   libucrt:write.obj
 0001:0002c219       ?write_text_utf16le_nolock@@YA?AUwrite_result@?A0x47fa6670@@HQBDI@Z 1002d219 f   libucrt:write.obj
 0001:0002c307       ?write_text_utf8_nolock@@YA?AUwrite_result@?A0x47fa6670@@HQBDI@Z 1002d307 f   libucrt:write.obj
 0001:0002c98a       ?find_or_allocate_unused_stream_nolock@@YA?AV__crt_stdio_stream@@XZ 1002d98a f   libucrt:stream.obj
 0001:0002cb8b       ??R<lambda_2af78c5f5901b1372d98f9ab3177dfa6>@@QBEXXZ 1002db8b f   libucrt:wsetlocale.obj
 0001:0002cbe7       ??R<lambda_e378711a6f6581bf7f0efd7cdf97f5d9>@@QBEXXZ 1002dbe7 f   libucrt:wsetlocale.obj
 0001:0002cf47       __copytlocinfo_nolock      1002df47 f   libucrt:wsetlocale.obj
 0001:0002d3ae       __wsetlocale_get_all       1002e3ae f   libucrt:wsetlocale.obj
 0001:0002d547       __wsetlocale_nolock        1002e547 f   libucrt:wsetlocale.obj
 0001:0002d82c       __wsetlocale_set_cat       1002e82c f   libucrt:wsetlocale.obj
 0001:0002df2c       ?fp_format_a@@YAHQBNPADIQADIH_NIQAU__crt_locale_pointers@@@Z 1002ef2c f   libucrt:cvt.obj
 0001:0002e22f       ?fp_format_e@@YAHQBNQADI1IH_NIQAU__crt_locale_pointers@@@Z 1002f22f f   libucrt:cvt.obj
 0001:0002e2ca       ?fp_format_e_internal@@YAHQADIH_NIQAU_strflt@@1QAU__crt_locale_pointers@@@Z 1002f2ca f   libucrt:cvt.obj
 0001:0002e415       ?fp_format_f@@YAHQBNQADI1IHQAU__crt_locale_pointers@@@Z 1002f415 f   libucrt:cvt.obj
 0001:0002e4a2       ?fp_format_f_internal@@YAHQADIHQAU_strflt@@_NQAU__crt_locale_pointers@@@Z 1002f4a2 f   libucrt:cvt.obj
 0001:0002e579       ?fp_format_g@@YAHQBNQADI1IH_NIQAU__crt_locale_pointers@@@Z 1002f579 f   libucrt:cvt.obj
 0001:0002e641       ?fp_format_nan_or_infinity@@YAHW4__acrt_fp_class@@_NPADI1@Z 1002f641 f   libucrt:cvt.obj
 0001:0002e739       ?shift_bytes@@YAXQADI0H@Z  1002f739 f   libucrt:cvt.obj
 0001:0002e8b7       ?fputwc_binary_nolock@@YAG_WV__crt_stdio_stream@@@Z 1002f8b7 f   libucrt:fputwc.obj
 0001:0002eb12       ??$common_refill_and_read_nolock@D@@YAHV__crt_stdio_stream@@@Z 1002fb12 f   libucrt:_filbuf.obj
 0001:0002ec9e       ?<helper_func_stdcall>@<lambda_5a01b672d24c8480ee9d6bdb50dd3881>@@CGHPA_W@Z 1002fc9e f   libucrt:winapi_thunks.obj
 0001:0002ed90       ?try_get_CompareStringEx@@YAP6GHPB_WK0H0HPAU_nlsversioninfo@@PAXJ@ZXZ 1002fd90 f   libucrt:winapi_thunks.obj
 0001:0002edaa       ?try_get_MessageBoxA@@YAP6GHPAUHWND__@@PBD1I@ZXZ 1002fdaa f   libucrt:winapi_thunks.obj
 0001:0002edc4       ?try_get_MessageBoxW@@YAP6GHPAUHWND__@@PB_W1I@ZXZ 1002fdc4 f   libucrt:winapi_thunks.obj
 0001:0002edde       ?try_get_function@@YAPAXW4function_id@?A0x352e5c4b@@QBDQBW4module_id@2@2@Z 1002fdde f   libucrt:winapi_thunks.obj
 0001:0002ee7a       ?try_get_module@@YAPAUHINSTANCE__@@W4module_id@?A0x352e5c4b@@@Z 1002fe7a f   libucrt:winapi_thunks.obj
 0001:0002f8c1       ??$common_ftell@_J@@YA_JV__crt_stdio_stream@@@Z 100308c1 f   libucrt:ftell.obj
 0001:0002f93d       ??$common_ftell_nolock@_J@@YA_JV__crt_stdio_stream@@@Z 1003093d f   libucrt:ftell.obj
 0001:0002fad2       ?common_ftell_read_mode_nolock@@YA_JV__crt_stdio_stream@@_J1@Z 10030ad2 f   libucrt:ftell.obj
 0001:0002fc56       ?common_ftell_translated_utf8_nolock@@YA_JV__crt_stdio_stream@@_J@Z 10030c56 f   libucrt:ftell.obj
 0001:0002ff47       ??$common_gmtime_s@_J@@YAHQAUtm@@QB_J@Z 10030f47 f   libucrt:gmtime.obj
 0001:00030094       ?compute_year@@YAHAA_JAA_N@Z 10031094 f   libucrt:gmtime.obj
 0001:00030181       ?_isindst_nolock@@YAHQAUtm@@@Z 10031181 f   libucrt:tzset.obj
 0001:00030368       ?cvtdate@@YAXW4transition_type@?A0xdb49773f@@W4date_type@2@HHHHHHHHH@Z 10031368 f   libucrt:tzset.obj
 0001:000304b8       ?tzset_from_environment_nolock@@YAXPAD@Z 100314b8 f   libucrt:tzset.obj
 0001:0003068d       ?tzset_from_system_nolock@@YAXXZ 1003168d f   libucrt:tzset.obj
 0001:000307e8       ?tzset_nolock@@YAXXZ       100317e8 f   libucrt:tzset.obj
 0001:000313e0       ??$common_lseek@_J@@YA_JH_JH@Z 100323e0 f   libucrt:lseek.obj
 0001:000314e5       ??$common_lseek_nolock@_J@@YA_JH_JH@Z 100324e5 f   libucrt:lseek.obj
 0001:0003159f       ??$common_xtox@K_W@@YAHKQA_WII_N@Z 1003259f f   libucrt:xtoa.obj
 0001:0003162d       ??$common_xtox_s@K_W@@YAHKQA_WII_N@Z 1003262d f   libucrt:xtoa.obj
 0001:00031775       ??$common_tcsncat_s@_W@@YAHQA_WIQB_WI@Z 10032775 f   libucrt:wcsncat_s.obj
 0001:00031869       ??$common_show_message_box@_W@@YAHQB_W0I@Z 10032869 f   libucrt:crtmbox.obj
 0001:00031942       ??$message_box_wait_thread@_W@@YGKQAX@Z 10032942 f   libucrt:crtmbox.obj
 0001:0003196f       ?_mbstowcs_l_helper@@YAIPA_WPBDIPAU__crt_locale_pointers@@@Z 1003296f f   libucrt:mbstowcs.obj
 0001:00031beb       ?_wcstombs_l_helper@@YAIPADPB_WIPAU__crt_locale_pointers@@@Z 10032beb f   libucrt:wcstombs.obj
 0001:0003216b       ??$common_openfile@D@@YAPAU_iobuf@@QBD0HV__crt_stdio_stream@@@Z 1003316b f   libucrt:openfile.obj
 0001:0003230f       ?InternalGetLocaleInfoA@@YAHQAU__crt_locale_pointers@@QB_WKQADH@Z 1003330f f   libucrt:getlocaleinfoa.obj
 0001:000326d9       ?__acrt_LCMapStringA_stat@@YAHPAU__crt_locale_pointers@@PB_WKPBDHPADHHH@Z 100336d9 f   libucrt:lcmapstringa.obj
 0001:00032a00       $$000000                   10033a00     libucrt:pow_pentium4.obj
 0001:00033520       $$000000                   10034520     libucrt:87tran.obj
 0001:00033720       $$000000                   10034720     libucrt:87disp.obj
 0001:00033920       $$000000                   10034920     libucrt:genexcep.obj
 0001:00033980       $$000000                   10034980     libucrt:common.obj
 0001:00033e4f       ?<helper_func_cdecl>@<lambda_62bb7ecb46d0a77b591a051c43eb5ad1>@@CAHPBX0@Z 10034e4f f   libucrt:argv_wildcards.obj
 0001:00033e67       ??$common_expand_argv_wildcards@D@@YAHQAPADQAPAPAD@Z 10034e67 f   libucrt:argv_wildcards.obj
 0001:00033ff7       ??$copy_and_add_argument_to_buffer@D@@YAHQBD0IAAV?$argument_list@D@?A0xb0e4b824@@@Z 10034ff7 f   libucrt:argv_wildcards.obj
 0001:0003408d       ??$expand_argument_wildcards@D@@YAHQAD0AAV?$argument_list@D@?A0xb0e4b824@@@Z 1003508d f   libucrt:argv_wildcards.obj
 0001:00034368       ??R<lambda_ad1ced32f4ac17aa236e5ef05d6b3b7c>@@QBEXXZ 10035368 f   libucrt:mbctype.obj
 0001:0003442c       ?CPtoLocaleName@@YAPB_WH@Z 1003542c f   libucrt:mbctype.obj
 0001:0003446a       ?getSystemCP@@YAHH@Z       1003546a f   libucrt:mbctype.obj
 0001:000344dd       ?setSBCS@@YAXPAU__crt_multibyte_data@@@Z 100354dd f   libucrt:mbctype.obj
 0001:00034542       ?setSBUpLow@@YAXPAU__crt_multibyte_data@@@Z 10035542 f   libucrt:mbctype.obj
 0001:000346d6       ?setmbcp_internal@@YAHH_N@Z 100356d6 f   libucrt:mbctype.obj
 0001:00034aa1       ?find_end_of_double_null_terminated_sequence@@YAPB_WQB_W@Z 10035aa1 f   libucrt:get_environment_from_os.obj
 0001:00034b5b       ??$common_set_variable_in_environment_nolock@D@@YAHQADH@Z 10035b5b f   libucrt:setenv.obj
 0001:00034d96       ??$copy_environment@D@@YAPAPADQAPAD@Z 10035d96 f   libucrt:setenv.obj
 0001:00034e47       ??$find_in_environment_nolock@D@@YAHQBDI@Z 10035e47 f   libucrt:setenv.obj
 0001:00035ffd       ?free_crt_array_internal@@YAXQAPBXI@Z 10036ffd f   libucrt:inittime.obj
 0001:00036039       ?initialize_lc_time@@YA_NQAU__crt_lc_time_data@@QAU__crt_locale_data@@@Z 10037039 f   libucrt:inittime.obj
 0001:00036419       ??$common_tcsncpy_s@_W@@YAHQA_WIQB_WI@Z 10037419 f   libucrt:wcsncpy_s.obj
 0001:000365c0       _GetLocaleNameFromDefault  100375c0 f   libucrt:get_qualified_locale.obj
 0001:00036649       _GetLocaleNameFromLangCountry 10037649 f   libucrt:get_qualified_locale.obj
 0001:000366e3       _GetLocaleNameFromLanguage 100376e3 f   libucrt:get_qualified_locale.obj
 0001:0003673e       _GetPrimaryLen             1003773e f   libucrt:get_qualified_locale.obj
 0001:00036772       _LangCountryEnumProcEx@12  10037772 f   libucrt:get_qualified_locale.obj
 0001:00036a5c       _LanguageEnumProcEx@12     10037a5c f   libucrt:get_qualified_locale.obj
 0001:00036b1d       _ProcessCodePage           10037b1d f   libucrt:get_qualified_locale.obj
 0001:00036c04       _TestDefaultCountry        10037c04 f   libucrt:get_qualified_locale.obj
 0001:00036c4f       _TranslateName             10037c4f f   libucrt:get_qualified_locale.obj
 0001:00036e8d       _CountryEnumProc@4         10037e8d f   libucrt:getqloc_downlevel.obj
 0001:00036f36       _GetLcidFromCountry        10037f36 f   libucrt:getqloc_downlevel.obj
 0001:00036f81       _GetLcidFromLangCountry    10037f81 f   libucrt:getqloc_downlevel.obj
 0001:0003701c       _GetLcidFromLanguage       1003801c f   libucrt:getqloc_downlevel.obj
 0001:0003707d       _GetPrimaryLen             1003807d f   libucrt:getqloc_downlevel.obj
 0001:000370a9       _LangCountryEnumProc@4     100380a9 f   libucrt:getqloc_downlevel.obj
 0001:000372f9       _LanguageEnumProc@4        100382f9 f   libucrt:getqloc_downlevel.obj
 0001:000373d1       _LcidFromHexString         100383d1 f   libucrt:getqloc_downlevel.obj
 0001:00037422       _ProcessCodePage           10038422 f   libucrt:getqloc_downlevel.obj
 0001:00037505       _TestDefaultCountry        10038505 f   libucrt:getqloc_downlevel.obj
 0001:00037529       _TestDefaultLanguage       10038529 f   libucrt:getqloc_downlevel.obj
 0001:00037599       _TranslateName             10038599 f   libucrt:getqloc_downlevel.obj
 0001:00038c7f       ??$translate_text_mode_nolock@D@@YAHHQADI@Z 10039c7f f   libucrt:read.obj
 0001:00038dd6       ??$translate_text_mode_nolock@_W@@YAHHQA_WI@Z 10039dd6 f   libucrt:read.obj
 0001:00038f96       ?translate_ansi_or_utf8_nolock@@YAHHQADIQA_WI@Z 10039f96 f   libucrt:read.obj
 0001:000390e6       ?translate_utf16_from_console_nolock@@YAHHQA_WI@Z 1003a0e6 f   libucrt:read.obj
 0001:0003962f       ?GetTableIndexFromLocaleName@@YAHPB_W@Z 1003a62f f   libucrt:lcidtoname_downlevel.obj
 0001:000397c1       ??$common_getenv_nolock@D@@YAPADQBD@Z 1003a7c1 f   libucrt:getenv.obj
 0001:00039831       ??$common_getenv_s@D@@YAHQAIQADIQBD@Z 1003a831 f   libucrt:getenv.obj
 0001:00039886       ??$common_getenv_s_nolock@D@@YAHQAIQADIQBD@Z 1003a886 f   libucrt:getenv.obj
 0001:00039939       ??$common_tcsncpy_s@D@@YAHQADIQBDI@Z 1003a939 f   libucrt:strncpy_s.obj
 0001:000399f5       ___get_abstract_control_sse2 1003a9f5 f   libucrt:_fenvutils.obj
 0001:00039a72       ___get_abstract_control_x87 1003aa72 f   libucrt:_fenvutils.obj
 0001:00039ae5       ___get_machine_control     1003aae5 f   libucrt:_fenvutils.obj
 0001:00039b56       ___get_machine_control_sse2 1003ab56 f   libucrt:_fenvutils.obj
 0001:00039bd6       ___get_machine_status_sse2 1003abd6 f   libucrt:_fenvutils.obj
 0001:00039c37       ___get_machine_status_x87  1003ac37 f   libucrt:_fenvutils.obj
 0001:0003a040       $$000000                   1003b040     libucrt:strncmp.obj
 0001:0003a1db       ??$common_sopen_dispatch@D@@YAHQBDHHHQAHH@Z 1003b1db f   libucrt:open.obj
 0001:0003a2a7       ?configure_text_mode@@YAHHUfile_options@?A0x704126de@@HAAW4__crt_lowio_text_mode@@@Z 1003b2a7 f   libucrt:open.obj
 0001:0003a4f4       ?create_file@@YAPAXQB_WQAU_SECURITY_ATTRIBUTES@@Ufile_options@?A0x704126de@@@Z 1003b4f4 f   libucrt:open.obj
 0001:0003a519       ?decode_open_create_flags@@YAKH@Z 1003b519 f   libucrt:open.obj
 0001:0003a589       ?decode_options@@YA?AUfile_options@?A0x704126de@@HHH@Z 1003b589 f   libucrt:open.obj
 0001:0003a705       ?truncate_ctrl_z_if_present@@YAHH@Z 1003b705 f   libucrt:open.obj
 0001:0003af60       ?shortsort@@YAXPAD0IP6AHPBX1@Z@Z 1003bf60 f   libucrt:qsort.obj
 0001:0003b000       ?swap@@YAXPAD0I@Z          1003c000 f   libucrt:qsort.obj
 0001:0003b3e0       $$000000                   1003c3e0     libucrt:strpbrk.obj
 0001:0003b4c4       ?initialize_multibyte@@YAHXZ 1003c4c4 f   libucrt:multibyte_initializer.obj
 0001:0003b6f0       $$000000                   1003c6f0     libucrt:log10.obj
 0001:0003b840       $$000000                   1003c840     libucrt:ceil_pentium4.obj
 0001:0003b960       $$000000                   1003c960     libucrt:_strnicm.obj
 0001:0003bd54       ?InternalCompareStringA@@YAHPAU__crt_locale_pointers@@PB_WKPBDH2HH@Z 1003cd54 f   libucrt:comparestringa.obj
 0001:0003c130       $$000000                   1003d130     libucrt:log10_pentium4.obj
 0001:0003cb50       $$000000                   1003db50     LIBCMT:ulldvrm.obj
 0001:0003cbf0       $$000000                   1003dbf0     LIBCMT:lldvrm.obj
 0001:0003ccd0       $$000000                   1003dcd0     LIBCMT:lldiv.obj
 0001:0003cd80       $$000000                   1003dd80     LIBCMT:llrem.obj
 0001:0003ce40       $$000000                   1003de40     LIBCMT:llshl.obj
 0001:0003ce60       $$000000                   1003de60     LIBCMT:ullshr.obj
 0001:0003ce80       $$000000                   1003de80     LIBCMT:_sehprolg4gs_.obj
 0001:0003cee0       $$000000                   1003dee0     LIBCMT:_ftol2_.obj
 0001:0003cfa0       $$000000                   1003dfa0     libvcruntime:strrchr.obj
 0001:0003d0e0       $$000000                   1003e0e0     libvcruntime:strchr.obj
 0001:0003d2c0       $$000000                   1003e2c0     libucrt:log_sse2_precise.obj
 0001:0003d550       $$000000                   1003e550     libucrt:log.obj
 0001:0003d6a0       $$000000                   1003e6a0     libucrt:log_pentium4.obj
 0001:0003d910       __unwindfunclet$?New@?$Factory@VFunctionTemplate@v8@@@imp@Nan@@SA?AV?$Local@VFunctionTemplate@v8@@@v8@@P6AXABV?$FunctionCallbackInfo@VValue@v8@@@3@@ZV?$Local@VValue@v8@@@5@V?$Local@VSignature@v8@@@5@@Z$0 1003e910 f   index.obj
 0001:0003d919       __ehhandler$?New@?$Factory@VFunctionTemplate@v8@@@imp@Nan@@SA?AV?$Local@VFunctionTemplate@v8@@@v8@@P6AXABV?$FunctionCallbackInfo@VValue@v8@@@3@@ZV?$Local@VValue@v8@@@5@V?$Local@VSignature@v8@@@5@@Z 1003e919 f   index.obj
 0001:0003d940       __unwindfunclet$??0_Locinfo@std@@QAE@PBD@Z$0 1003e940 f   nodejieba.obj
 0001:0003d948       __unwindfunclet$??0_Locinfo@std@@QAE@PBD@Z$1 1003e948 f   nodejieba.obj
 0001:0003d953       __unwindfunclet$??0_Locinfo@std@@QAE@PBD@Z$2 1003e953 f   nodejieba.obj
 0001:0003d95e       __unwindfunclet$??0_Locinfo@std@@QAE@PBD@Z$3 1003e95e f   nodejieba.obj
 0001:0003d969       __unwindfunclet$??0_Locinfo@std@@QAE@PBD@Z$4 1003e969 f   nodejieba.obj
 0001:0003d974       __unwindfunclet$??0_Locinfo@std@@QAE@PBD@Z$5 1003e974 f   nodejieba.obj
 0001:0003d97f       __unwindfunclet$??0_Locinfo@std@@QAE@PBD@Z$6 1003e97f f   nodejieba.obj
 0001:0003d98a       __unwindfunclet$??0_Locinfo@std@@QAE@PBD@Z$7 1003e98a f   nodejieba.obj
 0001:0003d992       __ehhandler$??0_Locinfo@std@@QAE@PBD@Z 1003e992 f   nodejieba.obj
 0001:0003d9b0       __unwindfunclet$?_Getcat@?$ctype@D@std@@SAIPAPBVfacet@locale@2@PBV42@@Z$0 1003e9b0 f   nodejieba.obj
 0001:0003d9bf       __ehhandler$?_Getcat@?$ctype@D@std@@SAIPAPBVfacet@locale@2@PBV42@@Z 1003e9bf f   nodejieba.obj
 0001:0003d9e0       __unwindfunclet$?_Makestr@_System_error@std@@CA?AV?$basic_string@DU?$char_traits@D@std@@V?$allocator@D@2@@2@Verror_code@2@V32@@Z$0 1003e9e0 f   nodejieba.obj
 0001:0003d9e8       __unwindfunclet$?_Makestr@_System_error@std@@CA?AV?$basic_string@DU?$char_traits@D@std@@V?$allocator@D@2@@2@Verror_code@2@V32@@Z$1 1003e9e8 f   nodejieba.obj
 0001:0003d9f0       __ehhandler$?_Makestr@_System_error@std@@CA?AV?$basic_string@DU?$char_traits@D@std@@V?$allocator@D@2@@2@Verror_code@2@V32@@Z 1003e9f0 f   nodejieba.obj
 0001:0003da20       __unwindfunclet$??0system_error@std@@QAE@Verror_code@1@PBD@Z$0 1003ea20 f   nodejieba.obj
 0001:0003da28       __ehhandler$??0system_error@std@@QAE@Verror_code@1@PBD@Z 1003ea28 f   nodejieba.obj
 0001:0003da50       __unwindfunclet$?clear@ios_base@std@@QAEXH_N@Z$0 1003ea50 f   nodejieba.obj
 0001:0003da58       __unwindfunclet$?clear@ios_base@std@@QAEXH_N@Z$1 1003ea58 f   nodejieba.obj
 0001:0003da60       __unwindfunclet$?clear@ios_base@std@@QAEXH_N@Z$2 1003ea60 f   nodejieba.obj
 0001:0003da68       __ehhandler$?clear@ios_base@std@@QAEXH_N@Z 1003ea68 f   nodejieba.obj
 0001:0003da90       __unwindfunclet$?_Init@ios_base@std@@IAEXXZ$0 1003ea90 f   nodejieba.obj
 0001:0003da9f       __ehhandler$?_Init@ios_base@std@@IAEXXZ 1003ea9f f   nodejieba.obj
 0001:0003dac0       __unwindfunclet$??0Logger@limonp@@QAE@IPBDH@Z$0 1003eac0 f   nodejieba.obj
 0001:0003dac8       __ehhandler$??0Logger@limonp@@QAE@IPBDH@Z 1003eac8 f   nodejieba.obj
 0001:0003daf0       __ehhandler$??1Logger@limonp@@QAE@XZ 1003eaf0 f   nodejieba.obj
 0001:0003db20       __unwindfunclet$?Split@limonp@@YAXABV?$basic_string@DU?$char_traits@D@std@@V?$allocator@D@2@@std@@AAV?$vector@V?$basic_string@DU?$char_traits@D@std@@V?$allocator@D@2@@std@@V?$allocator@V?$basic_string@DU?$char_traits@D@std@@V?$allocator@D@2@@std@@@2@@3@0I@Z$0 1003eb20 f   nodejieba.obj
 0001:0003db28       __unwindfunclet$?Split@limonp@@YAXABV?$basic_string@DU?$char_traits@D@std@@V?$allocator@D@2@@std@@AAV?$vector@V?$basic_string@DU?$char_traits@D@std@@V?$allocator@D@2@@std@@V?$allocator@V?$basic_string@DU?$char_traits@D@std@@V?$allocator@D@2@@std@@@2@@3@0I@Z$2 1003eb28 f   nodejieba.obj
 0001:0003db30       __unwindfunclet$?Split@limonp@@YAXABV?$basic_string@DU?$char_traits@D@std@@V?$allocator@D@2@@std@@AAV?$vector@V?$basic_string@DU?$char_traits@D@std@@V?$allocator@D@2@@std@@V?$allocator@V?$basic_string@DU?$char_traits@D@std@@V?$allocator@D@2@@std@@@2@@3@0I@Z$1 1003eb30 f   nodejieba.obj
 0001:0003db38       __ehhandler$?Split@limonp@@YAXABV?$basic_string@DU?$char_traits@D@std@@V?$allocator@D@2@@std@@AAV?$vector@V?$basic_string@DU?$char_traits@D@std@@V?$allocator@D@2@@std@@V?$allocator@V?$basic_string@DU?$char_traits@D@std@@V?$allocator@D@2@@std@@@2@@3@0I@Z 1003eb38 f   nodejieba.obj
 0001:0003db60       __unwindfunclet$?Split@limonp@@YA?AV?$vector@V?$basic_string@DU?$char_traits@D@std@@V?$allocator@D@2@@std@@V?$allocator@V?$basic_string@DU?$char_traits@D@std@@V?$allocator@D@2@@std@@@2@@std@@ABV?$basic_string@DU?$char_traits@D@std@@V?$allocator@D@2@@3@0I@Z$0 1003eb60 f   nodejieba.obj
 0001:0003db79       __ehhandler$?Split@limonp@@YA?AV?$vector@V?$basic_string@DU?$char_traits@D@std@@V?$allocator@D@2@@std@@V?$allocator@V?$basic_string@DU?$char_traits@D@std@@V?$allocator@D@2@@std@@@2@@std@@ABV?$basic_string@DU?$char_traits@D@std@@V?$allocator@D@2@@3@0I@Z 1003eb79 f   nodejieba.obj
 0001:0003dba0       __unwindfunclet$?GetWordFromRunes@cppjieba@@YA?AUWord@1@ABV?$basic_string@DU?$char_traits@D@std@@V?$allocator@D@2@@std@@PBURuneStr@1@1@Z$0 1003eba0 f   nodejieba.obj
 0001:0003dba8       __ehhandler$?GetWordFromRunes@cppjieba@@YA?AUWord@1@ABV?$basic_string@DU?$char_traits@D@std@@V?$allocator@D@2@@std@@PBURuneStr@1@1@Z 1003eba8 f   nodejieba.obj
 0001:0003dbd0       __unwindfunclet$?GetWordsFromWordRanges@cppjieba@@YAXABV?$basic_string@DU?$char_traits@D@std@@V?$allocator@D@2@@std@@ABV?$vector@UWordRange@cppjieba@@V?$allocator@UWordRange@cppjieba@@@std@@@3@AAV?$vector@UWord@cppjieba@@V?$allocator@UWord@cppjieba@@@std@@@3@@Z$0 1003ebd0 f   nodejieba.obj
 0001:0003dbd8       __ehhandler$?GetWordsFromWordRanges@cppjieba@@YAXABV?$basic_string@DU?$char_traits@D@std@@V?$allocator@D@2@@std@@ABV?$vector@UWordRange@cppjieba@@V?$allocator@UWordRange@cppjieba@@@std@@@3@AAV?$vector@UWord@cppjieba@@V?$allocator@UWord@cppjieba@@@std@@@3@@Z 1003ebd8 f   nodejieba.obj
 0001:0003dc00       __unwindfunclet$?InsertNode@Trie@cppjieba@@QAEXABV?$LocalVector@I@limonp@@PBUDictUnit@2@@Z$0 1003ec00 f   nodejieba.obj
 0001:0003dc0f       __unwindfunclet$?InsertNode@Trie@cppjieba@@QAEXABV?$LocalVector@I@limonp@@PBUDictUnit@2@@Z$3 1003ec0f f   nodejieba.obj
 0001:0003dc1a       __unwindfunclet$?InsertNode@Trie@cppjieba@@QAEXABV?$LocalVector@I@limonp@@PBUDictUnit@2@@Z$4 1003ec1a f   nodejieba.obj
 0001:0003dc25       __ehhandler$?InsertNode@Trie@cppjieba@@QAEXABV?$LocalVector@I@limonp@@PBUDictUnit@2@@Z 1003ec25 f   nodejieba.obj
 0001:0003dc40       __unwindfunclet$??0DictTrie@cppjieba@@QAE@ABV?$basic_string@DU?$char_traits@D@std@@V?$allocator@D@2@@std@@0W4UserWordWeightOption@01@@Z$0 1003ec40 f   nodejieba.obj
 0001:0003dc48       __unwindfunclet$??0DictTrie@cppjieba@@QAE@ABV?$basic_string@DU?$char_traits@D@std@@V?$allocator@D@2@@std@@0W4UserWordWeightOption@01@@Z$1 1003ec48 f   nodejieba.obj
 0001:0003dc53       __unwindfunclet$??0DictTrie@cppjieba@@QAE@ABV?$basic_string@DU?$char_traits@D@std@@V?$allocator@D@2@@std@@0W4UserWordWeightOption@01@@Z$2 1003ec53 f   nodejieba.obj
 0001:0003dc5e       __ehhandler$??0DictTrie@cppjieba@@QAE@ABV?$basic_string@DU?$char_traits@D@std@@V?$allocator@D@2@@std@@0W4UserWordWeightOption@01@@Z 1003ec5e f   nodejieba.obj
 0001:0003dc80       __unwindfunclet$??1DictTrie@cppjieba@@QAE@XZ$1 1003ec80 f   nodejieba.obj
 0001:0003dc86       __ehhandler$??1DictTrie@cppjieba@@QAE@XZ 1003ec86 f   nodejieba.obj
 0001:0003dcb0       __unwindfunclet$?InsertUserWord@DictTrie@cppjieba@@QAE_NABV?$basic_string@DU?$char_traits@D@std@@V?$allocator@D@2@@std@@0@Z$0 1003ecb0 f   nodejieba.obj
 0001:0003dcb8       __ehhandler$?InsertUserWord@DictTrie@cppjieba@@QAE_NABV?$basic_string@DU?$char_traits@D@std@@V?$allocator@D@2@@std@@0@Z 1003ecb8 f   nodejieba.obj
 0001:0003dce0       __unwindfunclet$?CreateTrie@DictTrie@cppjieba@@AAEXABV?$vector@UDictUnit@cppjieba@@V?$allocator@UDictUnit@cppjieba@@@std@@@std@@@Z$0 1003ece0 f   nodejieba.obj
 0001:0003dce8       __unwindfunclet$?CreateTrie@DictTrie@cppjieba@@AAEXABV?$vector@UDictUnit@cppjieba@@V?$allocator@UDictUnit@cppjieba@@@std@@@std@@@Z$1 1003ece8 f   nodejieba.obj
 0001:0003dcf0       __unwindfunclet$?CreateTrie@DictTrie@cppjieba@@AAEXABV?$vector@UDictUnit@cppjieba@@V?$allocator@UDictUnit@cppjieba@@@std@@@std@@@Z$2 1003ecf0 f   nodejieba.obj
 0001:0003dcff       __ehhandler$?CreateTrie@DictTrie@cppjieba@@AAEXABV?$vector@UDictUnit@cppjieba@@V?$allocator@UDictUnit@cppjieba@@@std@@@std@@@Z 1003ecff f   nodejieba.obj
 0001:0003dd20       __unwindfunclet$?LoadUserDict@DictTrie@cppjieba@@AAEXABV?$basic_string@DU?$char_traits@D@std@@V?$allocator@D@2@@std@@@Z$0 1003ed20 f   nodejieba.obj
 0001:0003dd28       __unwindfunclet$?LoadUserDict@DictTrie@cppjieba@@AAEXABV?$basic_string@DU?$char_traits@D@std@@V?$allocator@D@2@@std@@@Z$1 1003ed28 f   nodejieba.obj
 0001:0003dd33       __unwindfunclet$?LoadUserDict@DictTrie@cppjieba@@AAEXABV?$basic_string@DU?$char_traits@D@std@@V?$allocator@D@2@@std@@@Z$2 1003ed33 f   nodejieba.obj
 0001:0003dd3e       __unwindfunclet$?LoadUserDict@DictTrie@cppjieba@@AAEXABV?$basic_string@DU?$char_traits@D@std@@V?$allocator@D@2@@std@@@Z$10 1003ed3e f   nodejieba.obj
 0001:0003dd49       __unwindfunclet$?LoadUserDict@DictTrie@cppjieba@@AAEXABV?$basic_string@DU?$char_traits@D@std@@V?$allocator@D@2@@std@@@Z$3 1003ed49 f   nodejieba.obj
 0001:0003dd54       __unwindfunclet$?LoadUserDict@DictTrie@cppjieba@@AAEXABV?$basic_string@DU?$char_traits@D@std@@V?$allocator@D@2@@std@@@Z$4 1003ed54 f   nodejieba.obj
 0001:0003dd5c       __unwindfunclet$?LoadUserDict@DictTrie@cppjieba@@AAEXABV?$basic_string@DU?$char_traits@D@std@@V?$allocator@D@2@@std@@@Z$5 1003ed5c f   nodejieba.obj
 0001:0003dd67       __unwindfunclet$?LoadUserDict@DictTrie@cppjieba@@AAEXABV?$basic_string@DU?$char_traits@D@std@@V?$allocator@D@2@@std@@@Z$6 1003ed67 f   nodejieba.obj
 0001:0003dd72       __unwindfunclet$?LoadUserDict@DictTrie@cppjieba@@AAEXABV?$basic_string@DU?$char_traits@D@std@@V?$allocator@D@2@@std@@@Z$7 1003ed72 f   nodejieba.obj
 0001:0003dd7a       __unwindfunclet$?LoadUserDict@DictTrie@cppjieba@@AAEXABV?$basic_string@DU?$char_traits@D@std@@V?$allocator@D@2@@std@@@Z$8 1003ed7a f   nodejieba.obj
 0001:0003dd85       __unwindfunclet$?LoadUserDict@DictTrie@cppjieba@@AAEXABV?$basic_string@DU?$char_traits@D@std@@V?$allocator@D@2@@std@@@Z$9 1003ed85 f   nodejieba.obj
 0001:0003dd8d       __unwindfunclet$?LoadUserDict@DictTrie@cppjieba@@AAEXABV?$basic_string@DU?$char_traits@D@std@@V?$allocator@D@2@@std@@@Z$12 1003ed8d f   nodejieba.obj
 0001:0003dda4       __unwindfunclet$?LoadUserDict@DictTrie@cppjieba@@AAEXABV?$basic_string@DU?$char_traits@D@std@@V?$allocator@D@2@@std@@@Z$13 1003eda4 f   nodejieba.obj
 0001:0003ddaf       __unwindfunclet$?LoadUserDict@DictTrie@cppjieba@@AAEXABV?$basic_string@DU?$char_traits@D@std@@V?$allocator@D@2@@std@@@Z$15 1003edaf f   nodejieba.obj
 0001:0003ddc6       __unwindfunclet$?LoadUserDict@DictTrie@cppjieba@@AAEXABV?$basic_string@DU?$char_traits@D@std@@V?$allocator@D@2@@std@@@Z$16 1003edc6 f   nodejieba.obj
 0001:0003ddd1       __ehhandler$?LoadUserDict@DictTrie@cppjieba@@AAEXABV?$basic_string@DU?$char_traits@D@std@@V?$allocator@D@2@@std@@@Z 1003edd1 f   nodejieba.obj
 0001:0003de00       __unwindfunclet$?MakeNodeInfo@DictTrie@cppjieba@@AAE_NAAUDictUnit@2@ABV?$basic_string@DU?$char_traits@D@std@@V?$allocator@D@2@@std@@N1@Z$0 1003ee00 f   nodejieba.obj
 0001:0003de0b       __ehhandler$?MakeNodeInfo@DictTrie@cppjieba@@AAE_NAAUDictUnit@2@ABV?$basic_string@DU?$char_traits@D@std@@V?$allocator@D@2@@std@@N1@Z 1003ee0b f   nodejieba.obj
 0001:0003de30       __unwindfunclet$?LoadDict@DictTrie@cppjieba@@AAEXABV?$basic_string@DU?$char_traits@D@std@@V?$allocator@D@2@@std@@@Z$0 1003ee30 f   nodejieba.obj
 0001:0003de3b       __unwindfunclet$?LoadDict@DictTrie@cppjieba@@AAEXABV?$basic_string@DU?$char_traits@D@std@@V?$allocator@D@2@@std@@@Z$1 1003ee3b f   nodejieba.obj
 0001:0003de46       __unwindfunclet$?LoadDict@DictTrie@cppjieba@@AAEXABV?$basic_string@DU?$char_traits@D@std@@V?$allocator@D@2@@std@@@Z$2 1003ee46 f   nodejieba.obj
 0001:0003de4e       __unwindfunclet$?LoadDict@DictTrie@cppjieba@@AAEXABV?$basic_string@DU?$char_traits@D@std@@V?$allocator@D@2@@std@@@Z$3 1003ee4e f   nodejieba.obj
 0001:0003de59       __unwindfunclet$?LoadDict@DictTrie@cppjieba@@AAEXABV?$basic_string@DU?$char_traits@D@std@@V?$allocator@D@2@@std@@@Z$4 1003ee59 f   nodejieba.obj
 0001:0003de64       __unwindfunclet$?LoadDict@DictTrie@cppjieba@@AAEXABV?$basic_string@DU?$char_traits@D@std@@V?$allocator@D@2@@std@@@Z$5 1003ee64 f   nodejieba.obj
 0001:0003de6c       __unwindfunclet$?LoadDict@DictTrie@cppjieba@@AAEXABV?$basic_string@DU?$char_traits@D@std@@V?$allocator@D@2@@std@@@Z$8 1003ee6c f   nodejieba.obj
 0001:0003de77       __unwindfunclet$?LoadDict@DictTrie@cppjieba@@AAEXABV?$basic_string@DU?$char_traits@D@std@@V?$allocator@D@2@@std@@@Z$6 1003ee77 f   nodejieba.obj
 0001:0003de82       __unwindfunclet$?LoadDict@DictTrie@cppjieba@@AAEXABV?$basic_string@DU?$char_traits@D@std@@V?$allocator@D@2@@std@@@Z$9 1003ee82 f   nodejieba.obj
 0001:0003de99       __unwindfunclet$?LoadDict@DictTrie@cppjieba@@AAEXABV?$basic_string@DU?$char_traits@D@std@@V?$allocator@D@2@@std@@@Z$10 1003ee99 f   nodejieba.obj
 0001:0003dea4       __unwindfunclet$?LoadDict@DictTrie@cppjieba@@AAEXABV?$basic_string@DU?$char_traits@D@std@@V?$allocator@D@2@@std@@@Z$12 1003eea4 f   nodejieba.obj
 0001:0003debb       __unwindfunclet$?LoadDict@DictTrie@cppjieba@@AAEXABV?$basic_string@DU?$char_traits@D@std@@V?$allocator@D@2@@std@@@Z$13 1003eebb f   nodejieba.obj
 0001:0003dec6       __ehhandler$?LoadDict@DictTrie@cppjieba@@AAEXABV?$basic_string@DU?$char_traits@D@std@@V?$allocator@D@2@@std@@@Z 1003eec6 f   nodejieba.obj
 0001:0003def0       __unwindfunclet$?SetStaticWordWeights@DictTrie@cppjieba@@AAEXW4UserWordWeightOption@12@@Z$0 1003eef0 f   nodejieba.obj
 0001:0003defb       __unwindfunclet$?SetStaticWordWeights@DictTrie@cppjieba@@AAEXW4UserWordWeightOption@12@@Z$1 1003eefb f   nodejieba.obj
 0001:0003df03       __ehhandler$?SetStaticWordWeights@DictTrie@cppjieba@@AAEXW4UserWordWeightOption@12@@Z 1003ef03 f   nodejieba.obj
 0001:0003df30       __unwindfunclet$??0PreFilter@cppjieba@@QAE@ABV?$unordered_set@IU?$hash@I@std@@U?$equal_to@I@2@V?$allocator@I@2@@std@@ABV?$basic_string@DU?$char_traits@D@std@@V?$allocator@D@2@@3@@Z$0 1003ef30 f   nodejieba.obj
 0001:0003df3b       __unwindfunclet$??0PreFilter@cppjieba@@QAE@ABV?$unordered_set@IU?$hash@I@std@@U?$equal_to@I@2@V?$allocator@I@2@@std@@ABV?$basic_string@DU?$char_traits@D@std@@V?$allocator@D@2@@3@@Z$1 1003ef3b f   nodejieba.obj
 0001:0003df46       __ehhandler$??0PreFilter@cppjieba@@QAE@ABV?$unordered_set@IU?$hash@I@std@@U?$equal_to@I@2@V?$allocator@I@2@@std@@ABV?$basic_string@DU?$char_traits@D@std@@V?$allocator@D@2@@3@@Z 1003ef46 f   nodejieba.obj
 0001:0003df70       __unwindfunclet$??0SegmentBase@cppjieba@@QAE@XZ$0 1003ef70 f   nodejieba.obj
 0001:0003df7b       __unwindfunclet$??0SegmentBase@cppjieba@@QAE@XZ$1 1003ef7b f   nodejieba.obj
 0001:0003df83       __unwindfunclet$??0SegmentBase@cppjieba@@QAE@XZ$2 1003ef83 f   nodejieba.obj
 0001:0003df8e       __ehhandler$??0SegmentBase@cppjieba@@QAE@XZ 1003ef8e f   nodejieba.obj
 0001:0003dfc0       __unwindfunclet$?ResetSeparators@SegmentBase@cppjieba@@QAE_NABV?$basic_string@DU?$char_traits@D@std@@V?$allocator@D@2@@std@@@Z$0 1003efc0 f   nodejieba.obj
 0001:0003dfc8       __unwindfunclet$?ResetSeparators@SegmentBase@cppjieba@@QAE_NABV?$basic_string@DU?$char_traits@D@std@@V?$allocator@D@2@@std@@@Z$1 1003efc8 f   nodejieba.obj
 0001:0003dfd3       __unwindfunclet$?ResetSeparators@SegmentBase@cppjieba@@QAE_NABV?$basic_string@DU?$char_traits@D@std@@V?$allocator@D@2@@std@@@Z$2 1003efd3 f   nodejieba.obj
 0001:0003dfde       __unwindfunclet$?ResetSeparators@SegmentBase@cppjieba@@QAE_NABV?$basic_string@DU?$char_traits@D@std@@V?$allocator@D@2@@std@@@Z$3 1003efde f   nodejieba.obj
 0001:0003dfe9       __ehhandler$?ResetSeparators@SegmentBase@cppjieba@@QAE_NABV?$basic_string@DU?$char_traits@D@std@@V?$allocator@D@2@@std@@@Z 1003efe9 f   nodejieba.obj
 0001:0003e020       __unwindfunclet$?Cut@FullSegment@cppjieba@@UBEXABV?$basic_string@DU?$char_traits@D@std@@V?$allocator@D@2@@std@@AAV?$vector@V?$basic_string@DU?$char_traits@D@std@@V?$allocator@D@2@@std@@V?$allocator@V?$basic_string@DU?$char_traits@D@std@@V?$allocator@D@2@@std@@@2@@4@@Z$0 1003f020 f   nodejieba.obj
 0001:0003e020       __unwindfunclet$?Cut@HMMSegment@cppjieba@@UBEXABV?$basic_string@DU?$char_traits@D@std@@V?$allocator@D@2@@std@@AAV?$vector@V?$basic_string@DU?$char_traits@D@std@@V?$allocator@D@2@@std@@V?$allocator@V?$basic_string@DU?$char_traits@D@std@@V?$allocator@D@2@@std@@@2@@4@@Z$0 1003f020 f   nodejieba.obj
 0001:0003e020       __unwindfunclet$?Cut@MPSegment@cppjieba@@QBEXABV?$basic_string@DU?$char_traits@D@std@@V?$allocator@D@2@@std@@AAV?$vector@V?$basic_string@DU?$char_traits@D@std@@V?$allocator@D@2@@std@@V?$allocator@V?$basic_string@DU?$char_traits@D@std@@V?$allocator@D@2@@std@@@2@@4@I@Z$0 1003f020 f   nodejieba.obj
 0001:0003e020       __unwindfunclet$?Cut@QuerySegment@cppjieba@@QBEXABV?$basic_string@DU?$char_traits@D@std@@V?$allocator@D@2@@std@@AAV?$vector@V?$basic_string@DU?$char_traits@D@std@@V?$allocator@D@2@@std@@V?$allocator@V?$basic_string@DU?$char_traits@D@std@@V?$allocator@D@2@@std@@@2@@4@_N@Z$0 1003f020 f   nodejieba.obj
 0001:0003e020       __unwindfunclet$?Cut@MixSegment@cppjieba@@QBEXABV?$basic_string@DU?$char_traits@D@std@@V?$allocator@D@2@@std@@AAV?$vector@V?$basic_string@DU?$char_traits@D@std@@V?$allocator@D@2@@std@@V?$allocator@V?$basic_string@DU?$char_traits@D@std@@V?$allocator@D@2@@std@@@2@@4@_N@Z$0 1003f020 f   nodejieba.obj
 0001:0003e028       __ehhandler$?Cut@MixSegment@cppjieba@@QBEXABV?$basic_string@DU?$char_traits@D@std@@V?$allocator@D@2@@std@@AAV?$vector@V?$basic_string@DU?$char_traits@D@std@@V?$allocator@D@2@@std@@V?$allocator@V?$basic_string@DU?$char_traits@D@std@@V?$allocator@D@2@@std@@@2@@4@_N@Z 1003f028 f   nodejieba.obj
 0001:0003e028       __ehhandler$?Cut@HMMSegment@cppjieba@@UBEXABV?$basic_string@DU?$char_traits@D@std@@V?$allocator@D@2@@std@@AAV?$vector@V?$basic_string@DU?$char_traits@D@std@@V?$allocator@D@2@@std@@V?$allocator@V?$basic_string@DU?$char_traits@D@std@@V?$allocator@D@2@@std@@@2@@4@@Z 1003f028 f   nodejieba.obj
 0001:0003e028       __ehhandler$?Cut@FullSegment@cppjieba@@UBEXABV?$basic_string@DU?$char_traits@D@std@@V?$allocator@D@2@@std@@AAV?$vector@V?$basic_string@DU?$char_traits@D@std@@V?$allocator@D@2@@std@@V?$allocator@V?$basic_string@DU?$char_traits@D@std@@V?$allocator@D@2@@std@@@2@@4@@Z 1003f028 f   nodejieba.obj
 0001:0003e028       __ehhandler$?Cut@QuerySegment@cppjieba@@QBEXABV?$basic_string@DU?$char_traits@D@std@@V?$allocator@D@2@@std@@AAV?$vector@V?$basic_string@DU?$char_traits@D@std@@V?$allocator@D@2@@std@@V?$allocator@V?$basic_string@DU?$char_traits@D@std@@V?$allocator@D@2@@std@@@2@@4@_N@Z 1003f028 f   nodejieba.obj
 0001:0003e028       __ehhandler$?Cut@MPSegment@cppjieba@@QBEXABV?$basic_string@DU?$char_traits@D@std@@V?$allocator@D@2@@std@@AAV?$vector@V?$basic_string@DU?$char_traits@D@std@@V?$allocator@D@2@@std@@V?$allocator@V?$basic_string@DU?$char_traits@D@std@@V?$allocator@D@2@@std@@@2@@4@I@Z 1003f028 f   nodejieba.obj
 0001:0003e050       __unwindfunclet$?Cut@FullSegment@cppjieba@@QBEXABV?$basic_string@DU?$char_traits@D@std@@V?$allocator@D@2@@std@@AAV?$vector@UWord@cppjieba@@V?$allocator@UWord@cppjieba@@@std@@@4@@Z$0 1003f050 f   nodejieba.obj
 0001:0003e050       __unwindfunclet$?Cut@MixSegment@cppjieba@@QBEXABV?$basic_string@DU?$char_traits@D@std@@V?$allocator@D@2@@std@@AAV?$vector@UWord@cppjieba@@V?$allocator@UWord@cppjieba@@@std@@@4@_N@Z$0 1003f050 f   nodejieba.obj
 0001:0003e050       __unwindfunclet$?Cut@HMMSegment@cppjieba@@QBEXABV?$basic_string@DU?$char_traits@D@std@@V?$allocator@D@2@@std@@AAV?$vector@UWord@cppjieba@@V?$allocator@UWord@cppjieba@@@std@@@4@@Z$0 1003f050 f   nodejieba.obj
 0001:0003e050       __unwindfunclet$?Cut@MPSegment@cppjieba@@QBEXABV?$basic_string@DU?$char_traits@D@std@@V?$allocator@D@2@@std@@AAV?$vector@UWord@cppjieba@@V?$allocator@UWord@cppjieba@@@std@@@4@I@Z$0 1003f050 f   nodejieba.obj
 0001:0003e050       __unwindfunclet$?Cut@QuerySegment@cppjieba@@QBEXABV?$basic_string@DU?$char_traits@D@std@@V?$allocator@D@2@@std@@AAV?$vector@UWord@cppjieba@@V?$allocator@UWord@cppjieba@@@std@@@4@_N@Z$0 1003f050 f   nodejieba.obj
 0001:0003e058       __unwindfunclet$?Cut@FullSegment@cppjieba@@QBEXABV?$basic_string@DU?$char_traits@D@std@@V?$allocator@D@2@@std@@AAV?$vector@UWord@cppjieba@@V?$allocator@UWord@cppjieba@@@std@@@4@@Z$1 1003f058 f   nodejieba.obj
 0001:0003e058       __unwindfunclet$?Cut@MixSegment@cppjieba@@QBEXABV?$basic_string@DU?$char_traits@D@std@@V?$allocator@D@2@@std@@AAV?$vector@UWord@cppjieba@@V?$allocator@UWord@cppjieba@@@std@@@4@_N@Z$1 1003f058 f   nodejieba.obj
 0001:0003e058       __unwindfunclet$?Cut@HMMSegment@cppjieba@@QBEXABV?$basic_string@DU?$char_traits@D@std@@V?$allocator@D@2@@std@@AAV?$vector@UWord@cppjieba@@V?$allocator@UWord@cppjieba@@@std@@@4@@Z$1 1003f058 f   nodejieba.obj
 0001:0003e058       __unwindfunclet$?Cut@MPSegment@cppjieba@@QBEXABV?$basic_string@DU?$char_traits@D@std@@V?$allocator@D@2@@std@@AAV?$vector@UWord@cppjieba@@V?$allocator@UWord@cppjieba@@@std@@@4@I@Z$1 1003f058 f   nodejieba.obj
 0001:0003e058       __unwindfunclet$?Cut@QuerySegment@cppjieba@@QBEXABV?$basic_string@DU?$char_traits@D@std@@V?$allocator@D@2@@std@@AAV?$vector@UWord@cppjieba@@V?$allocator@UWord@cppjieba@@@std@@@4@_N@Z$1 1003f058 f   nodejieba.obj
 0001:0003e060       __ehhandler$?Cut@FullSegment@cppjieba@@QBEXABV?$basic_string@DU?$char_traits@D@std@@V?$allocator@D@2@@std@@AAV?$vector@UWord@cppjieba@@V?$allocator@UWord@cppjieba@@@std@@@4@@Z 1003f060 f   nodejieba.obj
 0001:0003e060       __ehhandler$?Cut@MixSegment@cppjieba@@QBEXABV?$basic_string@DU?$char_traits@D@std@@V?$allocator@D@2@@std@@AAV?$vector@UWord@cppjieba@@V?$allocator@UWord@cppjieba@@@std@@@4@_N@Z 1003f060 f   nodejieba.obj
 0001:0003e060       __ehhandler$?Cut@MPSegment@cppjieba@@QBEXABV?$basic_string@DU?$char_traits@D@std@@V?$allocator@D@2@@std@@AAV?$vector@UWord@cppjieba@@V?$allocator@UWord@cppjieba@@@std@@@4@I@Z 1003f060 f   nodejieba.obj
 0001:0003e060       __ehhandler$?Cut@QuerySegment@cppjieba@@QBEXABV?$basic_string@DU?$char_traits@D@std@@V?$allocator@D@2@@std@@AAV?$vector@UWord@cppjieba@@V?$allocator@UWord@cppjieba@@@std@@@4@_N@Z 1003f060 f   nodejieba.obj
 0001:0003e060       __ehhandler$?Cut@HMMSegment@cppjieba@@QBEXABV?$basic_string@DU?$char_traits@D@std@@V?$allocator@D@2@@std@@AAV?$vector@UWord@cppjieba@@V?$allocator@UWord@cppjieba@@@std@@@4@@Z 1003f060 f   nodejieba.obj
 0001:0003e090       __unwindfunclet$?Cut@FullSegment@cppjieba@@QBEXPBURuneStr@2@0AAV?$vector@UWordRange@cppjieba@@V?$allocator@UWordRange@cppjieba@@@std@@@std@@@Z$0 1003f090 f   nodejieba.obj
 0001:0003e098       __unwindfunclet$?Cut@FullSegment@cppjieba@@QBEXPBURuneStr@2@0AAV?$vector@UWordRange@cppjieba@@V?$allocator@UWordRange@cppjieba@@@std@@@std@@@Z$1 1003f098 f   nodejieba.obj
 0001:0003e0a0       __ehhandler$?Cut@FullSegment@cppjieba@@QBEXPBURuneStr@2@0AAV?$vector@UWordRange@cppjieba@@V?$allocator@UWordRange@cppjieba@@@std@@@std@@@Z 1003f0a0 f   nodejieba.obj
 0001:0003e0d0       __unwindfunclet$?Tag@PosTagger@cppjieba@@QBE_NABV?$basic_string@DU?$char_traits@D@std@@V?$allocator@D@2@@std@@AAV?$vector@U?$pair@V?$basic_string@DU?$char_traits@D@std@@V?$allocator@D@2@@std@@V12@@std@@V?$allocator@U?$pair@V?$basic_string@DU?$char_traits@D@std@@V?$allocator@D@2@@std@@V12@@std@@@2@@4@ABVSegmentTagged@2@@Z$0 1003f0d0 f   nodejieba.obj
 0001:0003e0d8       __unwindfunclet$?Tag@PosTagger@cppjieba@@QBE_NABV?$basic_string@DU?$char_traits@D@std@@V?$allocator@D@2@@std@@AAV?$vector@U?$pair@V?$basic_string@DU?$char_traits@D@std@@V?$allocator@D@2@@std@@V12@@std@@V?$allocator@U?$pair@V?$basic_string@DU?$char_traits@D@std@@V?$allocator@D@2@@std@@V12@@std@@@2@@4@ABVSegmentTagged@2@@Z$1 1003f0d8 f   nodejieba.obj
 0001:0003e0e0       __unwindfunclet$?Tag@PosTagger@cppjieba@@QBE_NABV?$basic_string@DU?$char_traits@D@std@@V?$allocator@D@2@@std@@AAV?$vector@U?$pair@V?$basic_string@DU?$char_traits@D@std@@V?$allocator@D@2@@std@@V12@@std@@V?$allocator@U?$pair@V?$basic_string@DU?$char_traits@D@std@@V?$allocator@D@2@@std@@V12@@std@@@2@@4@ABVSegmentTagged@2@@Z$2 1003f0e0 f   nodejieba.obj
 0001:0003e0e8       __ehhandler$?Tag@PosTagger@cppjieba@@QBE_NABV?$basic_string@DU?$char_traits@D@std@@V?$allocator@D@2@@std@@AAV?$vector@U?$pair@V?$basic_string@DU?$char_traits@D@std@@V?$allocator@D@2@@std@@V12@@std@@V?$allocator@U?$pair@V?$basic_string@DU?$char_traits@D@std@@V?$allocator@D@2@@std@@V12@@std@@@2@@4@ABVSegmentTagged@2@@Z 1003f0e8 f   nodejieba.obj
 0001:0003e110       __unwindfunclet$?LookupTag@PosTagger@cppjieba@@QBE?AV?$basic_string@DU?$char_traits@D@std@@V?$allocator@D@2@@std@@ABV34@ABVSegmentTagged@2@@Z$0 1003f110 f   nodejieba.obj
 0001:0003e11b       __unwindfunclet$?LookupTag@PosTagger@cppjieba@@QBE?AV?$basic_string@DU?$char_traits@D@std@@V?$allocator@D@2@@std@@ABV34@ABVSegmentTagged@2@@Z$1 1003f11b f   nodejieba.obj
 0001:0003e126       __ehhandler$?LookupTag@PosTagger@cppjieba@@QBE?AV?$basic_string@DU?$char_traits@D@std@@V?$allocator@D@2@@std@@ABV34@ABVSegmentTagged@2@@Z 1003f126 f   nodejieba.obj
 0001:0003e150       __unwindfunclet$?Cut@MPSegment@cppjieba@@QBEXPBURuneStr@2@0AAV?$vector@UWordRange@cppjieba@@V?$allocator@UWordRange@cppjieba@@@std@@@std@@I@Z$0 1003f150 f   nodejieba.obj
 0001:0003e158       __ehhandler$?Cut@MPSegment@cppjieba@@QBEXPBURuneStr@2@0AAV?$vector@UWordRange@cppjieba@@V?$allocator@UWordRange@cppjieba@@@std@@@std@@I@Z 1003f158 f   nodejieba.obj
 0001:0003e180       __unwindfunclet$??0HMMModel@cppjieba@@QAE@ABV?$basic_string@DU?$char_traits@D@std@@V?$allocator@D@2@@std@@@Z$0 1003f180 f   nodejieba.obj
 0001:0003e18e       __unwindfunclet$??0HMMModel@cppjieba@@QAE@ABV?$basic_string@DU?$char_traits@D@std@@V?$allocator@D@2@@std@@@Z$1 1003f18e f   nodejieba.obj
 0001:0003e19c       __unwindfunclet$??0HMMModel@cppjieba@@QAE@ABV?$basic_string@DU?$char_traits@D@std@@V?$allocator@D@2@@std@@@Z$2 1003f19c f   nodejieba.obj
 0001:0003e1aa       __unwindfunclet$??0HMMModel@cppjieba@@QAE@ABV?$basic_string@DU?$char_traits@D@std@@V?$allocator@D@2@@std@@@Z$3 1003f1aa f   nodejieba.obj
 0001:0003e1b8       __unwindfunclet$??0HMMModel@cppjieba@@QAE@ABV?$basic_string@DU?$char_traits@D@std@@V?$allocator@D@2@@std@@@Z$4 1003f1b8 f   nodejieba.obj
 0001:0003e1c6       __ehhandler$??0HMMModel@cppjieba@@QAE@ABV?$basic_string@DU?$char_traits@D@std@@V?$allocator@D@2@@std@@@Z 1003f1c6 f   nodejieba.obj
 0001:0003e1f0       __unwindfunclet$?LoadModel@HMMModel@cppjieba@@QAEXABV?$basic_string@DU?$char_traits@D@std@@V?$allocator@D@2@@std@@@Z$0 1003f1f0 f   nodejieba.obj
 0001:0003e1fb       __unwindfunclet$?LoadModel@HMMModel@cppjieba@@QAEXABV?$basic_string@DU?$char_traits@D@std@@V?$allocator@D@2@@std@@@Z$1 1003f1fb f   nodejieba.obj
 0001:0003e206       __unwindfunclet$?LoadModel@HMMModel@cppjieba@@QAEXABV?$basic_string@DU?$char_traits@D@std@@V?$allocator@D@2@@std@@@Z$2 1003f206 f   nodejieba.obj
 0001:0003e20e       __unwindfunclet$?LoadModel@HMMModel@cppjieba@@QAEXABV?$basic_string@DU?$char_traits@D@std@@V?$allocator@D@2@@std@@@Z$3 1003f20e f   nodejieba.obj
 0001:0003e216       __unwindfunclet$?LoadModel@HMMModel@cppjieba@@QAEXABV?$basic_string@DU?$char_traits@D@std@@V?$allocator@D@2@@std@@@Z$4 1003f216 f   nodejieba.obj
 0001:0003e221       __unwindfunclet$?LoadModel@HMMModel@cppjieba@@QAEXABV?$basic_string@DU?$char_traits@D@std@@V?$allocator@D@2@@std@@@Z$5 1003f221 f   nodejieba.obj
 0001:0003e22c       __unwindfunclet$?LoadModel@HMMModel@cppjieba@@QAEXABV?$basic_string@DU?$char_traits@D@std@@V?$allocator@D@2@@std@@@Z$6 1003f22c f   nodejieba.obj
 0001:0003e234       __unwindfunclet$?LoadModel@HMMModel@cppjieba@@QAEXABV?$basic_string@DU?$char_traits@D@std@@V?$allocator@D@2@@std@@@Z$7 1003f234 f   nodejieba.obj
 0001:0003e23f       __unwindfunclet$?LoadModel@HMMModel@cppjieba@@QAEXABV?$basic_string@DU?$char_traits@D@std@@V?$allocator@D@2@@std@@@Z$19 1003f23f f   nodejieba.obj
 0001:0003e24a       __unwindfunclet$?LoadModel@HMMModel@cppjieba@@QAEXABV?$basic_string@DU?$char_traits@D@std@@V?$allocator@D@2@@std@@@Z$8 1003f24a f   nodejieba.obj
 0001:0003e255       __unwindfunclet$?LoadModel@HMMModel@cppjieba@@QAEXABV?$basic_string@DU?$char_traits@D@std@@V?$allocator@D@2@@std@@@Z$9 1003f255 f   nodejieba.obj
 0001:0003e25d       __unwindfunclet$?LoadModel@HMMModel@cppjieba@@QAEXABV?$basic_string@DU?$char_traits@D@std@@V?$allocator@D@2@@std@@@Z$20 1003f25d f   nodejieba.obj
 0001:0003e268       __unwindfunclet$?LoadModel@HMMModel@cppjieba@@QAEXABV?$basic_string@DU?$char_traits@D@std@@V?$allocator@D@2@@std@@@Z$10 1003f268 f   nodejieba.obj
 0001:0003e273       __unwindfunclet$?LoadModel@HMMModel@cppjieba@@QAEXABV?$basic_string@DU?$char_traits@D@std@@V?$allocator@D@2@@std@@@Z$21 1003f273 f   nodejieba.obj
 0001:0003e27e       __unwindfunclet$?LoadModel@HMMModel@cppjieba@@QAEXABV?$basic_string@DU?$char_traits@D@std@@V?$allocator@D@2@@std@@@Z$11 1003f27e f   nodejieba.obj
 0001:0003e289       __unwindfunclet$?LoadModel@HMMModel@cppjieba@@QAEXABV?$basic_string@DU?$char_traits@D@std@@V?$allocator@D@2@@std@@@Z$22 1003f289 f   nodejieba.obj
 0001:0003e294       __unwindfunclet$?LoadModel@HMMModel@cppjieba@@QAEXABV?$basic_string@DU?$char_traits@D@std@@V?$allocator@D@2@@std@@@Z$12 1003f294 f   nodejieba.obj
 0001:0003e29f       __unwindfunclet$?LoadModel@HMMModel@cppjieba@@QAEXABV?$basic_string@DU?$char_traits@D@std@@V?$allocator@D@2@@std@@@Z$23 1003f29f f   nodejieba.obj
 0001:0003e2aa       __unwindfunclet$?LoadModel@HMMModel@cppjieba@@QAEXABV?$basic_string@DU?$char_traits@D@std@@V?$allocator@D@2@@std@@@Z$13 1003f2aa f   nodejieba.obj
 0001:0003e2b5       __unwindfunclet$?LoadModel@HMMModel@cppjieba@@QAEXABV?$basic_string@DU?$char_traits@D@std@@V?$allocator@D@2@@std@@@Z$24 1003f2b5 f   nodejieba.obj
 0001:0003e2c0       __unwindfunclet$?LoadModel@HMMModel@cppjieba@@QAEXABV?$basic_string@DU?$char_traits@D@std@@V?$allocator@D@2@@std@@@Z$14 1003f2c0 f   nodejieba.obj
 0001:0003e2cb       __unwindfunclet$?LoadModel@HMMModel@cppjieba@@QAEXABV?$basic_string@DU?$char_traits@D@std@@V?$allocator@D@2@@std@@@Z$25 1003f2cb f   nodejieba.obj
 0001:0003e2d6       __unwindfunclet$?LoadModel@HMMModel@cppjieba@@QAEXABV?$basic_string@DU?$char_traits@D@std@@V?$allocator@D@2@@std@@@Z$15 1003f2d6 f   nodejieba.obj
 0001:0003e2e1       __unwindfunclet$?LoadModel@HMMModel@cppjieba@@QAEXABV?$basic_string@DU?$char_traits@D@std@@V?$allocator@D@2@@std@@@Z$26 1003f2e1 f   nodejieba.obj
 0001:0003e2ec       __unwindfunclet$?LoadModel@HMMModel@cppjieba@@QAEXABV?$basic_string@DU?$char_traits@D@std@@V?$allocator@D@2@@std@@@Z$16 1003f2ec f   nodejieba.obj
 0001:0003e2f7       __unwindfunclet$?LoadModel@HMMModel@cppjieba@@QAEXABV?$basic_string@DU?$char_traits@D@std@@V?$allocator@D@2@@std@@@Z$27 1003f2f7 f   nodejieba.obj
 0001:0003e302       __unwindfunclet$?LoadModel@HMMModel@cppjieba@@QAEXABV?$basic_string@DU?$char_traits@D@std@@V?$allocator@D@2@@std@@@Z$17 1003f302 f   nodejieba.obj
 0001:0003e30d       __unwindfunclet$?LoadModel@HMMModel@cppjieba@@QAEXABV?$basic_string@DU?$char_traits@D@std@@V?$allocator@D@2@@std@@@Z$28 1003f30d f   nodejieba.obj
 0001:0003e318       __unwindfunclet$?LoadModel@HMMModel@cppjieba@@QAEXABV?$basic_string@DU?$char_traits@D@std@@V?$allocator@D@2@@std@@@Z$18 1003f318 f   nodejieba.obj
 0001:0003e323       __ehhandler$?LoadModel@HMMModel@cppjieba@@QAEXABV?$basic_string@DU?$char_traits@D@std@@V?$allocator@D@2@@std@@@Z 1003f323 f   nodejieba.obj
 0001:0003e350       __unwindfunclet$?GetLine@HMMModel@cppjieba@@QAE_NAAV?$basic_ifstream@DU?$char_traits@D@std@@@std@@AAV?$basic_string@DU?$char_traits@D@std@@V?$allocator@D@2@@4@@Z$0 1003f350 f   nodejieba.obj
 0001:0003e358       __ehhandler$?GetLine@HMMModel@cppjieba@@QAE_NAAV?$basic_ifstream@DU?$char_traits@D@std@@@std@@AAV?$basic_string@DU?$char_traits@D@std@@V?$allocator@D@2@@4@@Z 1003f358 f   nodejieba.obj
 0001:0003e380       __unwindfunclet$?LoadEmitProb@HMMModel@cppjieba@@QAE_NABV?$basic_string@DU?$char_traits@D@std@@V?$allocator@D@2@@std@@AAV?$unordered_map@INU?$hash@I@std@@U?$equal_to@I@2@V?$allocator@U?$pair@$$CBIN@std@@@2@@4@@Z$0 1003f380 f   nodejieba.obj
 0001:0003e388       __unwindfunclet$?LoadEmitProb@HMMModel@cppjieba@@QAE_NABV?$basic_string@DU?$char_traits@D@std@@V?$allocator@D@2@@std@@AAV?$unordered_map@INU?$hash@I@std@@U?$equal_to@I@2@V?$allocator@U?$pair@$$CBIN@std@@@2@@4@@Z$1 1003f388 f   nodejieba.obj
 0001:0003e390       __unwindfunclet$?LoadEmitProb@HMMModel@cppjieba@@QAE_NABV?$basic_string@DU?$char_traits@D@std@@V?$allocator@D@2@@std@@AAV?$unordered_map@INU?$hash@I@std@@U?$equal_to@I@2@V?$allocator@U?$pair@$$CBIN@std@@@2@@4@@Z$2 1003f390 f   nodejieba.obj
 0001:0003e398       __unwindfunclet$?LoadEmitProb@HMMModel@cppjieba@@QAE_NABV?$basic_string@DU?$char_traits@D@std@@V?$allocator@D@2@@std@@AAV?$unordered_map@INU?$hash@I@std@@U?$equal_to@I@2@V?$allocator@U?$pair@$$CBIN@std@@@2@@4@@Z$3 1003f398 f   nodejieba.obj
 0001:0003e3a0       __unwindfunclet$?LoadEmitProb@HMMModel@cppjieba@@QAE_NABV?$basic_string@DU?$char_traits@D@std@@V?$allocator@D@2@@std@@AAV?$unordered_map@INU?$hash@I@std@@U?$equal_to@I@2@V?$allocator@U?$pair@$$CBIN@std@@@2@@4@@Z$4 1003f3a0 f   nodejieba.obj
 0001:0003e3a8       __unwindfunclet$?LoadEmitProb@HMMModel@cppjieba@@QAE_NABV?$basic_string@DU?$char_traits@D@std@@V?$allocator@D@2@@std@@AAV?$unordered_map@INU?$hash@I@std@@U?$equal_to@I@2@V?$allocator@U?$pair@$$CBIN@std@@@2@@4@@Z$6 1003f3a8 f   nodejieba.obj
 0001:0003e3b3       __unwindfunclet$?LoadEmitProb@HMMModel@cppjieba@@QAE_NABV?$basic_string@DU?$char_traits@D@std@@V?$allocator@D@2@@std@@AAV?$unordered_map@INU?$hash@I@std@@U?$equal_to@I@2@V?$allocator@U?$pair@$$CBIN@std@@@2@@4@@Z$5 1003f3b3 f   nodejieba.obj
 0001:0003e3be       __ehhandler$?LoadEmitProb@HMMModel@cppjieba@@QAE_NABV?$basic_string@DU?$char_traits@D@std@@V?$allocator@D@2@@std@@AAV?$unordered_map@INU?$hash@I@std@@U?$equal_to@I@2@V?$allocator@U?$pair@$$CBIN@std@@@2@@4@@Z 1003f3be f   nodejieba.obj
 0001:0003e3f0       __unwindfunclet$?InternalCut@HMMSegment@cppjieba@@ABEXPBURuneStr@2@0AAV?$vector@UWordRange@cppjieba@@V?$allocator@UWordRange@cppjieba@@@std@@@std@@@Z$0 1003f3f0 f   nodejieba.obj
 0001:0003e3f8       __ehhandler$?InternalCut@HMMSegment@cppjieba@@ABEXPBURuneStr@2@0AAV?$vector@UWordRange@cppjieba@@V?$allocator@UWordRange@cppjieba@@@std@@@std@@@Z 1003f3f8 f   nodejieba.obj
 0001:0003e420       __unwindfunclet$?Viterbi@HMMSegment@cppjieba@@ABEXPBURuneStr@2@0AAV?$vector@IV?$allocator@I@std@@@std@@@Z$0 1003f420 f   nodejieba.obj
 0001:0003e428       __unwindfunclet$?Viterbi@HMMSegment@cppjieba@@ABEXPBURuneStr@2@0AAV?$vector@IV?$allocator@I@std@@@std@@@Z$1 1003f428 f   nodejieba.obj
 0001:0003e430       __ehhandler$?Viterbi@HMMSegment@cppjieba@@ABEXPBURuneStr@2@0AAV?$vector@IV?$allocator@I@std@@@std@@@Z 1003f430 f   nodejieba.obj
 0001:0003e450       __unwindfunclet$??0MixSegment@cppjieba@@QAE@PBVDictTrie@1@PBUHMMModel@1@@Z$0 1003f450 f   nodejieba.obj
 0001:0003e458       __unwindfunclet$??0MixSegment@cppjieba@@QAE@PBVDictTrie@1@PBUHMMModel@1@@Z$1 1003f458 f   nodejieba.obj
 0001:0003e463       __ehhandler$??0MixSegment@cppjieba@@QAE@PBVDictTrie@1@PBUHMMModel@1@@Z 1003f463 f   nodejieba.obj
 0001:0003e480       __unwindfunclet$?Cut@MixSegment@cppjieba@@QBEXPBURuneStr@2@0AAV?$vector@UWordRange@cppjieba@@V?$allocator@UWordRange@cppjieba@@@std@@@std@@_N@Z$0 1003f480 f   nodejieba.obj
 0001:0003e480       __unwindfunclet$?Cut@QuerySegment@cppjieba@@QBEXPBURuneStr@2@0AAV?$vector@UWordRange@cppjieba@@V?$allocator@UWordRange@cppjieba@@@std@@@std@@_N@Z$0 1003f480 f   nodejieba.obj
 0001:0003e488       __unwindfunclet$?Cut@QuerySegment@cppjieba@@QBEXPBURuneStr@2@0AAV?$vector@UWordRange@cppjieba@@V?$allocator@UWordRange@cppjieba@@@std@@@std@@_N@Z$1 1003f488 f   nodejieba.obj
 0001:0003e488       __unwindfunclet$?Cut@MixSegment@cppjieba@@QBEXPBURuneStr@2@0AAV?$vector@UWordRange@cppjieba@@V?$allocator@UWordRange@cppjieba@@@std@@@std@@_N@Z$1 1003f488 f   nodejieba.obj
 0001:0003e490       __ehhandler$?Cut@MixSegment@cppjieba@@QBEXPBURuneStr@2@0AAV?$vector@UWordRange@cppjieba@@V?$allocator@UWordRange@cppjieba@@@std@@@std@@_N@Z 1003f490 f   nodejieba.obj
 0001:0003e490       __ehhandler$?Cut@QuerySegment@cppjieba@@QBEXPBURuneStr@2@0AAV?$vector@UWordRange@cppjieba@@V?$allocator@UWordRange@cppjieba@@@std@@@std@@_N@Z 1003f490 f   nodejieba.obj
 0001:0003e4b0       __unwindfunclet$??0Jieba@cppjieba@@QAE@ABV?$basic_string@DU?$char_traits@D@std@@V?$allocator@D@2@@std@@00@Z$0 1003f4b0 f   nodejieba.obj
 0001:0003e4b8       __unwindfunclet$??0Jieba@cppjieba@@QAE@ABV?$basic_string@DU?$char_traits@D@std@@V?$allocator@D@2@@std@@00@Z$1 1003f4b8 f   nodejieba.obj
 0001:0003e4c3       __unwindfunclet$??0Jieba@cppjieba@@QAE@ABV?$basic_string@DU?$char_traits@D@std@@V?$allocator@D@2@@std@@00@Z$2 1003f4c3 f   nodejieba.obj
 0001:0003e4d1       __unwindfunclet$??0Jieba@cppjieba@@QAE@ABV?$basic_string@DU?$char_traits@D@std@@V?$allocator@D@2@@std@@00@Z$3 1003f4d1 f   nodejieba.obj
 0001:0003e4df       __unwindfunclet$??0Jieba@cppjieba@@QAE@ABV?$basic_string@DU?$char_traits@D@std@@V?$allocator@D@2@@std@@00@Z$4 1003f4df f   nodejieba.obj
 0001:0003e4ed       __unwindfunclet$??0Jieba@cppjieba@@QAE@ABV?$basic_string@DU?$char_traits@D@std@@V?$allocator@D@2@@std@@00@Z$5 1003f4ed f   nodejieba.obj
 0001:0003e4fb       __unwindfunclet$??0Jieba@cppjieba@@QAE@ABV?$basic_string@DU?$char_traits@D@std@@V?$allocator@D@2@@std@@00@Z$11 1003f4fb f   nodejieba.obj
 0001:0003e503       __ehhandler$??0Jieba@cppjieba@@QAE@ABV?$basic_string@DU?$char_traits@D@std@@V?$allocator@D@2@@std@@00@Z 1003f503 f   nodejieba.obj
 0001:0003e520       __unwindfunclet$??0KeywordExtractor@cppjieba@@QAE@PBVDictTrie@1@PBUHMMModel@1@ABV?$basic_string@DU?$char_traits@D@std@@V?$allocator@D@2@@std@@2@Z$0 1003f520 f   nodejieba.obj
 0001:0003e528       __unwindfunclet$??0KeywordExtractor@cppjieba@@QAE@PBVDictTrie@1@PBUHMMModel@1@ABV?$basic_string@DU?$char_traits@D@std@@V?$allocator@D@2@@std@@2@Z$1 1003f528 f   nodejieba.obj
 0001:0003e536       __unwindfunclet$??0KeywordExtractor@cppjieba@@QAE@PBVDictTrie@1@PBUHMMModel@1@ABV?$basic_string@DU?$char_traits@D@std@@V?$allocator@D@2@@std@@2@Z$2 1003f536 f   nodejieba.obj
 0001:0003e544       __ehhandler$??0KeywordExtractor@cppjieba@@QAE@PBVDictTrie@1@PBUHMMModel@1@ABV?$basic_string@DU?$char_traits@D@std@@V?$allocator@D@2@@std@@2@Z 1003f544 f   nodejieba.obj
 0001:0003e560       __unwindfunclet$?Extract@KeywordExtractor@cppjieba@@QBEXABV?$basic_string@DU?$char_traits@D@std@@V?$allocator@D@2@@std@@AAV?$vector@U?$pair@V?$basic_string@DU?$char_traits@D@std@@V?$allocator@D@2@@std@@N@std@@V?$allocator@U?$pair@V?$basic_string@DU?$char_traits@D@std@@V?$allocator@D@2@@std@@N@std@@@2@@4@I@Z$0 1003f560 f   nodejieba.obj
 0001:0003e568       __unwindfunclet$?Extract@KeywordExtractor@cppjieba@@QBEXABV?$basic_string@DU?$char_traits@D@std@@V?$allocator@D@2@@std@@AAV?$vector@U?$pair@V?$basic_string@DU?$char_traits@D@std@@V?$allocator@D@2@@std@@N@std@@V?$allocator@U?$pair@V?$basic_string@DU?$char_traits@D@std@@V?$allocator@D@2@@std@@N@std@@@2@@4@I@Z$1 1003f568 f   nodejieba.obj
 0001:0003e570       __ehhandler$?Extract@KeywordExtractor@cppjieba@@QBEXABV?$basic_string@DU?$char_traits@D@std@@V?$allocator@D@2@@std@@AAV?$vector@U?$pair@V?$basic_string@DU?$char_traits@D@std@@V?$allocator@D@2@@std@@N@std@@V?$allocator@U?$pair@V?$basic_string@DU?$char_traits@D@std@@V?$allocator@D@2@@std@@N@std@@@2@@4@I@Z 1003f570 f   nodejieba.obj
 0001:0003e5a0       __unwindfunclet$?Extract@KeywordExtractor@cppjieba@@QBEXABV?$basic_string@DU?$char_traits@D@std@@V?$allocator@D@2@@std@@AAV?$vector@UWord@KeywordExtractor@cppjieba@@V?$allocator@UWord@KeywordExtractor@cppjieba@@@std@@@4@I@Z$0 1003f5a0 f   nodejieba.obj
 0001:0003e5a8       __unwindfunclet$?Extract@KeywordExtractor@cppjieba@@QBEXABV?$basic_string@DU?$char_traits@D@std@@V?$allocator@D@2@@std@@AAV?$vector@UWord@KeywordExtractor@cppjieba@@V?$allocator@UWord@KeywordExtractor@cppjieba@@@std@@@4@I@Z$1 1003f5a8 f   nodejieba.obj
 0001:0003e5b0       __unwindfunclet$?Extract@KeywordExtractor@cppjieba@@QBEXABV?$basic_string@DU?$char_traits@D@std@@V?$allocator@D@2@@std@@AAV?$vector@UWord@KeywordExtractor@cppjieba@@V?$allocator@UWord@KeywordExtractor@cppjieba@@@std@@@4@I@Z$5 1003f5b0 f   nodejieba.obj
 0001:0003e5bb       __unwindfunclet$?Extract@KeywordExtractor@cppjieba@@QBEXABV?$basic_string@DU?$char_traits@D@std@@V?$allocator@D@2@@std@@AAV?$vector@UWord@KeywordExtractor@cppjieba@@V?$allocator@UWord@KeywordExtractor@cppjieba@@@std@@@4@I@Z$2 1003f5bb f   nodejieba.obj
 0001:0003e5c6       __ehhandler$?Extract@KeywordExtractor@cppjieba@@QBEXABV?$basic_string@DU?$char_traits@D@std@@V?$allocator@D@2@@std@@AAV?$vector@UWord@KeywordExtractor@cppjieba@@V?$allocator@UWord@KeywordExtractor@cppjieba@@@std@@@4@I@Z 1003f5c6 f   nodejieba.obj
 0001:0003e5f0       __unwindfunclet$?LoadIdfDict@KeywordExtractor@cppjieba@@AAEXABV?$basic_string@DU?$char_traits@D@std@@V?$allocator@D@2@@std@@@Z$0 1003f5f0 f   nodejieba.obj
 0001:0003e5fb       __unwindfunclet$?LoadIdfDict@KeywordExtractor@cppjieba@@AAEXABV?$basic_string@DU?$char_traits@D@std@@V?$allocator@D@2@@std@@@Z$1 1003f5fb f   nodejieba.obj
 0001:0003e606       __unwindfunclet$?LoadIdfDict@KeywordExtractor@cppjieba@@AAEXABV?$basic_string@DU?$char_traits@D@std@@V?$allocator@D@2@@std@@@Z$2 1003f606 f   nodejieba.obj
 0001:0003e60e       __unwindfunclet$?LoadIdfDict@KeywordExtractor@cppjieba@@AAEXABV?$basic_string@DU?$char_traits@D@std@@V?$allocator@D@2@@std@@@Z$3 1003f60e f   nodejieba.obj
 0001:0003e616       __unwindfunclet$?LoadIdfDict@KeywordExtractor@cppjieba@@AAEXABV?$basic_string@DU?$char_traits@D@std@@V?$allocator@D@2@@std@@@Z$8 1003f616 f   nodejieba.obj
 0001:0003e621       __unwindfunclet$?LoadIdfDict@KeywordExtractor@cppjieba@@AAEXABV?$basic_string@DU?$char_traits@D@std@@V?$allocator@D@2@@std@@@Z$4 1003f621 f   nodejieba.obj
 0001:0003e62c       __unwindfunclet$?LoadIdfDict@KeywordExtractor@cppjieba@@AAEXABV?$basic_string@DU?$char_traits@D@std@@V?$allocator@D@2@@std@@@Z$5 1003f62c f   nodejieba.obj
 0001:0003e634       __unwindfunclet$?LoadIdfDict@KeywordExtractor@cppjieba@@AAEXABV?$basic_string@DU?$char_traits@D@std@@V?$allocator@D@2@@std@@@Z$6 1003f634 f   nodejieba.obj
 0001:0003e63f       __ehhandler$?LoadIdfDict@KeywordExtractor@cppjieba@@AAEXABV?$basic_string@DU?$char_traits@D@std@@V?$allocator@D@2@@std@@@Z 1003f63f f   nodejieba.obj
 0001:0003e670       __unwindfunclet$?LoadStopWordDict@KeywordExtractor@cppjieba@@AAEXABV?$basic_string@DU?$char_traits@D@std@@V?$allocator@D@2@@std@@@Z$0 1003f670 f   nodejieba.obj
 0001:0003e67b       __unwindfunclet$?LoadStopWordDict@KeywordExtractor@cppjieba@@AAEXABV?$basic_string@DU?$char_traits@D@std@@V?$allocator@D@2@@std@@@Z$1 1003f67b f   nodejieba.obj
 0001:0003e686       __unwindfunclet$?LoadStopWordDict@KeywordExtractor@cppjieba@@AAEXABV?$basic_string@DU?$char_traits@D@std@@V?$allocator@D@2@@std@@@Z$2 1003f686 f   nodejieba.obj
 0001:0003e68e       __ehhandler$?LoadStopWordDict@KeywordExtractor@cppjieba@@AAEXABV?$basic_string@DU?$char_traits@D@std@@V?$allocator@D@2@@std@@@Z 1003f68e f   nodejieba.obj
 0001:0003e6c0       __unwindfunclet$?load@@YAXABV?$FunctionCallbackInfo@VValue@v8@@@Nan@@@Z$0 1003f6c0 f   nodejieba.obj
 0001:0003e6cc       __unwindfunclet$?load@@YAXABV?$FunctionCallbackInfo@VValue@v8@@@Nan@@@Z$1 1003f6cc f   nodejieba.obj
 0001:0003e6d8       __unwindfunclet$?load@@YAXABV?$FunctionCallbackInfo@VValue@v8@@@Nan@@@Z$2 1003f6d8 f   nodejieba.obj
 0001:0003e6e1       __unwindfunclet$?load@@YAXABV?$FunctionCallbackInfo@VValue@v8@@@Nan@@@Z$3 1003f6e1 f   nodejieba.obj
 0001:0003e6ea       __unwindfunclet$?load@@YAXABV?$FunctionCallbackInfo@VValue@v8@@@Nan@@@Z$4 1003f6ea f   nodejieba.obj
 0001:0003e6f3       __unwindfunclet$?load@@YAXABV?$FunctionCallbackInfo@VValue@v8@@@Nan@@@Z$5 1003f6f3 f   nodejieba.obj
 0001:0003e705       __unwindfunclet$?load@@YAXABV?$FunctionCallbackInfo@VValue@v8@@@Nan@@@Z$6 1003f705 f   nodejieba.obj
 0001:0003e71e       __unwindfunclet$?load@@YAXABV?$FunctionCallbackInfo@VValue@v8@@@Nan@@@Z$7 1003f71e f   nodejieba.obj
 0001:0003e737       __unwindfunclet$?load@@YAXABV?$FunctionCallbackInfo@VValue@v8@@@Nan@@@Z$8 1003f737 f   nodejieba.obj
 0001:0003e750       __unwindfunclet$?load@@YAXABV?$FunctionCallbackInfo@VValue@v8@@@Nan@@@Z$9 1003f750 f   nodejieba.obj
 0001:0003e762       __unwindfunclet$?load@@YAXABV?$FunctionCallbackInfo@VValue@v8@@@Nan@@@Z$10 1003f762 f   nodejieba.obj
 0001:0003e77b       __unwindfunclet$?load@@YAXABV?$FunctionCallbackInfo@VValue@v8@@@Nan@@@Z$11 1003f77b f   nodejieba.obj
 0001:0003e794       __ehhandler$?load@@YAXABV?$FunctionCallbackInfo@VValue@v8@@@Nan@@@Z 1003f794 f   nodejieba.obj
 0001:0003e7c0       __unwindfunclet$?insertWord@@YAXABV?$FunctionCallbackInfo@VValue@v8@@@Nan@@@Z$0 1003f7c0 f   nodejieba.obj
 0001:0003e7c9       __unwindfunclet$?insertWord@@YAXABV?$FunctionCallbackInfo@VValue@v8@@@Nan@@@Z$1 1003f7c9 f   nodejieba.obj
 0001:0003e7d1       __unwindfunclet$?insertWord@@YAXABV?$FunctionCallbackInfo@VValue@v8@@@Nan@@@Z$2 1003f7d1 f   nodejieba.obj
 0001:0003e7d9       __unwindfunclet$?insertWord@@YAXABV?$FunctionCallbackInfo@VValue@v8@@@Nan@@@Z$3 1003f7d9 f   nodejieba.obj
 0001:0003e7e2       __ehhandler$?insertWord@@YAXABV?$FunctionCallbackInfo@VValue@v8@@@Nan@@@Z 1003f7e2 f   nodejieba.obj
 0001:0003e810       __unwindfunclet$?cutSmall@@YAXABV?$FunctionCallbackInfo@VValue@v8@@@Nan@@@Z$0 1003f810 f   nodejieba.obj
 0001:0003e810       __unwindfunclet$?cutForSearch@@YAXABV?$FunctionCallbackInfo@VValue@v8@@@Nan@@@Z$0 1003f810 f   nodejieba.obj
 0001:0003e810       __unwindfunclet$?cut@@YAXABV?$FunctionCallbackInfo@VValue@v8@@@Nan@@@Z$0 1003f810 f   nodejieba.obj
 0001:0003e819       __unwindfunclet$?cut@@YAXABV?$FunctionCallbackInfo@VValue@v8@@@Nan@@@Z$1 1003f819 f   nodejieba.obj
 0001:0003e819       __unwindfunclet$?cutSmall@@YAXABV?$FunctionCallbackInfo@VValue@v8@@@Nan@@@Z$1 1003f819 f   nodejieba.obj
 0001:0003e819       __unwindfunclet$?cutForSearch@@YAXABV?$FunctionCallbackInfo@VValue@v8@@@Nan@@@Z$1 1003f819 f   nodejieba.obj
 0001:0003e821       __unwindfunclet$?cutForSearch@@YAXABV?$FunctionCallbackInfo@VValue@v8@@@Nan@@@Z$2 1003f821 f   nodejieba.obj
 0001:0003e821       __unwindfunclet$?cut@@YAXABV?$FunctionCallbackInfo@VValue@v8@@@Nan@@@Z$2 1003f821 f   nodejieba.obj
 0001:0003e821       __unwindfunclet$?cutSmall@@YAXABV?$FunctionCallbackInfo@VValue@v8@@@Nan@@@Z$2 1003f821 f   nodejieba.obj
 0001:0003e829       __ehhandler$?cutForSearch@@YAXABV?$FunctionCallbackInfo@VValue@v8@@@Nan@@@Z 1003f829 f   nodejieba.obj
 0001:0003e829       __ehhandler$?cut@@YAXABV?$FunctionCallbackInfo@VValue@v8@@@Nan@@@Z 1003f829 f   nodejieba.obj
 0001:0003e829       __ehhandler$?cutSmall@@YAXABV?$FunctionCallbackInfo@VValue@v8@@@Nan@@@Z 1003f829 f   nodejieba.obj
 0001:0003e850       __unwindfunclet$?cutAll@@YAXABV?$FunctionCallbackInfo@VValue@v8@@@Nan@@@Z$0 1003f850 f   nodejieba.obj
 0001:0003e850       __unwindfunclet$?cutHMM@@YAXABV?$FunctionCallbackInfo@VValue@v8@@@Nan@@@Z$0 1003f850 f   nodejieba.obj
 0001:0003e859       __unwindfunclet$?cutAll@@YAXABV?$FunctionCallbackInfo@VValue@v8@@@Nan@@@Z$1 1003f859 f   nodejieba.obj
 0001:0003e859       __unwindfunclet$?cutHMM@@YAXABV?$FunctionCallbackInfo@VValue@v8@@@Nan@@@Z$1 1003f859 f   nodejieba.obj
 0001:0003e861       __unwindfunclet$?cutHMM@@YAXABV?$FunctionCallbackInfo@VValue@v8@@@Nan@@@Z$2 1003f861 f   nodejieba.obj
 0001:0003e861       __unwindfunclet$?cutAll@@YAXABV?$FunctionCallbackInfo@VValue@v8@@@Nan@@@Z$2 1003f861 f   nodejieba.obj
 0001:0003e869       __ehhandler$?cutAll@@YAXABV?$FunctionCallbackInfo@VValue@v8@@@Nan@@@Z 1003f869 f   nodejieba.obj
 0001:0003e869       __ehhandler$?cutHMM@@YAXABV?$FunctionCallbackInfo@VValue@v8@@@Nan@@@Z 1003f869 f   nodejieba.obj
 0001:0003e890       __unwindfunclet$?tag@@YAXABV?$FunctionCallbackInfo@VValue@v8@@@Nan@@@Z$0 1003f890 f   nodejieba.obj
 0001:0003e898       __unwindfunclet$?tag@@YAXABV?$FunctionCallbackInfo@VValue@v8@@@Nan@@@Z$1 1003f898 f   nodejieba.obj
 0001:0003e8a1       __unwindfunclet$?tag@@YAXABV?$FunctionCallbackInfo@VValue@v8@@@Nan@@@Z$2 1003f8a1 f   nodejieba.obj
 0001:0003e8a9       __ehhandler$?tag@@YAXABV?$FunctionCallbackInfo@VValue@v8@@@Nan@@@Z 1003f8a9 f   nodejieba.obj
 0001:0003e8d0       __unwindfunclet$?extract@@YAXABV?$FunctionCallbackInfo@VValue@v8@@@Nan@@@Z$0 1003f8d0 f   nodejieba.obj
 0001:0003e8d9       __unwindfunclet$?extract@@YAXABV?$FunctionCallbackInfo@VValue@v8@@@Nan@@@Z$1 1003f8d9 f   nodejieba.obj
 0001:0003e8e1       __unwindfunclet$?extract@@YAXABV?$FunctionCallbackInfo@VValue@v8@@@Nan@@@Z$2 1003f8e1 f   nodejieba.obj
 0001:0003e8e9       __ehhandler$?extract@@YAXABV?$FunctionCallbackInfo@VValue@v8@@@Nan@@@Z 1003f8e9 f   nodejieba.obj
 0001:0003e910       __unwindfunclet$?push_back@?$vector@UWord@KeywordExtractor@cppjieba@@V?$allocator@UWord@KeywordExtractor@cppjieba@@@std@@@std@@QAEXABUWord@KeywordExtractor@cppjieba@@@Z$0 1003f910 f   nodejieba.obj
 0001:0003e921       __unwindfunclet$?push_back@?$vector@UWord@KeywordExtractor@cppjieba@@V?$allocator@UWord@KeywordExtractor@cppjieba@@@std@@@std@@QAEXABUWord@KeywordExtractor@cppjieba@@@Z$1 1003f921 f   nodejieba.obj
 0001:0003e929       __unwindfunclet$?push_back@?$vector@UWord@KeywordExtractor@cppjieba@@V?$allocator@UWord@KeywordExtractor@cppjieba@@@std@@@std@@QAEXABUWord@KeywordExtractor@cppjieba@@@Z$3 1003f929 f   nodejieba.obj
 0001:0003e93a       __unwindfunclet$?push_back@?$vector@UWord@KeywordExtractor@cppjieba@@V?$allocator@UWord@KeywordExtractor@cppjieba@@@std@@@std@@QAEXABUWord@KeywordExtractor@cppjieba@@@Z$4 1003f93a f   nodejieba.obj
 0001:0003e942       __ehhandler$?push_back@?$vector@UWord@KeywordExtractor@cppjieba@@V?$allocator@UWord@KeywordExtractor@cppjieba@@@std@@@std@@QAEXABUWord@KeywordExtractor@cppjieba@@@Z 1003f942 f   nodejieba.obj
 0001:0003e960       __unwindfunclet$?push_back@?$deque@UDictUnit@cppjieba@@V?$allocator@UDictUnit@cppjieba@@@std@@@std@@QAEXABUDictUnit@cppjieba@@@Z$0 1003f960 f   nodejieba.obj
 0001:0003e971       __unwindfunclet$?push_back@?$deque@UDictUnit@cppjieba@@V?$allocator@UDictUnit@cppjieba@@@std@@@std@@QAEXABUDictUnit@cppjieba@@@Z$1 1003f971 f   nodejieba.obj
 0001:0003e979       __ehhandler$?push_back@?$deque@UDictUnit@cppjieba@@V?$allocator@UDictUnit@cppjieba@@@std@@@std@@QAEXABUDictUnit@cppjieba@@@Z 1003f979 f   nodejieba.obj
 0001:0003e9a0       __unwindfunclet$?push_back@?$vector@V?$basic_string@DU?$char_traits@D@std@@V?$allocator@D@2@@std@@V?$allocator@V?$basic_string@DU?$char_traits@D@std@@V?$allocator@D@2@@std@@@2@@std@@QAEXABV?$basic_string@DU?$char_traits@D@std@@V?$allocator@D@2@@2@@Z$0 1003f9a0 f   nodejieba.obj
 0001:0003e9b1       __unwindfunclet$?push_back@?$vector@V?$basic_string@DU?$char_traits@D@std@@V?$allocator@D@2@@std@@V?$allocator@V?$basic_string@DU?$char_traits@D@std@@V?$allocator@D@2@@std@@@2@@std@@QAEXABV?$basic_string@DU?$char_traits@D@std@@V?$allocator@D@2@@2@@Z$1 1003f9b1 f   nodejieba.obj
 0001:0003e9c2       __ehhandler$?push_back@?$vector@V?$basic_string@DU?$char_traits@D@std@@V?$allocator@D@2@@std@@V?$allocator@V?$basic_string@DU?$char_traits@D@std@@V?$allocator@D@2@@std@@@2@@std@@QAEXABV?$basic_string@DU?$char_traits@D@std@@V?$allocator@D@2@@2@@Z 1003f9c2 f   nodejieba.obj
 0001:0003e9e0       __unwindfunclet$??0?$basic_ifstream@DU?$char_traits@D@std@@@std@@QAE@PBDHH@Z$0 1003f9e0 f   nodejieba.obj
 0001:0003e9fc       __unwindfunclet$??0?$basic_ifstream@DU?$char_traits@D@std@@@std@@QAE@PBDHH@Z$1 1003f9fc f   nodejieba.obj
 0001:0003ea07       __unwindfunclet$??0?$basic_ifstream@DU?$char_traits@D@std@@@std@@QAE@PBDHH@Z$2 1003fa07 f   nodejieba.obj
 0001:0003ea12       __ehhandler$??0?$basic_ifstream@DU?$char_traits@D@std@@@std@@QAE@PBDHH@Z 1003fa12 f   nodejieba.obj
 0001:0003ea30       __unwindfunclet$?uflow@?$basic_filebuf@DU?$char_traits@D@std@@@std@@MAEHXZ$0 1003fa30 f   nodejieba.obj
 0001:0003ea38       __ehhandler$?uflow@?$basic_filebuf@DU?$char_traits@D@std@@@std@@MAEHXZ 1003fa38 f   nodejieba.obj
 0001:0003ea60       __unwindfunclet$?overflow@?$basic_filebuf@DU?$char_traits@D@std@@@std@@MAEHH@Z$0 1003fa60 f   nodejieba.obj
 0001:0003ea68       __ehhandler$?overflow@?$basic_filebuf@DU?$char_traits@D@std@@@std@@MAEHH@Z 1003fa68 f   nodejieba.obj
 0001:0003ea90       __unwindfunclet$??0?$basic_ostringstream@DU?$char_traits@D@std@@V?$allocator@D@2@@std@@QAE@H@Z$0 1003fa90 f   nodejieba.obj
 0001:0003eaac       __unwindfunclet$??0?$basic_ostringstream@DU?$char_traits@D@std@@V?$allocator@D@2@@std@@QAE@H@Z$1 1003faac f   nodejieba.obj
 0001:0003eab7       __unwindfunclet$??0?$basic_ostringstream@DU?$char_traits@D@std@@V?$allocator@D@2@@std@@QAE@H@Z$4 1003fab7 f   nodejieba.obj
 0001:0003eabf       __ehhandler$??0?$basic_ostringstream@DU?$char_traits@D@std@@V?$allocator@D@2@@std@@QAE@H@Z 1003fabf f   nodejieba.obj
 0001:0003eae0       __unwindfunclet$??6?$basic_ostream@DU?$char_traits@D@std@@@std@@QAEAAV01@I@Z$2 1003fae0 f   nodejieba.obj
 0001:0003eae8       __unwindfunclet$??6?$basic_ostream@DU?$char_traits@D@std@@@std@@QAEAAV01@I@Z$0 1003fae8 f   nodejieba.obj
 0001:0003eaf0       __unwindfunclet$??6?$basic_ostream@DU?$char_traits@D@std@@@std@@QAEAAV01@I@Z$1 1003faf0 f   nodejieba.obj
 0001:0003eaf8       __ehhandler$??6?$basic_ostream@DU?$char_traits@D@std@@@std@@QAEAAV01@I@Z 1003faf8 f   nodejieba.obj
 0001:0003eb20       __unwindfunclet$??6?$basic_ostream@DU?$char_traits@D@std@@@std@@QAEAAV01@H@Z$2 1003fb20 f   nodejieba.obj
 0001:0003eb28       __unwindfunclet$??6?$basic_ostream@DU?$char_traits@D@std@@@std@@QAEAAV01@H@Z$0 1003fb28 f   nodejieba.obj
 0001:0003eb30       __unwindfunclet$??6?$basic_ostream@DU?$char_traits@D@std@@@std@@QAEAAV01@H@Z$1 1003fb30 f   nodejieba.obj
 0001:0003eb38       __ehhandler$??6?$basic_ostream@DU?$char_traits@D@std@@@std@@QAEAAV01@H@Z 1003fb38 f   nodejieba.obj
 0001:0003eb60       __unwindfunclet$??0?$_Hash@V?$_Uset_traits@V?$basic_string@DU?$char_traits@D@std@@V?$allocator@D@2@@std@@V?$_Uhash_compare@V?$basic_string@DU?$char_traits@D@std@@V?$allocator@D@2@@std@@U?$hash@V?$basic_string@DU?$char_traits@D@std@@V?$allocator@D@2@@std@@@2@U?$equal_to@V?$basic_string@DU?$char_traits@D@std@@V?$allocator@D@2@@std@@@2@@2@V?$allocator@V?$basic_string@DU?$char_traits@D@std@@V?$allocator@D@2@@std@@@2@$0A@@std@@@std@@QAE@ABV?$_Uhash_compare@V?$basic_string@DU?$char_traits@D@std@@V?$allocator@D@2@@std@@U?$hash@V?$basic_string@DU?$char_traits@D@std@@V?$allocator@D@2@@std@@@2@U?$equal_to@V?$basic_string@DU?$char_traits@D@std@@V?$allocator@D@2@@std@@@2@@1@ABV?$allocator@V?$basic_string@DU?$char_traits@D@std@@V?$allocator@D@2@@std@@@1@@Z$0 1003fb60 f   nodejieba.obj
 0001:0003eb60       __unwindfunclet$??0?$_Hash@V?$_Umap_traits@V?$basic_string@DU?$char_traits@D@std@@V?$allocator@D@2@@std@@NV?$_Uhash_compare@V?$basic_string@DU?$char_traits@D@std@@V?$allocator@D@2@@std@@U?$hash@V?$basic_string@DU?$char_traits@D@std@@V?$allocator@D@2@@std@@@2@U?$equal_to@V?$basic_string@DU?$char_traits@D@std@@V?$allocator@D@2@@std@@@2@@2@V?$allocator@U?$pair@$$CBV?$basic_string@DU?$char_traits@D@std@@V?$allocator@D@2@@std@@N@std@@@2@$0A@@std@@@std@@QAE@ABV?$_Uhash_compare@V?$basic_string@DU?$char_traits@D@std@@V?$allocator@D@2@@std@@U?$hash@V?$basic_string@DU?$char_traits@D@std@@V?$allocator@D@2@@std@@@2@U?$equal_to@V?$basic_string@DU?$char_traits@D@std@@V?$allocator@D@2@@std@@@2@@1@ABV?$allocator@U?$pair@$$CBV?$basic_string@DU?$char_traits@D@std@@V?$allocator@D@2@@std@@N@std@@@1@@Z$0 1003fb60 f   nodejieba.obj
 0001:0003eb6b       __unwindfunclet$??0?$_Hash@V?$_Umap_traits@V?$basic_string@DU?$char_traits@D@std@@V?$allocator@D@2@@std@@NV?$_Uhash_compare@V?$basic_string@DU?$char_traits@D@std@@V?$allocator@D@2@@std@@U?$hash@V?$basic_string@DU?$char_traits@D@std@@V?$allocator@D@2@@std@@@2@U?$equal_to@V?$basic_string@DU?$char_traits@D@std@@V?$allocator@D@2@@std@@@2@@2@V?$allocator@U?$pair@$$CBV?$basic_string@DU?$char_traits@D@std@@V?$allocator@D@2@@std@@N@std@@@2@$0A@@std@@@std@@QAE@ABV?$_Uhash_compare@V?$basic_string@DU?$char_traits@D@std@@V?$allocator@D@2@@std@@U?$hash@V?$basic_string@DU?$char_traits@D@std@@V?$allocator@D@2@@std@@@2@U?$equal_to@V?$basic_string@DU?$char_traits@D@std@@V?$allocator@D@2@@std@@@2@@1@ABV?$allocator@U?$pair@$$CBV?$basic_string@DU?$char_traits@D@std@@V?$allocator@D@2@@std@@N@std@@@1@@Z$1 1003fb6b f   nodejieba.obj
 0001:0003eb6b       __unwindfunclet$??0?$_Hash@V?$_Uset_traits@V?$basic_string@DU?$char_traits@D@std@@V?$allocator@D@2@@std@@V?$_Uhash_compare@V?$basic_string@DU?$char_traits@D@std@@V?$allocator@D@2@@std@@U?$hash@V?$basic_string@DU?$char_traits@D@std@@V?$allocator@D@2@@std@@@2@U?$equal_to@V?$basic_string@DU?$char_traits@D@std@@V?$allocator@D@2@@std@@@2@@2@V?$allocator@V?$basic_string@DU?$char_traits@D@std@@V?$allocator@D@2@@std@@@2@$0A@@std@@@std@@QAE@ABV?$_Uhash_compare@V?$basic_string@DU?$char_traits@D@std@@V?$allocator@D@2@@std@@U?$hash@V?$basic_string@DU?$char_traits@D@std@@V?$allocator@D@2@@std@@@2@U?$equal_to@V?$basic_string@DU?$char_traits@D@std@@V?$allocator@D@2@@std@@@2@@1@ABV?$allocator@V?$basic_string@DU?$char_traits@D@std@@V?$allocator@D@2@@std@@@1@@Z$1 1003fb6b f   nodejieba.obj
 0001:0003eb76       __ehhandler$??0?$_Hash@V?$_Umap_traits@V?$basic_string@DU?$char_traits@D@std@@V?$allocator@D@2@@std@@NV?$_Uhash_compare@V?$basic_string@DU?$char_traits@D@std@@V?$allocator@D@2@@std@@U?$hash@V?$basic_string@DU?$char_traits@D@std@@V?$allocator@D@2@@std@@@2@U?$equal_to@V?$basic_string@DU?$char_traits@D@std@@V?$allocator@D@2@@std@@@2@@2@V?$allocator@U?$pair@$$CBV?$basic_string@DU?$char_traits@D@std@@V?$allocator@D@2@@std@@N@std@@@2@$0A@@std@@@std@@QAE@ABV?$_Uhash_compare@V?$basic_string@DU?$char_traits@D@std@@V?$allocator@D@2@@std@@U?$hash@V?$basic_string@DU?$char_traits@D@std@@V?$allocator@D@2@@std@@@2@U?$equal_to@V?$basic_string@DU?$char_traits@D@std@@V?$allocator@D@2@@std@@@2@@1@ABV?$allocator@U?$pair@$$CBV?$basic_string@DU?$char_traits@D@std@@V?$allocator@D@2@@std@@N@std@@@1@@Z 1003fb76 f   nodejieba.obj
 0001:0003eb76       __ehhandler$??0?$_Hash@V?$_Uset_traits@V?$basic_string@DU?$char_traits@D@std@@V?$allocator@D@2@@std@@V?$_Uhash_compare@V?$basic_string@DU?$char_traits@D@std@@V?$allocator@D@2@@std@@U?$hash@V?$basic_string@DU?$char_traits@D@std@@V?$allocator@D@2@@std@@@2@U?$equal_to@V?$basic_string@DU?$char_traits@D@std@@V?$allocator@D@2@@std@@@2@@2@V?$allocator@V?$basic_string@DU?$char_traits@D@std@@V?$allocator@D@2@@std@@@2@$0A@@std@@@std@@QAE@ABV?$_Uhash_compare@V?$basic_string@DU?$char_traits@D@std@@V?$allocator@D@2@@std@@U?$hash@V?$basic_string@DU?$char_traits@D@std@@V?$allocator@D@2@@std@@@2@U?$equal_to@V?$basic_string@DU?$char_traits@D@std@@V?$allocator@D@2@@std@@@2@@1@ABV?$allocator@V?$basic_string@DU?$char_traits@D@std@@V?$allocator@D@2@@std@@@1@@Z 1003fb76 f   nodejieba.obj
 0001:0003eba0       __unwindfunclet$??0?$_Hash@V?$_Uset_traits@IV?$_Uhash_compare@IU?$hash@I@std@@U?$equal_to@I@2@@std@@V?$allocator@I@2@$0A@@std@@@std@@QAE@ABV?$_Uhash_compare@IU?$hash@I@std@@U?$equal_to@I@2@@1@ABV?$allocator@I@1@@Z$0 1003fba0 f   nodejieba.obj
 0001:0003eba0       __unwindfunclet$??0?$_Hash@V?$_Umap_traits@INV?$_Uhash_compare@IU?$hash@I@std@@U?$equal_to@I@2@@std@@V?$allocator@U?$pair@$$CBIN@std@@@2@$0A@@std@@@std@@QAE@ABV?$_Uhash_compare@IU?$hash@I@std@@U?$equal_to@I@2@@1@ABV?$allocator@U?$pair@$$CBIN@std@@@1@@Z$0 1003fba0 f   nodejieba.obj
 0001:0003ebab       __unwindfunclet$??0?$_Hash@V?$_Uset_traits@IV?$_Uhash_compare@IU?$hash@I@std@@U?$equal_to@I@2@@std@@V?$allocator@I@2@$0A@@std@@@std@@QAE@ABV?$_Uhash_compare@IU?$hash@I@std@@U?$equal_to@I@2@@1@ABV?$allocator@I@1@@Z$1 1003fbab f   nodejieba.obj
 0001:0003ebab       __unwindfunclet$??0?$_Hash@V?$_Umap_traits@INV?$_Uhash_compare@IU?$hash@I@std@@U?$equal_to@I@2@@std@@V?$allocator@U?$pair@$$CBIN@std@@@2@$0A@@std@@@std@@QAE@ABV?$_Uhash_compare@IU?$hash@I@std@@U?$equal_to@I@2@@1@ABV?$allocator@U?$pair@$$CBIN@std@@@1@@Z$1 1003fbab f   nodejieba.obj
 0001:0003ebb6       __ehhandler$??0?$_Hash@V?$_Umap_traits@INV?$_Uhash_compare@IU?$hash@I@std@@U?$equal_to@I@2@@std@@V?$allocator@U?$pair@$$CBIN@std@@@2@$0A@@std@@@std@@QAE@ABV?$_Uhash_compare@IU?$hash@I@std@@U?$equal_to@I@2@@1@ABV?$allocator@U?$pair@$$CBIN@std@@@1@@Z 1003fbb6 f   nodejieba.obj
 0001:0003ebb6       __ehhandler$??0?$_Hash@V?$_Uset_traits@IV?$_Uhash_compare@IU?$hash@I@std@@U?$equal_to@I@2@@std@@V?$allocator@I@2@$0A@@std@@@std@@QAE@ABV?$_Uhash_compare@IU?$hash@I@std@@U?$equal_to@I@2@@1@ABV?$allocator@I@1@@Z 1003fbb6 f   nodejieba.obj
 0001:0003ebe0       __unwindfunclet$??0sentry@?$basic_ostream@DU?$char_traits@D@std@@@std@@QAE@AAV12@@Z$0 1003fbe0 f   nodejieba.obj
 0001:0003ebe8       __ehhandler$??0sentry@?$basic_ostream@DU?$char_traits@D@std@@@std@@QAE@AAV12@@Z 1003fbe8 f   nodejieba.obj
 0001:0003ec10       __unwindfunclet$?do_put@?$num_put@DV?$ostreambuf_iterator@DU?$char_traits@D@std@@@std@@@std@@MBE?AV?$ostreambuf_iterator@DU?$char_traits@D@std@@@2@V32@AAVios_base@2@DN@Z$0 1003fc10 f   nodejieba.obj
 0001:0003ec10       __unwindfunclet$?do_put@?$num_put@DV?$ostreambuf_iterator@DU?$char_traits@D@std@@@std@@@std@@MBE?AV?$ostreambuf_iterator@DU?$char_traits@D@std@@@2@V32@AAVios_base@2@DO@Z$0 1003fc10 f   nodejieba.obj
 0001:0003ec18       __ehhandler$?do_put@?$num_put@DV?$ostreambuf_iterator@DU?$char_traits@D@std@@@std@@@std@@MBE?AV?$ostreambuf_iterator@DU?$char_traits@D@std@@@2@V32@AAVios_base@2@DN@Z 1003fc18 f   nodejieba.obj
 0001:0003ec18       __ehhandler$?do_put@?$num_put@DV?$ostreambuf_iterator@DU?$char_traits@D@std@@@std@@@std@@MBE?AV?$ostreambuf_iterator@DU?$char_traits@D@std@@@2@V32@AAVios_base@2@DO@Z 1003fc18 f   nodejieba.obj
 0001:0003ec40       __unwindfunclet$?do_put@?$num_put@DV?$ostreambuf_iterator@DU?$char_traits@D@std@@@std@@@std@@MBE?AV?$ostreambuf_iterator@DU?$char_traits@D@std@@@2@V32@AAVios_base@2@D_N@Z$0 1003fc40 f   nodejieba.obj
 0001:0003ec48       __unwindfunclet$?do_put@?$num_put@DV?$ostreambuf_iterator@DU?$char_traits@D@std@@@std@@@std@@MBE?AV?$ostreambuf_iterator@DU?$char_traits@D@std@@@2@V32@AAVios_base@2@D_N@Z$1 1003fc48 f   nodejieba.obj
 0001:0003ec50       __ehhandler$?do_put@?$num_put@DV?$ostreambuf_iterator@DU?$char_traits@D@std@@@std@@@std@@MBE?AV?$ostreambuf_iterator@DU?$char_traits@D@std@@@2@V32@AAVios_base@2@D_N@Z 1003fc50 f   nodejieba.obj
 0001:0003ec80       __unwindfunclet$?_Endwrite@?$basic_filebuf@DU?$char_traits@D@std@@@std@@IAE_NXZ$0 1003fc80 f   nodejieba.obj
 0001:0003ec88       __ehhandler$?_Endwrite@?$basic_filebuf@DU?$char_traits@D@std@@@std@@IAE_NXZ 1003fc88 f   nodejieba.obj
 0001:0003ecb0       __unwindfunclet$?open@?$basic_filebuf@DU?$char_traits@D@std@@@std@@QAEPAV12@PBDHH@Z$0 1003fcb0 f   nodejieba.obj
 0001:0003ecb0       __unwindfunclet$?widen@?$basic_ios@DU?$char_traits@D@std@@@std@@QBEDD@Z$0 1003fcb0 f   nodejieba.obj
 0001:0003ecb8       __ehhandler$?widen@?$basic_ios@DU?$char_traits@D@std@@@std@@QBEDD@Z 1003fcb8 f   nodejieba.obj
 0001:0003ecb8       __ehhandler$?open@?$basic_filebuf@DU?$char_traits@D@std@@@std@@QAEPAV12@PBDHH@Z 1003fcb8 f   nodejieba.obj
 0001:0003ece0       __unwindfunclet$??0?$basic_ostream@DU?$char_traits@D@std@@@std@@QAE@PAV?$basic_streambuf@DU?$char_traits@D@std@@@1@_N@Z$0 1003fce0 f   nodejieba.obj
 0001:0003ecfc       __ehhandler$??0?$basic_ostream@DU?$char_traits@D@std@@@std@@QAE@PAV?$basic_streambuf@DU?$char_traits@D@std@@@1@_N@Z 1003fcfc f   nodejieba.obj
 0001:0003ed20       __ehhandler$??0?$basic_istream@DU?$char_traits@D@std@@@std@@QAE@PAV?$basic_streambuf@DU?$char_traits@D@std@@@1@_N@Z 1003fd20 f   nodejieba.obj
 0001:0003ed40       __unwindfunclet$?_Iput@?$num_put@DV?$ostreambuf_iterator@DU?$char_traits@D@std@@@std@@@std@@ABA?AV?$ostreambuf_iterator@DU?$char_traits@D@std@@@2@V32@AAVios_base@2@DPADI@Z$0 1003fd40 f   nodejieba.obj
 0001:0003ed48       __unwindfunclet$?_Iput@?$num_put@DV?$ostreambuf_iterator@DU?$char_traits@D@std@@@std@@@std@@ABA?AV?$ostreambuf_iterator@DU?$char_traits@D@std@@@2@V32@AAVios_base@2@DPADI@Z$1 1003fd48 f   nodejieba.obj
 0001:0003ed50       __unwindfunclet$?_Iput@?$num_put@DV?$ostreambuf_iterator@DU?$char_traits@D@std@@@std@@@std@@ABA?AV?$ostreambuf_iterator@DU?$char_traits@D@std@@@2@V32@AAVios_base@2@DPADI@Z$2 1003fd50 f   nodejieba.obj
 0001:0003ed58       __unwindfunclet$?_Iput@?$num_put@DV?$ostreambuf_iterator@DU?$char_traits@D@std@@@std@@@std@@ABA?AV?$ostreambuf_iterator@DU?$char_traits@D@std@@@2@V32@AAVios_base@2@DPADI@Z$3 1003fd58 f   nodejieba.obj
 0001:0003ed60       __ehhandler$?_Iput@?$num_put@DV?$ostreambuf_iterator@DU?$char_traits@D@std@@@std@@@std@@ABA?AV?$ostreambuf_iterator@DU?$char_traits@D@std@@@2@V32@AAVios_base@2@DPADI@Z 1003fd60 f   nodejieba.obj
 0001:0003ed90       __unwindfunclet$?_Fput@?$num_put@DV?$ostreambuf_iterator@DU?$char_traits@D@std@@@std@@@std@@ABA?AV?$ostreambuf_iterator@DU?$char_traits@D@std@@@2@V32@AAVios_base@2@DPBDI@Z$0 1003fd90 f   nodejieba.obj
 0001:0003ed98       __unwindfunclet$?_Fput@?$num_put@DV?$ostreambuf_iterator@DU?$char_traits@D@std@@@std@@@std@@ABA?AV?$ostreambuf_iterator@DU?$char_traits@D@std@@@2@V32@AAVios_base@2@DPBDI@Z$1 1003fd98 f   nodejieba.obj
 0001:0003eda0       __unwindfunclet$?_Fput@?$num_put@DV?$ostreambuf_iterator@DU?$char_traits@D@std@@@std@@@std@@ABA?AV?$ostreambuf_iterator@DU?$char_traits@D@std@@@2@V32@AAVios_base@2@DPBDI@Z$2 1003fda0 f   nodejieba.obj
 0001:0003eda8       __unwindfunclet$?_Fput@?$num_put@DV?$ostreambuf_iterator@DU?$char_traits@D@std@@@std@@@std@@ABA?AV?$ostreambuf_iterator@DU?$char_traits@D@std@@@2@V32@AAVios_base@2@DPBDI@Z$3 1003fda8 f   nodejieba.obj
 0001:0003edb0       __ehhandler$?_Fput@?$num_put@DV?$ostreambuf_iterator@DU?$char_traits@D@std@@@std@@@std@@ABA?AV?$ostreambuf_iterator@DU?$char_traits@D@std@@@2@V32@AAVios_base@2@DPBDI@Z 1003fdb0 f   nodejieba.obj
 0001:0003ede0       __unwindfunclet$?flush@?$basic_ostream@DU?$char_traits@D@std@@@std@@QAEAAV12@XZ$0 1003fde0 f   nodejieba.obj
 0001:0003ede8       __ehhandler$?flush@?$basic_ostream@DU?$char_traits@D@std@@@std@@QAEAAV12@XZ 1003fde8 f   nodejieba.obj
 0001:0003ee10       __unwindfunclet$??0?$basic_streambuf@DU?$char_traits@D@std@@@std@@IAE@XZ$0 1003fe10 f   nodejieba.obj
 0001:0003ee1f       __ehhandler$??0?$basic_streambuf@DU?$char_traits@D@std@@@std@@IAE@XZ 1003fe1f f   nodejieba.obj
 0001:0003ee40       __unwindfunclet$??$use_facet@V?$ctype@D@std@@@std@@YAABV?$ctype@D@0@ABVlocale@0@@Z$0 1003fe40 f   nodejieba.obj
 0001:0003ee48       __ehhandler$??$use_facet@V?$ctype@D@std@@@std@@YAABV?$ctype@D@0@ABVlocale@0@@Z 1003fe48 f   nodejieba.obj
 0001:0003ee70       __unwindfunclet$??$New@VString@v8@@V?$basic_string@DU?$char_traits@D@std@@V?$allocator@D@2@@std@@@Nan@@YA?AV?$MaybeLocal@VString@v8@@@v8@@V?$basic_string@DU?$char_traits@D@std@@V?$allocator@D@2@@std@@@Z$0 1003fe70 f   nodejieba.obj
